
obj/src/bootloader/stage-1.5/protected.bin:     file format elf32-i386

Contents of section .text:
 8035 66906690 66906690 6690908d 4c240483  f.f.f.f.f...L$..
 8045 e4f0ff71 fc5589e5 5183ec0c 6a0068a6  ...q.U..Q...j.h.
 8055 830000e8 73000000 83c410eb fe669066  ....s........f.f
 8065 90669066 90669066 90669057 56538b44  .f.f.f.f.f.WVS.D
 8075 24148b5c 24188b74 241c8d14 c5000000  $..\$..t$.......
 8085 00035424 100fb742 04662500 7f660d00  ..T$...B.f%..f..
 8095 80668942 040fb6cc 89f06689 c6c1e810  .f.B......f.....
 80a5 6689c783 e30f83e1 90b84000 00006689  f.........@...f.
 80b5 3209d966 897a0666 89420288 4a055b5e  2..f.z.f.B..J.[^
 80c5 5fc36690 66906690 66909083 ec308b44  _.f.f.f.f....0.D
 80d5 24348b4c 24388038 008d1409 89542404  $4.L$8.8.....T$.
 80e5 7521660f efc00f11 4424080f 11442418  u!f.....D$...D$.
 80f5 0f114424 208b4424 0483c430 c38db600  ..D$ .D$...0....
 8105 0000008b 5424040f b6920080 0b008854  ....T$.........T
 8115 24038b54 24040fb6 4c240388 8a00800b  $..T$...L$......
 8125 008b5424 040fb608 888a0080 0b00c682  ..T$............
 8135 01800b00 1f8b5424 0483c001 83c20280  ......T$........
 8145 38008954 240475bb ebab9057 565383ec  8..T$.u....WVS..
 8155 308b4c24 406631c0 665083c4 0185c90f  0.L$@f1.fP......
 8165 84c60000 0031f6bf cdcccccc 2e8db426  .....1.........&
 8175 00000000 8db42600 00000089 c889cbf7  ......&.........
 8185 e7c1ea03 8d049201 c029c383 c3306631  .........)...0f1
 8195 c088d866 c1e00866 5083c401 89cb89f0  ...f...fP.......
 81a5 89d183c6 0183fb09 77d183c0 0289e001  ........w.......
 81b5 c48b7c24 44803800 8d143f89 54240475  ..|$D.8...?.T$.u
 81c5 22660fef c00f1144 24080f11 4424180f  "f.....D$...D$..
 81d5 11442420 8b442404 83c4305b 5e5fc38d  .D$ .D$...0[^_..
 81e5 7426008b 5424040f b6920080 0b008854  t&..T$.........T
 81f5 24038b54 24040fb6 4c240388 8a00800b  $..T$...L$......
 8205 008b5424 040fb608 888a0080 0b00c682  ..T$............
 8215 01800b00 1f8b5424 0483c001 83c20280  ......T$........
 8225 38008954 240475bb ebaa90b8 01000000  8..T$.u.........
 8235 e978ffff ff669066 90669083 ec146a00  .x...f.f.f....j.
 8245 68888300 00e881fe fffffaf4 83c410eb  h...............
 8255 fe669066 90669066 90669083 ec0c6840  .f.f.f.f.f....h@
 8265 8200006a 0e6a1068 e0830000 e8fafdff  ...j.j.h........
 8275 ff0f011d d4830000 fb83c41c c3        .............   
Contents of section .eh_frame:
 8284 14000000 00000000 017a5200 017c0801  .........zR..|..
 8294 1b0c0404 88010000 2c000000 1c000000  ........,.......
 82a4 ccfdffff 57000000 00410e08 8702410e  ....W....A....A.
 82b4 0c860341 0e108304 0251c30e 0c41c60e  ...A.....Q...A..
 82c4 0841c70e 04000000 18000000 4c000000  .A..........L...
 82d4 fcfdffff 7f000000 00430e34 6e0a0e04  .........C.4n...
 82e4 470b0000 34000000 68000000 60feffff  G...4...h...`...
 82f4 ea000000 00410e08 8702410e 0c860341  .....A....A....A
 8304 0e108304 430e4002 8a0a0e10 41c30e0c  ....C.@.....A...
 8314 41c60e08 41c70e04 450b0000 1c000000  A...A...E.......
 8324 a0000000 18ffffff 16000000 00430e18  .............C..
 8334 420e1c45 0e204a0e 10000000 20000000  B..E. J..... ...
 8344 c0000000 18ffffff 22000000 00430e10  ........"....C..
 8354 450e1442 0e18420e 1c450e20 500e0400  E..B..B..E. P...
 8364 20000000 e4000000 d4fcffff 22000000   ..........."...
 8374 00440c01 00491005 02750041 0f03757c  .D...I...u.A..u|
 8384 06000000                             ....            
Contents of section .rodata.str1.1:
 8388 596f7520 646f6e65 20667563 6b656420  You done fucked 
 8398 75702c20 6c6f6c21 20202020 20004865  up, lol!     .He
 83a8 6c6c6f00                             llo.            
Contents of section .note.gnu.property:
 83ac 04000000 18000000 05000000 474e5500  ............GNU.
 83bc 010001c0 04000000 09000000 020001c0  ................
 83cc 04000000 01000000                    ........        
Contents of section .data:
 83d4 0700e083 0000                        ......          
Contents of section .debug_info:
 0000 4e010000 05000104 00000000 07b60100  N...............
 0010 001d2b00 00000000 00000c00 00000000  ..+.............
 0020 00000000 00000000 00000101 06672900  .............g).
 0030 00010205 f3070000 08040569 6e740001  ...........int..
 0040 0805b315 000004b1 1900002e 18510000  .............Q..
 0050 00010108 99290000 04672400 00311963  .....)...g$..1.c
 0060 00000001 02074c06 00000448 0c000034  ......L....H...4
 0070 19750000 00010407 ec270000 01080723  .u.......'.....#
 0080 35000009 33220000 08030b08 e5000000  5...3"..........
 0090 02e62900 000c0c58 00000000 022f0800  ..)....X...../..
 00a0 000d0c58 00000002 02f23600 000f0b46  ...X......6....F
 00b0 00000004 05d63300 00114600 00000428  ......3...F....(
 00c0 05ee0600 00134600 0000022d 059e3300  ......F....-..3.
 00d0 00144600 0000012f 02102d00 00160c58  ..F..../..-....X
 00e0 00000006 000a5a32 00000105 06708000  ......Z2.....p..
 00f0 00570000 00019c46 01000003 0b3f0000  .W.....F.....?..
 0100 05254601 00000291 00033722 00000537  .%F.......7"...7
 0110 6a000000 02910403 d6330000 05464600  j........3...FF.
 0120 00000291 0803f129 0000061a 4c010000  .......)....L...
 0130 02910c0b 65000107 15460100 000e0000  ....e....F......
 0140 000c0000 00000683 0000000c 064b0100  .............K..
 0150 00005402 00000500 0104c600 00000ab6  ..T.............
 0160 0100001d 7d000000 00000000 43000000  ....}.......C...
 0170 00000000 ab000000 730e0000 0b040569  ........s......i
 0180 6e740003 2a000000 010407ec 27000001  nt..*.......'...
 0190 0405742e 00000108 05b31500 00010c04  ..t.............
 01a0 5f3d0000 0110045c 3b000001 01066729  _=.....\;.....g)
 01b0 00000102 05f30700 00010108 99290000  .............)..
 01c0 0102074c 0600000c 480c0000 02341936  ...L....H....4.6
 01d0 00000003 75000000 01080723 3500000d  ....u......#5...
 01e0 033d0000 01081799 00000004 a5000000  .=..............
 01f0 0101066e 29000003 9e000000 0e9e0000  ...n)...........
 0200 000f523b 00000124 06508100 00ea0000  ..R;...$.P......
 0210 00019c90 01000010 6e000124 19750000  ........n..$.u..
 0220 002b0000 00230000 0011403c 00000124  .+...#....@<...$
 0230 25750000 00029104 05627566 00250990  %u.......buf.%..
 0240 0100004e 00000048 00000005 69002d0c  ...N...H....i.-.
 0250 75000000 6e000000 68000000 126c8100  u...n...h....l..
 0260 003e0000 00290100 00056400 2f0a9e00  .>...)....d./...
 0270 00008b00 00008700 00000013 95010000  ................
 0280 b6810000 012b0000 00014403 06a60100  .....+....D.....
 0290 00a90000 00a70000 0006b201 0000b600  ................
 02a0 0000b200 0000142b 00000002 be010000  .......+........
 02b0 02914408 c7010000 c6810000 13000000  ..D.............
 02c0 7b010000 02cc0100 00029148 0009d601  {..........H....
 02d0 00003700 000002d7 01000002 91430000  ..7..........C..
 02e0 0000049e 00000015 323d0000 010a052a  ........2=.....*
 02f0 00000001 e4010000 16737472 00010a1c  .........str....
 0300 e4010000 17403c00 00010a2a 75000000  .....@<....*u...
 0310 0769000b 15810000 0018d601 00000761  .i.............a
 0320 000e12f9 01000000 1907746d 70001213  ..........tmp...
 0330 a5000000 000004aa 0000001a 31000000  ............1...
 0340 f9010000 1b360000 00090003 e9010000  .....6..........
 0350 1c950100 00d08000 007f0000 00019c06  ................
 0360 a6010000 cb000000 c7000000 1db20100  ................
 0370 00029104 02be0100 00029150 08c70100  ...........P....
 0380 00e78000 00130000 00440200 0002cc01  .........D......
 0390 00000291 540009d6 0100001f 00000002  ....T...........
 03a0 d7010000 02914f00 00000502 00000500  ......O.........
 03b0 01044902 000009b6 0100001d 94000000  ..I.............
 03c0 00000000 5d000000 00000000 5a020000  ....].......Z...
 03d0 55100000 01010667 29000001 0205f307  U......g).......
 03e0 00000a04 05696e74 00010805 b3150000  .....int........
 03f0 04b11900 002e1851 00000001 01089929  .......Q.......)
 0400 00000467 24000031 19630000 00010207  ...g$..1.c......
 0410 4c060000 04480c00 00341975 00000001  L....H...4.u....
 0420 0407ec27 00000108 07233500 00010405  ...'.....#5.....
 0430 742e0000 010c045f 3d000001 10045c3b  t......_=.....\;
 0440 00000813 3f000006 06bc0000 0002e43e  ....?..........>
 0450 0000070c 58000000 0002403c 0000080c  ....X.....@<....
 0460 6a000000 02000833 22000008 0b1c0100  j......3".......
 0470 0002e629 00000c0c 58000000 00022f08  ...)....X...../.
 0480 00000d0c 58000000 0202f236 00000f0b  ....X......6....
 0490 46000000 0405d633 00001146 00000004  F......3...F....
 04a0 2805ee06 00001346 00000002 2d059e33  (......F....-..3
 04b0 00001446 00000001 2f02102d 0000160c  ...F..../..-....
 04c0 58000000 06000bbc 0000002c 0100000c  X..........,....
 04d0 75000000 1e000d07 3f000001 07191c01  u.......?.......
 04e0 00000503 e0830000 0e173f00 00010811  ..........?.....
 04f0 98000000 0503d483 00000f5a 32000003  ...........Z2...
 0500 19067101 00000371 01000003 6a000000  ..q....q....j...
 0510 03460000 00037601 00000006 bc000000  .F....v.........
 0520 067b0100 00101132 3d000004 06053800  .{.....2=.....8.
 0530 00009701 00000397 01000003 6a000000  ............j...
 0540 0006a301 00000101 066e2900 00129c01  .........n).....
 0550 00001302 3f000001 1c053800 00004080  ....?.....8...@.
 0560 00002200 0000019c cc010000 075d8000  .."..........]..
 0570 007c0100 000014ea 3e000001 16066082  .|......>.....`.
 0580 00002200 0000019c ec010000 07768200  .."..........v..
 0590 00500100 000015f3 3e000001 0d204082  .P......>.... @.
 05a0 00001600 0000019c 074f8200 007c0100  .........O...|..
 05b0 000000                               ...             
Contents of section .debug_abbrev:
 0000 0124000b 0b3e0b03 0e000002 0d00030e  .$...>..........
 0010 3a21033b 0b390b49 13380b00 00030500  :!.;.9.I.8......
 0020 030e3a21 013b0b39 0b491302 18000004  ..:!.;.9.I......
 0030 1600030e 3a21023b 0b390b49 13000005  ....:!.;.9.I....
 0040 0d00030e 3a21033b 0b39210b 49130d0b  ....:!.;.9!.I...
 0050 6b0b0000 060f000b 21044913 00000711  k.......!.I.....
 0060 01250e13 0b031f1b 1f551711 01101779  .%.......U.....y
 0070 17000008 24000b0b 3e0b0308 00000913  ....$...>.......
 0080 01030e0b 0b3a0b3b 0b390b01 1300000a  .....:.;.9......
 0090 2e013f19 030e3a0b 3b0b390b 27191101  ..?...:.;.9.'...
 00a0 12064018 7a190113 00000b34 0003083a  ..@.z......4...:
 00b0 0b3b0b39 0b491302 17b74217 00000c15  .;.9.I....B.....
 00c0 00271900 00000124 000b0b3e 0b030e00  .'.....$...>....
 00d0 00023400 31130218 00000335 00491300  ..4.1......5.I..
 00e0 00040f00 0b210449 13000005 34000308  .....!.I....4...
 00f0 3a21013b 0b390b49 130217b7 42170000  :!.;.9.I....B...
 0100 06050031 130217b7 42170000 07340003  ...1....B....4..
 0110 083a2101 3b0b390b 49130000 080b0131  .:!.;.9.I......1
 0120 13110112 06011300 00090b01 31135517  ............1.U.
 0130 00000a11 01250e13 0b031f1b 1f551711  .....%.......U..
 0140 01101779 1700000b 24000b0b 3e0b0308  ...y....$...>...
 0150 00000c16 00030e3a 0b3b0b39 0b491300  .......:.;.9.I..
 0160 000d3400 030e3a0b 3b0b390b 49130000  ..4...:.;.9.I...
 0170 0e260049 1300000f 2e013f19 030e3a0b  .&.I......?...:.
 0180 3b0b390b 27191101 12064018 7a190113  ;.9.'.....@.z...
 0190 00001005 0003083a 0b3b0b39 0b491302  .......:.;.9.I..
 01a0 17b74217 00001105 00030e3a 0b3b0b39  ..B........:.;.9
 01b0 0b491302 18000012 0b011101 12060113  .I..............
 01c0 0000131d 01311352 01b8420b 5517580b  .....1.R..B.U.X.
 01d0 590b570b 0000140b 01551700 00152e01  Y.W......U......
 01e0 3f19030e 3a0b3b0b 390b2719 4913200b  ?...:.;.9.'.I. .
 01f0 01130000 16050003 083a0b3b 0b390b49  .........:.;.9.I
 0200 13000017 0500030e 3a0b3b0b 390b4913  ........:.;.9.I.
 0210 0000180b 01011300 00190b01 00001a01  ................
 0220 01491301 1300001b 21004913 2f0b0000  .I......!.I./...
 0230 1c2e0131 13110112 0640187a 1900001d  ...1.....@.z....
 0240 05003113 02180000 00012400 0b0b3e0b  ..1.......$...>.
 0250 030e0000 020d0003 0e3a2103 3b0b390b  .........:!.;.9.
 0260 4913380b 00000305 00491300 00041600  I.8......I......
 0270 030e3a21 023b0b39 0b491300 00050d00  ..:!.;.9.I......
 0280 030e3a21 033b0b39 210b4913 0d0b6b0b  ..:!.;.9!.I...k.
 0290 0000060f 000b2104 49130000 0748007d  ......!.I....H.}
 02a0 017f1300 00081301 030e0b0b 3a21033b  ............:!.;
 02b0 0b392108 01130000 09110125 0e130b03  .9!........%....
 02c0 1f1b1f55 17110110 17791700 000a2400  ...U.....y....$.
 02d0 0b0b3e0b 03080000 0b010149 13011300  ..>........I....
 02e0 000c2100 49132f0b 00000d34 00030e3a  ..!.I./....4...:
 02f0 0b3b0b39 0b491302 1800000e 3400030e  .;.9.I......4...
 0300 3a0b3b0b 390b4913 3f190218 00000f2e  :.;.9.I.?.......
 0310 013f1903 0e3a0b3b 0b390b27 193c1901  .?...:.;.9.'.<..
 0320 13000010 15002719 0000112e 013f1903  ......'......?..
 0330 0e3a0b3b 0b390b27 1949133c 19011300  .:.;.9.'.I.<....
 0340 00122600 49130000 132e013f 19030e3a  ..&.I......?...:
 0350 0b3b0b39 0b271949 13110112 0640187a  .;.9.'.I.....@.z
 0360 19011300 00142e01 3f19030e 3a0b3b0b  ........?...:.;.
 0370 390b2719 11011206 40187a19 01130000  9.'.....@.z.....
 0380 152e013f 19030e3a 0b3b0b39 0b271987  ...?...:.;.9.'..
 0390 01191101 12064018 7a190000 00        ......@.z....   
Contents of section .debug_loclists:
 0000 13000000 05000400 00000000 0000088a  ................
 0010 8000003d 015200c2 00000005 00040000  ...=.R..........
 0020 00000000 02020000 00000006 50810000  ............P...
 0030 04001202 91000412 57015104 57620152  ........W.Q.Wb.R
 0040 04df01ea 01015100 02000002 00000650  ......Q........P
 0050 81000004 00660230 9f046689 01015004  .....f.0..f...P.
 0060 df01ea01 02309f00 01000000 00000662  .....0.........b
 0070 81000004 000f0230 9f040f50 015604cd  .......0...P.V..
 0080 01d80102 309f0001 00000006 71810000  ....0.......q...
 0090 04003607 71003a1d 23309f04 36410773  ..6.q.:.#0..6A.s
 00a0 003a1d23 309f0001 0208b681 00002301  .:.#0.........#.
 00b0 50000100 000006b6 81000004 00270291  P............'..
 00c0 04042e79 01570000 00000208 d0800000  ...y.W..........
 00d0 2a029100 08fa8000 00000150 00        *..........P.   
Contents of section .debug_aranges:
 0000 1c000000 02000000 00000400 00000000  ................
 0010 70800000 57000000 00000000 00000000  p...W...........
 0020 24000000 02005201 00000400 00000000  $.....R.........
 0030 d0800000 7f000000 50810000 ea000000  ........P.......
 0040 00000000 00000000 2c000000 0200aa03  ........,.......
 0050 00000400 00000000 40820000 16000000  ........@.......
 0060 60820000 22000000 40800000 22000000  `..."...@..."...
 0070 00000000 00000000                    ........        
Contents of section .debug_rnglists:
 0000 0f000000 05000400 00000000 07708000  .............p..
 0010 0057003a 00000005 00040000 00000005  .W.:............
 0020 08810000 04003c04 3f430005 b6810000  ......<.?C......
 0030 04002704 327a0005 e8810000 04003c04  ..'.2z........<.
 0040 3f430007 d0800000 7f075081 0000ea01  ?C........P.....
 0050 001b0000 00050004 00000000 00074082  ..............@.
 0060 00001607 60820000 22074080 00002200  ....`...".@...".
Contents of section .debug_macro:
 0000 05000200 00000007 34000000 03000103  ........4.......
 0010 01030502 fe020000 03040403 0b020750  ...............P
 0020 09000004 050d510c 00000404 05034f2c  ......Q.......O,
 0030 00000400 05000005 00ef1e00 0005007e  ...............~
 0040 03000005 00932100 00050038 0a000005  ......!....8....
 0050 00ce2e00 0005000b 0f000005 000f0500  ................
 0060 000500b6 20000005 000c1d00 000500bb  .... ...........
 0070 2e000005 00820800 0005001e 24000005  ............$...
 0080 009a0700 00050036 30000005 003b1f00  .......60....;..
 0090 00050037 08000005 00791c00 0005003e  ...7.....y.....>
 00a0 19000005 00141f00 00050008 2b000005  ............+...
 00b0 00950800 000500a8 35000005 00a22000  ........5..... .
 00c0 0005000e 10000005 00280600 000500ac  .........(......
 00d0 2e000005 00bb3500 00050015 12000005  ......5.........
 00e0 00b90600 00050063 25000005 003e0900  .......c%....>..
 00f0 000500de 22000005 003a2c00 000500bd  ...."....:,.....
 0100 0a000005 00523100 000500f3 31000005  .....R1.....1...
 0110 00521e00 00050065 2e000005 00d41f00  .R.....e........
 0120 000500e0 33000005 00ab2400 0005008a  ....3.....$.....
 0130 29000005 003c0600 000500dc 27000005  )....<......'...
 0140 00c03900 00050059 29000005 00e40700  ..9....Y).......
 0150 000500f5 12000005 00a41500 0005005d  ...............]
 0160 2b000005 00f71400 000500f9 29000005  +...........)...
 0170 00133500 000500c0 08000005 00551a00  ..5..........U..
 0180 000500ed 0b000005 00f02b00 0005008d  ..........+.....
 0190 0b000005 007d2500 000500a0 32000005  .....}%.....2...
 01a0 001b0700 000500f4 0a000005 00b51400  ................
 01b0 000500a6 33000005 00b00b00 0005000f  ....3...........
 01c0 29000005 00121700 00050080 31000005  )...........1...
 01d0 00552200 000500e7 30000005 00b40c00  .U".....0.......
 01e0 0005000a 18000005 008e0a00 00050039  ...............9
 01f0 25000005 00830700 000500ef 1f000005  %...............
 0200 007d1500 00050024 09000005 00ea0900  .}.....$........
 0210 000500a0 11000005 000a2100 00050063  ..........!....c
 0220 0e000005 003e0b00 0005001d 20000005  .....>...... ...
 0230 007a2b00 0005005a 2d000005 000c2400  .z+....Z-.....$.
 0240 000500ec 05000005 001a1500 000500f9  ................
 0250 25000005 00fb2c00 00050030 23000005  %.....,....0#...
 0260 00fa1e00 0005007c 11000005 00502800  .......|.....P(.
 0270 00050086 2e000005 00f60800 0005000e  ................
 0280 1a000005 003f0000 000500bd 23000005  .....?......#...
 0290 00f52400 00050073 0f000005 00082000  ..$....s...... .
 02a0 000500f3 23000005 00493000 00050066  ....#....I0....f
 02b0 19000005 00791900 000500f3 19000005  .....y..........
 02c0 002d1e00 000500a8 08000005 00bd1a00  .-..............
 02d0 0005004f 19000005 004a0a00 000500da  ...O.....J......
 02e0 1d000005 00060c00 0005007f 38000005  ............8...
 02f0 00312900 00050039 31000005 009e1800  .1)....91.......
 0300 00050082 2a000005 00cb1100 00050017  ....*...........
 0310 0f000005 00f80600 00050098 0e000005  ................
 0320 00312400 0005004f 37000005 002f2000  .1$....O7..../ .
 0330 000500d3 0f000005 00a42d00 00050080  ..........-.....
 0340 26000005 00291400 00050084 0d000005  &....)..........
 0350 007a0100 00050067 1e000005 008e1f00  .z.....g........
 0360 0005003f 0d000005 00273b00 000500d7  ...?.....';.....
 0370 10000005 00f21600 00050062 2a000005  ...........b*...
 0380 00382a00 000500fa 2e000005 00471c00  .8*..........G..
 0390 00050098 37000005 00370e00 00050081  ....7....7......
 03a0 22000005 00db0000 0005005b 33000005  "..........[3...
 03b0 00fb3000 000500fe 0f000005 00391600  ..0..........9..
 03c0 00050076 0d000005 00483600 00050008  ...v.....H6.....
 03d0 01000005 00223000 000500c1 15000005  ....."0.........
 03e0 00b52500 00050034 17000005 00572100  ..%....4.....W!.
 03f0 0005008e 30000005 00dd3200 0005001c  ....0.....2.....
 0400 2d000005 00123b00 000500a0 1e000005  -.....;.........
 0410 00be3300 00050027 19000005 00070700  ..3....'........
 0420 000500ed 3a000005 00000400 0005006b  ....:..........k
 0430 17000005 00261f00 00050055 35000005  .....&.....U5...
 0440 00733a00 0005005b 14000005 00fe3300  .s:....[......3.
 0450 00050005 1c000005 005f3900 00050091  ........._9.....
 0460 02000005 00b43700 00050044 33000005  ......7....D3...
 0470 00411000 0005003e 1a000005 001a2100  .A.....>......!.
 0480 00050059 08000005 00df2500 00050044  ...Y......%....D
 0490 20000005 00181100 000500f4 38000005   ...........8...
 04a0 003f3b00 0005006b 2d000005 00b81600  .?;....k-.......
 04b0 000500cc 0e000005 00af1200 000500a5  ................
 04c0 21000005 007d1000 0005008a 3a000005  !....}......:...
 04d0 003d2200 00050040 29000005 00a10600  .="....@).......
 04e0 000500a2 0d000005 00b60700 000500cd  ................
 04f0 14000005 00a80000 00050018 16000005  ................
 0500 00c93700 000500f2 20000005 000b3700  ..7..... .....7.
 0510 00050000 00000005 00b91900 0005001f  ................
 0520 2b000005 00401300 00050070 24000005  +....@.....p$...
 0530 00c81e00 0005004a 2f000005 00fd0700  .......J/.......
 0540 0005002b 03000005 00eb1700 00050085  ...+............
 0550 17000005 008c0900 00050074 1a000005  ...........t....
 0560 003d3800 000500b4 0e000005 00480700  .=8..........H..
 0570 00050020 05000005 00243900 000500ac  ... .....$9.....
 0580 26000005 00622300 000500d2 0c000005  &....b#.........
 0590 00c20000 0005007e 0e000005 002f2100  .......~...../!.
 05a0 000500e0 08000005 00e30a00 00050040  ...............@
 05b0 32000005 003f1400 000500f1 00000005  2....?..........
 05c0 00fc1100 00050071 16000005 00901c00  .......q........
 05d0 000500af 2b000005 00b00500 000500a5  ....+...........
 05e0 2c000005 00b13800 00050021 18000005  ,.....8....!....
 05f0 00be1000 0005005d 00000005 009b0c00  .......]........
 0600 00050066 03000005 00e51400 00050047  ...f...........G
 0610 0e000005 00c02200 000500ba 0f000005  ......".........
 0620 00cf1300 00050026 32000005 00560400  .......&2....V..
 0630 000500a9 04000005 00ea1300 00050097  ................
 0640 2a000005 00ea3500 0005001e 3a000005  *.....5.....:...
 0650 00c01700 000500d2 0b000005 00173300  ..............3.
 0660 00050093 1b000005 005a1b00 0005007f  .........Z......
 0670 28000005 006e2700 00050062 01000005  (....n'....b....
 0680 007e3700 000500dd 03000005 00180400  .~7.............
 0690 000500e0 37000005 009c1d00 000500d7  ....7...........
 06a0 15000005 00642f00 00050086 18000005  .....d/.........
 06b0 00680b00 0005003a 35000005 00c33200  .h.....:5.....2.
 06c0 000500e4 2c000005 00b91100 00050019  ....,...........
 06d0 0d000005 00911300 00050069 08000005  ...........i....
 06e0 00e01b00 00050086 32000005 00c71800  ........2.......
 06f0 00050042 18000005 000b2600 00050021  ...B......&....!
 0700 01000005 00d83900 00050008 13000005  ......9.........
 0710 00362800 00050085 1e000005 00591000  .6(..........Y..
 0720 0005004d 25000005 00130b00 00050065  ...M%..........e
 0730 38000005 00712c00 000500f8 28000005  8....q,.....(...
 0740 005a3a00 00050028 10000005 00c40d00  .Z:....(........
 0750 00050060 20000005 00f92700 0005004e  ...` .....'....N
 0760 1f000005 00e91d00 0005004b 15000005  ...........K....
 0770 008b2700 000500f2 2d000005 00a00f00  ..'.....-.......
 0780 00050042 23000005 006c3000 00050020  ...B#....l0.... 
 0790 13000005 00010e00 00050022 1a000005  ..........."....
 07a0 00160800 00050065 09000005 00fc3a00  .......e......:.
 07b0 000500a4 23000005 004f2700 0005000d  ....#....O'.....
 07c0 39000005 002f1100 00050077 02000005  9..../.....w....
 07d0 00770000 00050098 12000005 00300f00  .w...........0..
 07e0 0005007a 1d000005 00662800 0005009d  ...z.....f(.....
 07f0 36000005 00850f00 00050045 34000005  6..........E4...
 0800 00972600 00050073 29000005 00913500  ..&....s).....5.
 0810 000500f4 0c000005 000b2300 0005008a  ..........#.....
 0820 16000005 00030600 0005005b 1c000005  ...........[....
 0830 002d1500 000500c9 09000005 00cb1a00  .-..............
 0840 00050027 2e000005 00061900 00050067  ...'...........g
 0850 32000005 005f1100 0005003c 1b000005  2...._.....<....
 0860 00033000 00050092 01000005 00de2800  ..0...........(.
 0870 000500d3 06000005 00832d00 000500af  ..........-.....
 0880 13000005 006b0500 000500a4 39000005  .....k......9...
 0890 00ab2200 00050095 04000005 00321200  .."..........2..
 08a0 00050065 27000005 00863500 00050067  ...e'.....5....g
 08b0 27000005 00bb0300 000500b8 0d000005  '...............
 08c0 00dc3400 0005005f 36000005 00d73600  ..4...._6.....6.
 08d0 000500ef 10000005 00511d00 000500c1  .........Q......
 08e0 1e000005 00f70300 000500cb 25000005  ............%...
 08f0 00f02e00 000500b7 1e000005 00820b00  ................
 0900 0005002e 31000005 00491200 000500da  ....1....I......
 0910 2d000005 005c2400 0005008a 1a000005  -....\$.........
 0920 00b32900 000500c7 31000005 00b52900  ..).....1.....).
 0930 0005007d 2e000005 00e90c00 0005007f  ...}............
 0940 2e000005 00921d00 000500c4 03000000  ................
 0950 05000005 1dfb1700 00066439 18000005  ..........d9....
 0960 65fd3400 000666ad 07000005 674b0f00  e.4...f.....gK..
 0970 00066a38 18000005 6b0a0300 00066e61  ..j8....k.....na
 0980 05000005 6f303600 00067073 10000005  ....o06...ps....
 0990 71cc1c00 00067460 05000005 750f2700  q.....t`....u.'.
 09a0 0006788d 2b000005 79972b00 00067a84  ..x.+...y.+...z.
 09b0 30000005 7bd23a00 00067e8c 2b000005  0...{.:...~.+...
 09c0 7f6c3500 00068201 bd310000 058301e1  .l5......1......
 09d0 21000006 84014537 00000585 01412400  !.....E7.....A$.
 09e0 00068801 bc310000 0589010d 2e000006  .....1..........
 09f0 8c01e12e 0000058d 018f1900 00068e01  ................
 0a00 a6250000 058f0114 2f000006 9001e02e  .%....../.......
 0a10 00000591 01872400 00069201 d92a0000  ......$......*..
 0a20 059301da 02000006 94018113 00000595  ................
 0a30 012a1d00 00069601 d82a0000 059701a0  .*.......*......
 0a40 3a000006 98015a12 00000599 01363a00  :.....Z......6:.
 0a50 00069a01 23220000 059b0113 2c000006  ....#"......,...
 0a60 9c015912 0000059d 015f0600 00069e01  ..Y......_......
 0a70 db170000 059f01aa 28000006 a001ce28  ........(......(
 0a80 000005a1 014a2600 0006a201 da170000  .....J&.........
 0a90 05a301cc 20000006 a5017226 000005a6  .... .....r&....
 0aa0 01170e00 0006a701 6c1d0000 05a8019a  ........l.......
 0ab0 1a000006 a9017126 000005aa 01c53000  ......q&......0.
 0ac0 0006ab01 56380000 05ac01ed 04000006  ....V8..........
 0ad0 ad01650c 000005ae 01e71c00 0006af01  ..e.............
 0ae0 55380000 05b001b8 34000006 b101fa21  U8......4......!
 0af0 000005b2 019e1700 0006b301 48210000  ............H!..
 0b00 05b4018a 34000006 b501f921 000005b6  ....4......!....
 0b10 01aa1b00 0006b701 9b280000 05b801d3  .........(......
 0b20 24000006 b9016a12 000005ba 01ea2600  $.....j.......&.
 0b30 0006bb01 9a280000 05bc014d 16000006  .....(.....M....
 0b40 bf01c73a 000005c0 01240b00 0006c101  ...:.....$......
 0b50 57230000 05c20111 31000006 c501c63a  W#......1......:
 0b60 000005c6 01a61f00 0006c901 a8290000  .............)..
 0b70 05ca01d3 2f000006 cb013513 000005cc  ..../.....5.....
 0b80 010d0a00 0006cd01 a7290000 05ce0194  .........)......
 0b90 05000006 d201001b 000005d3 01a10a00  ................
 0ba0 0006d401 e9120000 05d50179 12000006  ...........y....
 0bb0 d701670d 000005d8 017c3300 0006d901  ..g......|3.....
 0bc0 640f0000 05da01a7 09000006 dc01331b  d.............3.
 0bd0 000005dd 010e0900 0006df01 55110000  ............U...
 0be0 05e0018d 2c000006 e101fb1b 000005e2  ....,...........
 0bf0 010e3200 0006e401 af160000 05e501c6  ..2.............
 0c00 27000006 e601af34 000005e7 01d43500  '......4......5.
 0c10 0006ef01 3d330000 05f001ed 2f000006  ....=3....../...
 0c20 f1012303 000005f2 01a30300 0006f301  ..#.............
 0c30 eb230000 05f401e4 11000006 f501be27  .#.............'
 0c40 000005f6 01a52700 0006f701 3c330000  ......'.....<3..
 0c50 05f8019d 14000006 f9012203 000005fa  ..........".....
 0c60 01233800 0006fb01 ea230000 05fc0109  .#8......#......
 0c70 22000006 fd01bd27 000005fe 010d2500  "......'......%.
 0c80 0006ff01 360d0000 05800263 15000006  ....6......c....
 0c90 8102350d 00000582 02492e00 00068c02  ..5......I......
 0ca0 2e160000 058d02c7 07000006 90022d16  ..............-.
 0cb0 00000591 02c60700 00069402 e62d0000  .............-..
 0cc0 059502d5 07000006 9802e52d 00000599  ...........-....
 0cd0 02d40700 00069c02 0c110000 059d02c4  ................
 0ce0 2f000006 a0020b11 000005a1 02c32f00  /............./.
 0cf0 0006a402 88050000 05a502fc 36000006  ............6...
 0d00 a8028705 000005a9 02fb3600 0006ac02  ..........6.....
 0d10 28250000 05ad020d 1b000006 ae022725  (%............'%
 0d20 000005af 020c1b00 0006b002 ee1a0000  ................
 0d30 05b10266 0a000006 b202ed1a 000005b3  ...f............
 0d40 02650a00 0006b402 9f380000 05b502be  .e.......8......
 0d50 29000006 b6029e38 000005b7 02bd2900  )......8......).
 0d60 0006b802 47080000 05b90220 0c000006  ....G...... ....
 0d70 ba024608 000005bb 021f0c00 0006bd02  ..F.............
 0d80 580b0000 05be0242 03000006 bf02570b  X......B......W.
 0d90 000005c0 02410300 0006c102 c31f0000  .....A..........
 0da0 05c2026d 1b000006 c302c21f 000005c4  ...m............
 0db0 026c1b00 0006c502 cf1b0000 05c60275  .l.............u
 0dc0 0c000006 c702ce1b 000005c8 02740c00  .............t..
 0dd0 0006c902 9a220000 05ca0277 36000006  .....".....w6...
 0de0 cb029922 000005cc 02763600 0006cf02  ...".....v6.....
 0df0 e21e0000 05d002ea 2a000006 d302e11e  ........*.......
 0e00 000005d4 02e92a00 0006d702 2b0a0000  ......*.....+...
 0e10 05d802bc 2d000006 d9022a0a 000005da  ....-.....*.....
 0e20 02bb2d00 0006dc02 70370000 05dd02d3  ..-.....p7......
 0e30 31000006 df02392f 000005e0 02292700  1.....9/.....)'.
 0e40 0006e202 f2340000 05e302a2 31000006  .....4......1...
 0e50 e5029703 000005e6 02850600 0006e802  ................
 0e60 31330000 05e902a9 2f000005 ee02162a  13....../......*
 0e70 00000005 0002ab00 00000734 00000003  ...........4....
 0e80 00010301 0307b00e 00000403 0204030b  ................
 0e90 02075009 00000405 0d510c00 00040304  ..P......Q......
 0ea0 0505027e 3b000004 0506823c 00000400  ...~;......<....
 0eb0 05000005 27cd3e00 0005288c 3e000005  ....'.>...(.>...
 0ec0 2ac83e00 00058401 083e0000 0585017f  *.>......>......
 0ed0 3e000005 8601aa3e 00000587 01333c00  >......>.....3<.
 0ee0 00058801 413d0000 0589013d 3d000005  ....A=.....==...
 0ef0 8a019b3c 0000058b 01043e00 00058c01  ...<......>.....
 0f00 1d3d0000 058d01cd 3b000006 9e01653c  .=......;.....e<
 0f10 000005b9 01d83e00 0005ba01 763c0000  ......>.....v<..
 0f20 05bb0108 3c000005 bc01f53d 000005bd  ....<......=....
 0f30 01943b00 0005be01 8b3b0000 05bf0166  ..;......;.....f
 0f40 3b000005 c001b53b 000005c1 01b13b00  ;......;......;.
 0f50 0005c201 e63b0000 05c30154 3c000005  .....;.....T<...
 0f60 c401e23b 000005c5 01983e00 0005c601  ...;......>.....
 0f70 e33d0000 05c7014e 3d000005 c801043c  .=.....N=......<
 0f80 000005c9 01923c00 0005d001 e93c0000  ......<......<..
 0f90 06ed016b 3d000005 8b02473c 0000058c  ...k=.....G<....
 0fa0 02d13c00 00058d02 c33b0000 058e028b  ..<......;......
 0fb0 3d000005 8f02553e 00000590 02de3c00  =.....U>......<.
 0fc0 00059102 743e0000 05920270 3e000005  ....t>.....p>...
 0fd0 93029e3b 00000594 020b3d00 00059502  ...;......=.....
 0fe0 9b3d0000 05960279 3d000005 9702963d  .=.....y=......=
 0ff0 00000598 02bf3b00 00059902 a73d0000  ......;......=..
 1000 059a02be 3c000006 a702703b 000006dd  ....<.....p;....
 1010 02af3c00 00068f03 ff3b0000 0594035f  ..<......;....._
 1020 3e000006 9a03f83b 0000069f 03143e00  >......;......>.
 1030 0005a003 1d3e0000 05a503b6 3e000005  .....>......>...
 1040 c103f33c 000005c8 03ba3d00 0005c903  ...<......=.....
 1050 113c0000 00050002 5a020000 07340000  .<......Z....4..
 1060 00030001 03010503 0b020750 09000004  ...........P....
 1070 050d510c 00000403 020607b0 0e000004  ..Q.............
 1080 03040405 027e3b00 00040305 030502fe  .....~;.........
 1090 02000004 0400                        ......          
Contents of section .debug_line:
 0000 a7000000 05000400 3d000000 010101fb  ........=.......
 0010 0e0d0001 01010100 00000100 00010101  ................
 0020 1f020000 00003100 00000201 1f020f05  ......1.........
 0030 2b000000 002b0000 00006100 0000016e  +....+....a....n
 0040 00000000 74000000 01052600 05027080  ....t.....&...p.
 0050 00001705 03130526 06110521 3d052649  .......&...!=.&I
 0060 05034f05 21460515 74050306 4b14050f  ..O.!F..t...K...
 0070 06100503 06f5050f 060f0503 3f051003  ............?...
 0080 09ac050e 65050303 78580510 03093c05  ....e...xX....<.
 0090 0303772e 0652050e 06010503 064b1305  ..w..R.......K..
 00a0 10061105 013e0204 000101ab 01000005  .....>..........
 00b0 00040042 00000001 0101fb0e 0d000101  ...B............
 00c0 01010000 00010000 0101011f 02000000  ................
 00d0 00310000 0002011f 020f067d 00000000  .1.........}....
 00e0 7d000000 00610000 00018400 00000174  }....a.........t
 00f0 00000001 8d000000 00053200 0502d080  ..........2.....
 0100 00000309 01060105 03063d05 32061105  ..........=.2...
 0110 204b0506 4c05203a 05153c05 03064c05   K..L. :..<...L.
 0120 06060105 05062f05 12060108 2e050a06  ....../.........
 0130 15050303 1001050a 06010501 4b050506  ............K...
 0140 03709e05 20060105 13ac0505 064b050c  .p.. ........K..
 0150 06010510 4a050506 ae084205 07060105  ....J.....B.....
 0160 084d0507 39050a03 763c0507 030a3c05  .M..9...v<....<.
 0170 05064d06 01050a06 03730102 04000101  ..M......s......
 0180 052d0005 02508100 00032301 05031313  .-...P....#.....
 0190 052d0610 6605034c 06891305 0a01050c  .-..f..L........
 01a0 06810510 30050506 083c1405 10061005  ....0....<......
 01b0 15f20505 3e060309 d6050706 4a050506  ....>.......J...
 01c0 2f050606 013c050a 06037301 05040603  /....<....s.....
 01d0 10580503 063c134f 05050346 01050313  .X...<.O...F....
 01e0 05200601 05064c05 203a0515 3c050306  . ....L. :..<...
 01f0 4c050606 01050506 2f051206 01082e05  L......./.......
 0200 0a061505 03031001 050a0601 4a050103  ............J...
 0210 24010505 06034dac 05200601 0513ac05  $.....M.. ......
 0220 05064b05 0c060105 104a0505 06ae0842  ..K......J.....B
 0230 05070601 05084d05 0739050a 03763c05  ......M..9...v<.
 0240 07030a3c 0505064d 0601050a 06037301  ...<...M......s.
 0250 0658031d 01020a00 0101b400 00000500  .X..............
 0260 04004700 00000101 01fb0e0d 00010101  ..G.............
 0270 01000000 01000001 01011f02 00000000  ................
 0280 31000000 02011f02 0f079400 00000094  1...............
 0290 00000000 61000000 016e0000 00008d00  ....a....n......
 02a0 00000074 00000001 84000000 01053500  ...t..........5.
 02b0 05024082 0000030c 01050313 05350611  ..@..........5..
 02c0 05033d06 bb5b0101 01020200 01010515  ..=..[..........
 02d0 00050260 82000003 15010503 13051506  ...`............
 02e0 1105033d 06082f75 05010621 02040001  ...=../u...!....
 02f0 01051000 05024080 0000031b 01050316  ......@.........
 0300 0510060e 05030816 06e50101 01020200  ................
 0310 0101                                 ..              
Contents of section .debug_str:
 0000 5f5f464c 5431365f 4e4f524d 5f4d4158  __FLT16_NORM_MAX
 0010 5f5f2036 2e353530 34303030 30303030  __ 6.55040000000
 0020 30303030 30303030 30303030 30303030  0000000000000000
 0030 30303030 30303030 652b3446 3136005f  00000000e+4F16._
 0040 5f534947 5f41544f 4d49435f 4d41585f  _SIG_ATOMIC_MAX_
 0050 5f203078 37666666 66666666 005f5f46  _ 0x7fffffff.__F
 0060 4c543634 5f484153 5f515549 45545f4e  LT64_HAS_QUIET_N
 0070 414e5f5f 2031005f 5f444543 36345f53  AN__ 1.__DEC64_S
 0080 55424e4f 524d414c 5f4d494e 5f5f2030  UBNORMAL_MIN__ 0
 0090 2e303030 30303030 30303030 30303031  .000000000000001
 00a0 452d3338 33444400 5f5f464c 5431365f  E-383DD.__FLT16_
 00b0 4d494e5f 31305f45 58505f5f 20282d34  MIN_10_EXP__ (-4
 00c0 29005f5f 464c5433 325f4841 535f494e  ).__FLT32_HAS_IN
 00d0 46494e49 54595f5f 2031005f 5f464c54  FINITY__ 1.__FLT
 00e0 5f455641 4c5f4d45 54484f44 5f5f2032  _EVAL_METHOD__ 2
 00f0 005f5f46 4c543634 5f4d4158 5f455850  .__FLT64_MAX_EXP
 0100 5f5f2031 30323400 5f5f464c 545f4d49  __ 1024.__FLT_MI
 0110 4e5f3130 5f455850 5f5f2028 2d333729  N_10_EXP__ (-37)
 0120 005f5f46 4c543634 585f4550 53494c4f  .__FLT64X_EPSILO
 0130 4e5f5f20 312e3038 34323032 31373234  N__ 1.0842021724
 0140 38353530 34343334 30303734 35323830  8550443400745280
 0150 30383639 39343137 31652d31 39463634  086994171e-19F64
 0160 78005f5f 464c5433 32585f4d 41585f45  x.__FLT32X_MAX_E
 0170 58505f5f 20313032 34005f5f 494e545f  XP__ 1024.__INT_
 0180 46415354 31365f57 49445448 5f5f2033  FAST16_WIDTH__ 3
 0190 32005f5f 4743435f 41544f4d 49435f54  2.__GCC_ATOMIC_T
 01a0 4553545f 414e445f 5345545f 54525545  EST_AND_SET_TRUE
 01b0 56414c20 3100474e 55204332 33203134  VAL 1.GNU C23 14
 01c0 2e322e31 20323032 35303230 37202d6d  .2.1 20250207 -m
 01d0 3332202d 6d61736d 3d696e74 656c202d  32 -masm=intel -
 01e0 6d6e6f2d 7265642d 7a6f6e65 202d6d74  mno-red-zone -mt
 01f0 756e653d 67656e65 72696320 2d6d6172  une=generic -mar
 0200 63683d78 38362d36 34202d67 67646233  ch=x86-64 -ggdb3
 0210 202d6767 64623320 2d4f3020 2d4f3320   -ggdb3 -O0 -O3 
 0220 2d737464 3d676e75 3233202d 7374643d  -std=gnu23 -std=
 0230 676e7532 33202d66 66726565 7374616e  gnu23 -ffreestan
 0240 64696e67 202d666e 6f2d7069 65202d66  ding -fno-pie -f
 0250 66756e63 74696f6e 2d736563 74696f6e  function-section
 0260 73202d66 6e6f2d73 7461636b 2d70726f  s -fno-stack-pro
 0270 74656374 6f72005f 5f444543 36345f45  tector.__DEC64_E
 0280 5053494c 4f4e5f5f 2031452d 31354444  PSILON__ 1E-15DD
 0290 005f5f44 424c5f44 454e4f52 4d5f4d49  .__DBL_DENORM_MI
 02a0 4e5f5f20 2828646f 75626c65 29342e39  N__ ((double)4.9
 02b0 34303635 36343538 34313234 36353434  4065645841246544
 02c0 31373635 36383739 32383638 32323133  1765687928682213
 02d0 3732652d 3332344c 2900494e 545f4c45  72e-324L).INT_LE
 02e0 41535431 365f4d41 58205f5f 494e545f  AST16_MAX __INT_
 02f0 4c454153 5431365f 4d41585f 5f00424f  LEAST16_MAX__.BO
 0300 4f545f49 44545f48 20005549 4e54385f  OT_IDT_H .UINT8_
 0310 4d415820 5f5f5549 4e54385f 4d41585f  MAX __UINT8_MAX_
 0320 5f005549 4e543136 5f43005f 5f464c54  _.UINT16_C.__FLT
 0330 33325f4d 414e545f 4449475f 5f203234  32_MANT_DIG__ 24
 0340 0055494e 545f4641 5354385f 57494454  .UINT_FAST8_WIDT
 0350 48205f5f 494e545f 46415354 385f5749  H __INT_FAST8_WI
 0360 4454485f 5f005f5f 464c5431 32385f4d  DTH__.__FLT128_M
 0370 414e545f 4449475f 5f203131 33005f5f  ANT_DIG__ 113.__
 0380 53544443 5f564552 53494f4e 5f5f2032  STDC_VERSION__ 2
 0390 30323030 304c0057 43484152 5f574944  02000L.WCHAR_WID
 03a0 54480049 4e543136 5f432863 29205f5f  TH.INT16_C(c) __
 03b0 494e5431 365f4328 6329005f 494c5033  INT16_C(c)._ILP3
 03c0 32203100 5f5f4445 43494d41 4c5f4249  2 1.__DECIMAL_BI
 03d0 445f464f 524d4154 5f5f2031 005f5f46  D_FORMAT__ 1.__F
 03e0 4c543332 585f4445 43494d41 4c5f4449  LT32X_DECIMAL_DI
 03f0 475f5f20 3137005f 5f6b385f 5f203100  G__ 17.__k8__ 1.
 0400 5f5f4442 4c5f4d49 4e5f4558 505f5f20  __DBL_MIN_EXP__ 
 0410 282d3130 32312900 5f5f464c 54333258  (-1021).__FLT32X
 0420 5f4d4158 5f5f2031 2e373937 36393331  _MAX__ 1.7976931
 0430 33343836 32333135 37303831 34353237  3486231570814527
 0440 34323337 33313730 34333537 652b3330  423731704357e+30
 0450 38463332 78005f5f 464c5431 32385f4d  8F32x.__FLT128_M
 0460 41585f5f 20312e31 38393733 31343935  AX__ 1.189731495
 0470 33353732 33313736 35303835 37353933  3572317650857593
 0480 32363632 38303037 3032652b 34393332  2662800702e+4932
 0490 46313238 005f5f53 495a454f 465f5749  F128.__SIZEOF_WI
 04a0 4e545f54 5f5f2034 005f5f46 4c543132  NT_T__ 4.__FLT12
 04b0 385f4e4f 524d5f4d 41585f5f 20312e31  8_NORM_MAX__ 1.1
 04c0 38393733 31343935 33353732 33313736  8973149535723176
 04d0 35303835 37353933 32363632 38303037  5085759326628007
 04e0 3032652b 34393332 46313238 00494e54  02e+4932F128.INT
 04f0 5f464153 5431365f 4d415820 5f5f494e  _FAST16_MAX __IN
 0500 545f4641 53543136 5f4d4158 5f5f005f  T_FAST16_MAX__._
 0510 5f474e55 435f4d49 4e4f525f 5f203200  _GNUC_MINOR__ 2.
 0520 5f5f464c 5433325f 4e4f524d 5f4d4158  __FLT32_NORM_MAX
 0530 5f5f2033 2e343032 38323334 36363338  __ 3.40282346638
 0540 35323838 35393831 31373034 31383334  5288598117041834
 0550 38343531 36393235 652b3338 46333200  84516925e+38F32.
 0560 55494e54 31365f4d 4158005f 5f474343  UINT16_MAX.__GCC
 0570 5f484156 455f4457 41524632 5f434649  _HAVE_DWARF2_CFI
 0580 5f41534d 20310055 494e5436 345f5749  _ASM 1.UINT64_WI
 0590 44544800 55494e54 4d41585f 4d415820  DTH.UINTMAX_MAX 
 05a0 5f5f5549 4e544d41 585f4d41 585f5f00  __UINTMAX_MAX__.
 05b0 5f5f464c 5436345f 4d494e5f 5f20322e  __FLT64_MIN__ 2.
 05c0 32323530 37333835 38353037 32303133  2250738585072013
 05d0 38333039 30323332 37313733 33323430  8309023271733240
 05e0 34303665 2d333038 46363400 5f5f4c4f  406e-308F64.__LO
 05f0 4e475f4c 4f4e475f 57494454 485f5f20  NG_LONG_WIDTH__ 
 0600 3634005f 5f474343 5f484156 455f5359  64.__GCC_HAVE_SY
 0610 4e435f43 4f4d5041 52455f41 4e445f53  NC_COMPARE_AND_S
 0620 5741505f 38203100 5f5f5349 5a454f46  WAP_8 1.__SIZEOF
 0630 5f53495a 455f545f 5f203400 5f5f4348  _SIZE_T__ 4.__CH
 0640 41523136 5f545950 455f5f20 73686f72  AR16_TYPE__ shor
 0650 7420756e 7369676e 65642069 6e740055  t unsigned int.U
 0660 494e545f 4c454153 5433325f 4d415820  INT_LEAST32_MAX 
 0670 5f5f5549 4e545f4c 45415354 33325f4d  __UINT_LEAST32_M
 0680 41585f5f 00574348 41525f57 49445448  AX__.WCHAR_WIDTH
 0690 205f5f57 43484152 5f574944 54485f5f   __WCHAR_WIDTH__
 06a0 005f5f4c 44424c5f 49535f49 45435f36  .__LDBL_IS_IEC_6
 06b0 30353539 5f5f2031 005f5f4f 52444552  0559__ 1.__ORDER
 06c0 5f424947 5f454e44 49414e5f 5f203433  _BIG_ENDIAN__ 43
 06d0 3231005f 5f474343 5f434f4e 53545255  21.__GCC_CONSTRU
 06e0 43544956 455f5349 5a452036 34007072  CTIVE_SIZE 64.pr
 06f0 6976696c 65676500 5f5f5549 4e54385f  ivilege.__UINT8_
 0700 43286329 2063005f 5f44424c 5f4d414e  C(c) c.__DBL_MAN
 0710 545f4449 475f5f20 3533005f 5f55494e  T_DIG__ 53.__UIN
 0720 545f4c45 41535436 345f5459 50455f5f  T_LEAST64_TYPE__
 0730 206c6f6e 67206c6f 6e672075 6e736967   long long unsig
 0740 6e656420 696e7400 5f5f464c 5433325f  ned int.__FLT32_
 0750 4d41585f 5f20332e 34303238 32333436  MAX__ 3.40282346
 0760 36333835 32383835 39383131 37303431  6385288598117041
 0770 38333438 34353136 39323565 2b333846  83484516925e+38F
 0780 3332005f 5f494e54 5f4d4158 5f5f2030  32.__INT_MAX__ 0
 0790 78376666 66666666 66005f5f 41544f4d  x7fffffff.__ATOM
 07a0 49435f52 454c4541 53452033 00494e54  IC_RELEASE 3.INT
 07b0 385f4d49 4e005f5f 464c5431 365f4449  8_MIN.__FLT16_DI
 07c0 475f5f20 33005549 4e54385f 57494454  G__ 3.UINT8_WIDT
 07d0 48203800 55494e54 31365f57 49445448  H 8.UINT16_WIDTH
 07e0 20313600 5f5f494e 5431365f 54595045   16.__INT16_TYPE
 07f0 5f5f2073 686f7274 20696e74 005f5f46  __ short int.__F
 0800 4c543136 5f49535f 4945435f 36303535  LT16_IS_IEC_6055
 0810 395f5f20 31005f5f 44454333 325f4550  9__ 1.__DEC32_EP
 0820 53494c4f 4e5f5f20 31452d36 44460073  SILON__ 1E-6DF.s
 0830 65676d65 6e74005f 5f4f5054 494d495a  egment.__OPTIMIZ
 0840 455f5f20 31005549 4e545f4c 45415354  E__ 1.UINT_LEAST
 0850 36345f57 49445448 005f5f4c 44424c5f  64_WIDTH.__LDBL_
 0860 4449475f 5f203138 005f5f46 4c543634  DIG__ 18.__FLT64
 0870 585f4d41 585f4558 505f5f20 31363338  X_MAX_EXP__ 1638
 0880 34005f5f 41544f4d 49435f53 45515f43  4.__ATOMIC_SEQ_C
 0890 53542035 005f5f53 495a454f 465f5348  ST 5.__SIZEOF_SH
 08a0 4f52545f 5f203200 5f5f494e 545f4c45  ORT__ 2.__INT_LE
 08b0 41535438 5f4d4158 5f5f2030 78376600  AST8_MAX__ 0x7f.
 08c0 5f5f494e 545f4c45 41535438 5f545950  __INT_LEAST8_TYP
 08d0 455f5f20 7369676e 65642063 68617200  E__ signed char.
 08e0 5f5f464c 5436345f 4d414e54 5f444947  __FLT64_MANT_DIG
 08f0 5f5f2035 33005f5f 55494e54 4d41585f  __ 53.__UINTMAX_
 0900 43286329 20632023 2320554c 4c005349  C(c) c ## ULL.SI
 0910 5a455f4d 4158205f 5f53495a 455f4d41  ZE_MAX __SIZE_MA
 0920 585f5f00 5f5f5743 4841525f 4d41585f  X__.__WCHAR_MAX_
 0930 5f203078 37666666 66666666 4c005f5f  _ 0x7fffffffL.__
 0940 42595445 5f4f5244 45525f5f 205f5f4f  BYTE_ORDER__ __O
 0950 52444552 5f4c4954 544c455f 454e4449  RDER_LITTLE_ENDI
 0960 414e5f5f 005f5f44 45433332 5f535542  AN__.__DEC32_SUB
 0970 4e4f524d 414c5f4d 494e5f5f 20302e30  NORMAL_MIN__ 0.0
 0980 30303030 31452d39 35444600 5f5f464c  00001E-95DF.__FL
 0990 5433325f 4d494e5f 31305f45 58505f5f  T32_MIN_10_EXP__
 09a0 20282d33 37290053 49475f41 544f4d49   (-37).SIG_ATOMI
 09b0 435f4d49 4e205f5f 5349475f 41544f4d  C_MIN __SIG_ATOM
 09c0 49435f4d 494e5f5f 005f5f47 43435f41  IC_MIN__.__GCC_A
 09d0 544f4d49 435f4348 4152385f 545f4c4f  TOMIC_CHAR8_T_LO
 09e0 434b5f46 52454520 32005f5f 57434841  CK_FREE 2.__WCHA
 09f0 525f4d49 4e5f5f20 282d5f5f 57434841  R_MIN__ (-__WCHA
 0a00 525f4d41 585f5f20 2d203129 00494e54  R_MAX__ - 1).INT
 0a10 4d41585f 4d494e20 282d494e 544d4158  MAX_MIN (-INTMAX
 0a20 5f4d4158 202d2031 29005549 4e544d41  _MAX - 1).UINTMA
 0a30 585f5749 44544800 5f5f5354 44435f55  X_WIDTH.__STDC_U
 0a40 54465f33 325f5f20 31005f5f 494e545f  TF_32__ 1.__INT_
 0a50 4c454153 5431365f 4d41585f 5f203078  LEAST16_MAX__ 0x
 0a60 37666666 0055494e 545f4c45 41535431  7fff.UINT_LEAST1
 0a70 365f5749 44544820 5f5f494e 545f4c45  6_WIDTH __INT_LE
 0a80 41535431 365f5749 4454485f 5f005f5f  AST16_WIDTH__.__
 0a90 53434841 525f4d41 585f5f20 30783766  SCHAR_MAX__ 0x7f
 0aa0 00505452 44494646 5f4d4158 205f5f50  .PTRDIFF_MAX __P
 0ab0 54524449 46465f4d 41585f5f 005f5f47  TRDIFF_MAX__.__G
 0ac0 4e55435f 45584543 5554494f 4e5f4348  NUC_EXECUTION_CH
 0ad0 41525345 545f4e41 4d452022 5554462d  ARSET_NAME "UTF-
 0ae0 3822005f 5f464c54 36345f44 49475f5f  8".__FLT64_DIG__
 0af0 20313500 5f5f494e 545f4641 5354385f   15.__INT_FAST8_
 0b00 54595045 5f5f2073 69676e65 64206368  TYPE__ signed ch
 0b10 6172005f 5f42464c 5431365f 4449475f  ar.__BFLT16_DIG_
 0b20 5f203200 494e5450 54525f4d 4158205f  _ 2.INTPTR_MAX _
 0b30 5f494e54 5054525f 4d41585f 5f005f5f  _INTPTR_MAX__.__
 0b40 53495a45 5f4d4158 5f5f2030 78666666  SIZE_MAX__ 0xfff
 0b50 66666666 66550055 494e545f 46415354  fffffU.UINT_FAST
 0b60 385f5749 44544800 5f5f464c 54333258  8_WIDTH.__FLT32X
 0b70 5f484153 5f494e46 494e4954 595f5f20  _HAS_INFINITY__ 
 0b80 31005f5f 53534532 5f5f2031 005f5f55  1.__SSE2__ 1.__U
 0b90 494e545f 4c454153 54385f54 5950455f  INT_LEAST8_TYPE_
 0ba0 5f20756e 7369676e 65642063 68617200  _ unsigned char.
 0bb0 5f5f494e 545f4641 53543634 5f545950  __INT_FAST64_TYP
 0bc0 455f5f20 6c6f6e67 206c6f6e 6720696e  E__ long long in
 0bd0 74005f5f 464c5431 32385f48 41535f51  t.__FLT128_HAS_Q
 0be0 55494554 5f4e414e 5f5f2031 005f5f49  UIET_NAN__ 1.__I
 0bf0 4e545f4c 45415354 33325f54 5950455f  NT_LEAST32_TYPE_
 0c00 5f20696e 74005f5f 494e545f 4c454153  _ int.__INT_LEAS
 0c10 5431365f 57494454 485f5f20 31360055  T16_WIDTH__ 16.U
 0c20 494e545f 4c454153 5436345f 57494454  INT_LEAST64_WIDT
 0c30 48205f5f 494e545f 4c454153 5436345f  H __INT_LEAST64_
 0c40 57494454 485f5f00 75696e74 33325f74  WIDTH__.uint32_t
 0c50 005f4743 435f5752 41505f53 5444494e  ._GCC_WRAP_STDIN
 0c60 545f4820 00494e54 5f464153 5431365f  T_H .INT_FAST16_
 0c70 4d494e00 55494e54 5f464153 5433325f  MIN.UINT_FAST32_
 0c80 57494454 48205f5f 494e545f 46415354  WIDTH __INT_FAST
 0c90 33325f57 49445448 5f5f005f 5f464c54  32_WIDTH__.__FLT
 0ca0 36345f49 535f4945 435f3630 3535395f  64_IS_IEC_60559_
 0cb0 5f203100 5f5f5549 4e545054 525f5459  _ 1.__UINTPTR_TY
 0cc0 50455f5f 20756e73 69676e65 6420696e  PE__ unsigned in
 0cd0 74005f5f 464c5433 325f4841 535f4445  t.__FLT32_HAS_DE
 0ce0 4e4f524d 5f5f2031 005f5f75 6e69785f  NORM__ 1.__unix_
 0cf0 5f203100 5f5f4743 435f4841 56455f53  _ 1.__GCC_HAVE_S
 0d00 594e435f 434f4d50 4152455f 414e445f  YNC_COMPARE_AND_
 0d10 53574150 5f312031 005f5f46 4c543634  SWAP_1 1.__FLT64
 0d20 585f4d49 4e5f4558 505f5f20 282d3136  X_MIN_EXP__ (-16
 0d30 33383129 0055494e 544d4158 5f43005f  381).UINTMAX_C._
 0d40 5f494e54 5f464153 5436345f 4d41585f  _INT_FAST64_MAX_
 0d50 5f203078 37666666 66666666 66666666  _ 0x7fffffffffff
 0d60 66666666 4c4c0053 49475f41 544f4d49  ffffLL.SIG_ATOMI
 0d70 435f4d41 58005f5f 464c545f 4449475f  C_MAX.__FLT_DIG_
 0d80 5f203600 5f5f494e 545f4641 53543136  _ 6.__INT_FAST16
 0d90 5f4d4158 5f5f2030 78376666 66666666  _MAX__ 0x7ffffff
 0da0 66005f5f 464c5431 365f4d41 4e545f44  f.__FLT16_MANT_D
 0db0 49475f5f 20313100 5f5f494c 5033325f  IG__ 11.__ILP32_
 0dc0 5f203100 5f5f4246 4c543136 5f4d4158  _ 1.__BFLT16_MAX
 0dd0 5f5f2033 2e333839 35333133 38393235  __ 3.38953138925
 0de0 31353335 34373539 30343730 38303033  1535475904708003
 0df0 37313438 37383637 652b3338 42463136  71487867e+38BF16
 0e00 005f5f44 45433332 5f4d494e 5f5f2031  .__DEC32_MIN__ 1
 0e10 452d3935 44460049 4e545f46 41535438  E-95DF.INT_FAST8
 0e20 5f4d4158 205f5f49 4e545f46 41535438  _MAX __INT_FAST8
 0e30 5f4d4158 5f5f005f 5f474343 5f494543  _MAX__.__GCC_IEC
 0e40 5f353539 2032005f 5f464c54 3132385f  _559 2.__FLT128_
 0e50 4d494e5f 4558505f 5f20282d 31363338  MIN_EXP__ (-1638
 0e60 3129005f 5f505452 44494646 5f4d4158  1).__PTRDIFF_MAX
 0e70 5f5f2030 78376666 66666666 66005f5f  __ 0x7fffffff.__
 0e80 464c5433 325f4841 535f5155 4945545f  FLT32_HAS_QUIET_
 0e90 4e414e5f 5f203100 5f5f5549 4e545f4c  NAN__ 1.__UINT_L
 0ea0 45415354 31365f4d 41585f5f 20307866  EAST16_MAX__ 0xf
 0eb0 66666600 5f5f464c 5433325f 44454349  fff.__FLT32_DECI
 0ec0 4d414c5f 4449475f 5f203900 5f5f4c44  MAL_DIG__ 9.__LD
 0ed0 424c5f4e 4f524d5f 4d41585f 5f20312e  BL_NORM_MAX__ 1.
 0ee0 31383937 33313439 35333537 32333137  1897314953572317
 0ef0 36353032 31323633 38353330 33303937  6502126385303097
 0f00 30323165 2b343933 324c005f 5f474e55  021e+4932L.__GNU
 0f10 435f5f20 3134005f 5f55494e 545f4c45  C__ 14.__UINT_LE
 0f20 41535438 5f4d4158 5f5f2030 78666600  AST8_MAX__ 0xff.
 0f30 5f5f4445 43313238 5f4d494e 5f455850  __DEC128_MIN_EXP
 0f40 5f5f2028 2d363134 32290049 4e54385f  __ (-6142).INT8_
 0f50 4d494e20 282d494e 54385f4d 4158202d  MIN (-INT8_MAX -
 0f60 20312900 5349475f 41544f4d 49435f4d   1).SIG_ATOMIC_M
 0f70 494e005f 5f494e54 385f4d41 585f5f20  IN.__INT8_MAX__ 
 0f80 30783766 005f5f44 45433132 385f4550  0x7f.__DEC128_EP
 0f90 53494c4f 4e5f5f20 31452d33 33444c00  SILON__ 1E-33DL.
 0fa0 5f5f4246 4c543136 5f49535f 4945435f  __BFLT16_IS_IEC_
 0fb0 36303535 395f5f20 30005f5f 464c5431  60559__ 0.__FLT1
 0fc0 32385f4d 41585f45 58505f5f 20313633  28_MAX_EXP__ 163
 0fd0 3834005f 5f55494e 545f4c45 41535436  84.__UINT_LEAST6
 0fe0 345f4d41 585f5f20 30786666 66666666  4_MAX__ 0xffffff
 0ff0 66666666 66666666 6666554c 4c005f5f  ffffffffffULL.__
 1000 464c545f 52414449 585f5f20 32005f5f  FLT_RADIX__ 2.__
 1010 53495a45 4f465f4c 4f4e475f 444f5542  SIZEOF_LONG_DOUB
 1020 4c455f5f 20313200 5f5f4246 4c543136  LE__ 12.__BFLT16
 1030 5f444543 494d414c 5f444947 5f5f2034  _DECIMAL_DIG__ 4
 1040 005f5f44 424c5f48 41535f51 55494554  .__DBL_HAS_QUIET
 1050 5f4e414e 5f5f2031 005f5f46 4c543634  _NAN__ 1.__FLT64
 1060 585f4953 5f494543 5f363035 35395f5f  X_IS_IEC_60559__
 1070 20310049 4e543136 5f4d494e 005f5f4c   1.INT16_MIN.__L
 1080 44424c5f 44454e4f 524d5f4d 494e5f5f  DBL_DENORM_MIN__
 1090 20332e36 34353139 39353331 38383234   3.6451995318824
 10a0 37343630 32353238 34303539 33333631  7460252840593361
 10b0 39343139 3832652d 34393531 4c005f5f  941982e-4951L.__
 10c0 464c5436 345f4841 535f494e 46494e49  FLT64_HAS_INFINI
 10d0 54595f5f 2031005f 5f55494e 545f4641  TY__ 1.__UINT_FA
 10e0 5354385f 4d41585f 5f203078 6666005f  ST8_MAX__ 0xff._
 10f0 5f41544f 4d49435f 484c455f 52454c45  _ATOMIC_HLE_RELE
 1100 41534520 31333130 37320055 494e5433  ASE 131072.UINT3
 1110 325f5749 44544800 5f5f4c44 424c5f4d  2_WIDTH.__LDBL_M
 1120 41585f45 58505f5f 20313633 3834005f  AX_EXP__ 16384._
 1130 5f444543 36345f4d 41585f5f 20392e39  _DEC64_MAX__ 9.9
 1140 39393939 39393939 39393939 39394533  99999999999999E3
 1150 38344444 00574348 41525f4d 4158005f  84DD.WCHAR_MAX._
 1160 5f474343 5f41544f 4d49435f 494e545f  _GCC_ATOMIC_INT_
 1170 4c4f434b 5f465245 45203200 5f5f494e  LOCK_FREE 2.__IN
 1180 544d4158 5f4d4158 5f5f2030 78376666  TMAX_MAX__ 0x7ff
 1190 66666666 66666666 66666666 664c4c00  fffffffffffffLL.
 11a0 5f5f5749 4e545f4d 41585f5f 20307866  __WINT_MAX__ 0xf
 11b0 66666666 66666655 005f5f46 4c543634  fffffffU.__FLT64
 11c0 585f4449 475f5f20 3138005f 5f494e54  X_DIG__ 18.__INT
 11d0 5f4c4541 53543634 5f574944 54485f5f  _LEAST64_WIDTH__
 11e0 20363400 494e5433 325f4328 6329205f   64.INT32_C(c) _
 11f0 5f494e54 33325f43 28632900 5f5f464c  _INT32_C(c).__FL
 1200 5436345f 4d41585f 31305f45 58505f5f  T64_MAX_10_EXP__
 1210 20333038 005f5f4f 52444552 5f4c4954   308.__ORDER_LIT
 1220 544c455f 454e4449 414e5f5f 20313233  TLE_ENDIAN__ 123
 1230 34005f5f 53495a45 4f465f50 54524449  4.__SIZEOF_PTRDI
 1240 46465f54 5f5f2034 005f5f4c 4148465f  FF_T__ 4.__LAHF_
 1250 53414846 5f5f2031 0055494e 545f4c45  SAHF__ 1.UINT_LE
 1260 41535433 325f4d41 5800494e 545f4641  AST32_MAX.INT_FA
 1270 53543634 5f4d494e 00505452 44494646  ST64_MIN.PTRDIFF
 1280 5f4d494e 20282d50 54524449 46465f4d  _MIN (-PTRDIFF_M
 1290 4158202d 20312900 5f5f4445 43313238  AX - 1).__DEC128
 12a0 5f4d414e 545f4449 475f5f20 3334005f  _MANT_DIG__ 34._
 12b0 5f4c4442 4c5f4d49 4e5f5f20 332e3336  _LDBL_MIN__ 3.36
 12c0 32313033 31343331 31323039 33353036  2103143112093506
 12d0 32363236 37373831 37333231 37353236  2626778173217526
 12e0 30652d34 3933324c 00505452 44494646  0e-4932L.PTRDIFF
 12f0 5f4d494e 005f5f49 4e543332 5f545950  _MIN.__INT32_TYP
 1300 455f5f20 696e7400 5f5f464c 54363458  E__ int.__FLT64X
 1310 5f484153 5f44454e 4f524d5f 5f203100  _HAS_DENORM__ 1.
 1320 5f5f4445 4333325f 4d41585f 4558505f  __DEC32_MAX_EXP_
 1330 5f203937 00494e54 4d41585f 4d494e00  _ 97.INTMAX_MIN.
 1340 5f5f464c 5431365f 44454e4f 524d5f4d  __FLT16_DENORM_M
 1350 494e5f5f 20352e39 36303436 34343737  IN__ 5.960464477
 1360 35333930 36323530 30303030 30303030  5390625000000000
 1370 30303030 30303030 3030652d 38463136  0000000000e-8F16
 1380 00494e54 5f4c4541 53543136 5f4d494e  .INT_LEAST16_MIN
 1390 005f5f46 4c543634 585f4d49 4e5f3130  .__FLT64X_MIN_10
 13a0 5f455850 5f5f2028 2d343933 3129005f  _EXP__ (-4931)._
 13b0 5f484156 455f5350 4543554c 4154494f  _HAVE_SPECULATIO
 13c0 4e5f5341 46455f56 414c5545 2031005f  N_SAFE_VALUE 1._
 13d0 5f464c54 3132385f 4d41585f 31305f45  _FLT128_MAX_10_E
 13e0 58505f5f 20343933 32005f5f 464c5431  XP__ 4932.__FLT1
 13f0 32385f4d 494e5f5f 20332e33 36323130  28_MIN__ 3.36210
 1400 33313433 31313230 39333530 36323632  3143112093506262
 1410 36373738 31373332 31373532 3630652d  67781732175260e-
 1420 34393332 46313238 005f5f49 4e545f46  4932F128.__INT_F
 1430 41535438 5f574944 54485f5f 2038005f  AST8_WIDTH__ 8._
 1440 5f464c54 36345f4d 494e5f31 305f4558  _FLT64_MIN_10_EX
 1450 505f5f20 282d3330 3729005f 5f44424c  P__ (-307).__DBL
 1460 5f4d4158 5f5f2028 28646f75 626c6529  _MAX__ ((double)
 1470 312e3739 37363933 31333438 36323331  1.79769313486231
 1480 35373038 31343532 37343233 37333137  5708145274237317
 1490 30343335 37652b33 30384c29 0055494e  04357e+308L).UIN
 14a0 54385f43 28632920 5f5f5549 4e54385f  T8_C(c) __UINT8_
 14b0 43286329 005f5f49 4e545f46 41535431  C(c).__INT_FAST1
 14c0 365f5459 50455f5f 20696e74 005f5f46  6_TYPE__ int.__F
 14d0 4c543136 5f4d494e 5f455850 5f5f2028  LT16_MIN_EXP__ (
 14e0 2d313329 005f5f46 4c543132 385f4449  -13).__FLT128_DI
 14f0 475f5f20 3333005f 5f55494e 5431365f  G__ 33.__UINT16_
 1500 54595045 5f5f2073 686f7274 20756e73  TYPE__ short uns
 1510 69676e65 6420696e 74005f5f 57434841  igned int.__WCHA
 1520 525f5749 4454485f 5f203332 005f5f47  R_WIDTH__ 32.__G
 1530 43435f41 544f4d49 435f4348 41525f4c  CC_ATOMIC_CHAR_L
 1540 4f434b5f 46524545 2032005f 5f42464c  OCK_FREE 2.__BFL
 1550 5431365f 4841535f 44454e4f 524d5f5f  T16_HAS_DENORM__
 1560 20310049 4e544d41 585f4328 6329205f   1.INTMAX_C(c) _
 1570 5f494e54 4d41585f 43286329 005f5f4c  _INTMAX_C(c).__L
 1580 4f4e475f 4c4f4e47 5f4d4158 5f5f2030  ONG_LONG_MAX__ 0
 1590 78376666 66666666 66666666 66666666  x7ffffffffffffff
 15a0 664c4c00 5f5f494e 5436345f 54595045  fLL.__INT64_TYPE
 15b0 5f5f206c 6f6e6720 6c6f6e67 20696e74  __ long long int
 15c0 005f5f46 4c545f4d 41585f31 305f4558  .__FLT_MAX_10_EX
 15d0 505f5f20 3338005f 5f464c54 3332585f  P__ 38.__FLT32X_
 15e0 45505349 4c4f4e5f 5f20322e 32323034  EPSILON__ 2.2204
 15f0 34363034 39323530 33313330 38303834  4604925031308084
 1600 37323633 33333631 38313634 30363265  726333618164062e
 1610 2d313646 33327800 5f5f464c 5431365f  -16F32x.__FLT16_
 1620 4d41585f 4558505f 5f203136 0055494e  MAX_EXP__ 16.UIN
 1630 54385f57 49445448 005f5f46 4c545f4d  T8_WIDTH.__FLT_M
 1640 414e545f 4449475f 5f203234 0055494e  ANT_DIG__ 24.UIN
 1650 545f4641 53543634 5f4d4158 205f5f55  T_FAST64_MAX __U
 1660 494e545f 46415354 36345f4d 41585f5f  INT_FAST64_MAX__
 1670 005f5f46 4c543634 5f444543 494d414c  .__FLT64_DECIMAL
 1680 5f444947 5f5f2031 37005f5f 4743435f  _DIG__ 17.__GCC_
 1690 48415645 5f53594e 435f434f 4d504152  HAVE_SYNC_COMPAR
 16a0 455f414e 445f5357 41505f34 20310057  E_AND_SWAP_4 1.W
 16b0 494e545f 4d415800 5f5f4c44 424c5f4d  INT_MAX.__LDBL_M
 16c0 41585f5f 20312e31 38393733 31343935  AX__ 1.189731495
 16d0 33353732 33313736 35303231 32363338  3572317650212638
 16e0 35333033 30393730 3231652b 34393332  5303097021e+4932
 16f0 4c005f5f 55494e54 5f464153 5431365f  L.__UINT_FAST16_
 1700 4d41585f 5f203078 66666666 66666666  MAX__ 0xffffffff
 1710 55005f5f 55494e54 5f464153 5431365f  U.__UINT_FAST16_
 1720 54595045 5f5f2075 6e736967 6e656420  TYPE__ unsigned 
 1730 696e7400 5f5f464c 545f4d41 585f5f20  int.__FLT_MAX__ 
 1740 332e3430 32383233 34363633 38353238  3.40282346638528
 1750 38353938 31313730 34313833 34383435  8598117041834845
 1760 31363932 35652b33 3846005f 5f44424c  16925e+38F.__DBL
 1770 5f4d494e 5f31305f 4558505f 5f20282d  _MIN_10_EXP__ (-
 1780 33303729 005f5f46 4c543332 5f4d494e  307).__FLT32_MIN
 1790 5f455850 5f5f2028 2d313235 2900494e  _EXP__ (-125).IN
 17a0 545f4641 53543332 5f4d4158 205f5f49  T_FAST32_MAX __I
 17b0 4e545f46 41535433 325f4d41 585f5f00  NT_FAST32_MAX__.
 17c0 5f5f464c 54313238 5f484153 5f494e46  __FLT128_HAS_INF
 17d0 494e4954 595f5f20 31005549 4e545f4c  INITY__ 1.UINT_L
 17e0 45415354 36345f4d 4158005f 5f464c54  EAST64_MAX.__FLT
 17f0 33325f44 49475f5f 2036005f 4743435f  32_DIG__ 6._GCC_
 1800 53544449 4e545f48 20005f5f 4758585f  STDINT_H .__GXX_
 1810 4142495f 56455253 494f4e20 31303139  ABI_VERSION 1019
 1820 005f5f46 4c543634 5f484153 5f44454e  .__FLT64_HAS_DEN
 1830 4f524d5f 5f203100 55494e54 385f4d41  ORM__ 1.UINT8_MA
 1840 58005f5f 464c5436 34585f4e 4f524d5f  X.__FLT64X_NORM_
 1850 4d41585f 5f20312e 31383937 33313439  MAX__ 1.18973149
 1860 35333537 32333137 36353032 31323633  5357231765021263
 1870 38353330 33303937 30323165 2b343933  85303097021e+493
 1880 32463634 78005f5f 464c5433 32585f48  2F64x.__FLT32X_H
 1890 41535f44 454e4f52 4d5f5f20 31005f5f  AS_DENORM__ 1.__
 18a0 494e545f 4c454153 5436345f 4d41585f  INT_LEAST64_MAX_
 18b0 5f203078 37666666 66666666 66666666  _ 0x7fffffffffff
 18c0 66666666 4c4c005f 5f464c54 3634585f  ffffLL.__FLT64X_
 18d0 4d41585f 5f20312e 31383937 33313439  MAX__ 1.18973149
 18e0 35333537 32333137 36353032 31323633  5357231765021263
 18f0 38353330 33303937 30323165 2b343933  85303097021e+493
 1900 32463634 78005f5f 4743435f 41544f4d  2F64x.__GCC_ATOM
 1910 49435f57 43484152 5f545f4c 4f434b5f  IC_WCHAR_T_LOCK_
 1920 46524545 2032005f 5f464c54 5f49535f  FREE 2.__FLT_IS_
 1930 4945435f 36303535 395f5f20 31005f5f  IEC_60559__ 1.__
 1940 53495a45 4f465f49 4e545f5f 2034005f  SIZEOF_INT__ 4._
 1950 5f494e54 5f4c4541 5354385f 57494454  _INT_LEAST8_WIDT
 1960 485f5f20 38005f5f 55494e54 385f4d41  H__ 8.__UINT8_MA
 1970 585f5f20 30786666 005f5f55 494e5431  X__ 0xff.__UINT1
 1980 365f4d41 585f5f20 30786666 66660049  6_MAX__ 0xffff.I
 1990 4e545f4c 45415354 385f4d41 58205f5f  NT_LEAST8_MAX __
 19a0 494e545f 4c454153 54385f4d 41585f5f  INT_LEAST8_MAX__
 19b0 0075696e 74385f74 005f5f46 4c543136  .uint8_t.__FLT16
 19c0 5f4d494e 5f5f2036 2e313033 35313536  _MIN__ 6.1035156
 19d0 32353030 30303030 30303030 30303030  2500000000000000
 19e0 30303030 30303030 30303030 652d3546  000000000000e-5F
 19f0 3136005f 5f55494e 5433325f 4d41585f  16.__UINT32_MAX_
 1a00 5f203078 66666666 66666666 55005f5f  _ 0xffffffffU.__
 1a10 494e544d 41585f57 49445448 5f5f2036  INTMAX_WIDTH__ 6
 1a20 34005f5f 44454333 325f4d41 585f5f20  4.__DEC32_MAX__ 
 1a30 392e3939 39393939 45393644 46005f5f  9.999999E96DF.__
 1a40 44424c5f 49535f49 45435f36 30353539  DBL_IS_IEC_60559
 1a50 5f5f2031 005f5f49 4e545f4c 45415354  __ 1.__INT_LEAST
 1a60 31365f54 5950455f 5f207368 6f727420  16_TYPE__ short 
 1a70 696e7400 5f5f464c 5433325f 4d41585f  int.__FLT32_MAX_
 1a80 4558505f 5f203132 38005f5f 676e755f  EXP__ 128.__gnu_
 1a90 6c696e75 785f5f20 3100494e 545f4641  linux__ 1.INT_FA
 1aa0 5354385f 4d494e20 282d494e 545f4641  ST8_MIN (-INT_FA
 1ab0 5354385f 4d415820 2d203129 005f5f49  ST8_MAX - 1).__I
 1ac0 4e54385f 43286329 2063005f 5f474343  NT8_C(c) c.__GCC
 1ad0 5f41544f 4d49435f 43484152 31365f54  _ATOMIC_CHAR16_T
 1ae0 5f4c4f43 4b5f4652 45452032 0055494e  _LOCK_FREE 2.UIN
 1af0 545f4c45 41535431 365f5749 44544800  T_LEAST16_WIDTH.
 1b00 50545244 4946465f 4d415800 55494e54  PTRDIFF_MAX.UINT
 1b10 5f4c4541 5354385f 57494454 48205f5f  _LEAST8_WIDTH __
 1b20 494e545f 4c454153 54385f57 49445448  INT_LEAST8_WIDTH
 1b30 5f5f0053 495a455f 4d415800 5f5f4743  __.SIZE_MAX.__GC
 1b40 435f4154 4f4d4943 5f4c4f4e 475f4c4f  C_ATOMIC_LONG_LO
 1b50 434b5f46 52454520 32005f5f 464c5433  CK_FREE 2.__FLT3
 1b60 32585f44 49475f5f 20313500 55494e54  2X_DIG__ 15.UINT
 1b70 5f464153 5431365f 57494454 48205f5f  _FAST16_WIDTH __
 1b80 494e545f 46415354 31365f57 49445448  INT_FAST16_WIDTH
 1b90 5f5f005f 5f464c54 3332585f 4d414e54  __.__FLT32X_MANT
 1ba0 5f444947 5f5f2035 33005549 4e545f46  _DIG__ 53.UINT_F
 1bb0 41535433 325f4d41 58205f5f 55494e54  AST32_MAX __UINT
 1bc0 5f464153 5433325f 4d41585f 5f005549  _FAST32_MAX__.UI
 1bd0 4e545f46 41535433 325f5749 44544800  NT_FAST32_WIDTH.
 1be0 5f5f464c 54363458 5f4d4158 5f31305f  __FLT64X_MAX_10_
 1bf0 4558505f 5f203439 33320057 43484152  EXP__ 4932.WCHAR
 1c00 5f4d494e 005f5f44 424c5f4d 494e5f5f  _MIN.__DBL_MIN__
 1c10 20282864 6f75626c 6529322e 32323530   ((double)2.2250
 1c20 37333835 38353037 32303133 38333039  7385850720138309
 1c30 30323332 37313733 33323430 34303665  023271733240406e
 1c40 2d333038 4c29005f 5f494e54 5054525f  -308L).__INTPTR_
 1c50 57494454 485f5f20 3332005f 5f474343  WIDTH__ 32.__GCC
 1c60 5f41544f 4d49435f 424f4f4c 5f4c4f43  _ATOMIC_BOOL_LOC
 1c70 4b5f4652 45452032 005f5f46 494e4954  K_FREE 2.__FINIT
 1c80 455f4d41 54485f4f 4e4c595f 5f203000  E_MATH_ONLY__ 0.
 1c90 5f5f464c 5436345f 4d41585f 5f20312e  __FLT64_MAX__ 1.
 1ca0 37393736 39333133 34383632 33313537  7976931348623157
 1cb0 30383134 35323734 32333733 31373034  0814527423731704
 1cc0 33353765 2b333038 46363400 494e5431  357e+308F64.INT1
 1cd0 365f4d49 4e20282d 494e5431 365f4d41  6_MIN (-INT16_MA
 1ce0 58202d20 31290049 4e545f46 41535431  X - 1).INT_FAST1
 1cf0 365f4d49 4e20282d 494e545f 46415354  6_MIN (-INT_FAST
 1d00 31365f4d 4158202d 20312900 5f5f5645  16_MAX - 1).__VE
 1d10 5253494f 4e5f5f20 2231342e 322e3120  RSION__ "14.2.1 
 1d20 32303235 30323037 2200494e 545f4c45  20250207".INT_LE
 1d30 41535431 365f4d49 4e20282d 494e545f  AST16_MIN (-INT_
 1d40 4c454153 5431365f 4d415820 2d203129  LEAST16_MAX - 1)
 1d50 005f5f47 43435f41 534d5f46 4c41475f  .__GCC_ASM_FLAG_
 1d60 4f555450 5554535f 5f203100 494e545f  OUTPUTS__ 1.INT_
 1d70 46415354 385f4d49 4e005f5f 44454331  FAST8_MIN.__DEC1
 1d80 32385f4d 41585f45 58505f5f 20363134  28_MAX_EXP__ 614
 1d90 35005f5f 454c465f 5f203100 5f5f464c  5.__ELF__ 1.__FL
 1da0 54333258 5f4d494e 5f5f2032 2e323235  T32X_MIN__ 2.225
 1db0 30373338 35383530 37323031 33383330  0738585072013830
 1dc0 39303233 32373137 33333234 30343036  9023271733240406
 1dd0 652d3330 38463332 78005f5f 494e5431  e-308F32x.__INT1
 1de0 365f4328 63292063 005f5f42 464c5431  6_C(c) c.__BFLT1
 1df0 365f4445 4e4f524d 5f4d494e 5f5f2039  6_DENORM_MIN__ 9
 1e00 2e313833 35343936 31353739 39313231  .183549615799121
 1e10 31353630 30353735 34313937 30343837  1560057541970487
 1e20 39343336 652d3431 42463136 005f5f55  9436e-41BF16.__U
 1e30 494e5436 345f4d41 585f5f20 30786666  INT64_MAX__ 0xff
 1e40 66666666 66666666 66666666 6666554c  ffffffffffffffUL
 1e50 4c005f5f 50545244 4946465f 54595045  L.__PTRDIFF_TYPE
 1e60 5f5f2069 6e74005f 5f494e54 5f464153  __ int.__INT_FAS
 1e70 5433325f 4d41585f 5f203078 37666666  T32_MAX__ 0x7fff
 1e80 66666666 005f5f46 4c543634 585f4841  ffff.__FLT64X_HA
 1e90 535f5155 4945545f 4e414e5f 5f203100  S_QUIET_NAN__ 1.
 1ea0 5f5f464c 545f4841 535f494e 46494e49  __FLT_HAS_INFINI
 1eb0 54595f5f 2031005f 5f535345 5f5f2031  TY__ 1.__SSE__ 1
 1ec0 005f5f6b 38203100 5f5f464c 5431365f  .__k8 1.__FLT16_
 1ed0 4841535f 494e4649 4e495459 5f5f2031  HAS_INFINITY__ 1
 1ee0 0055494e 54505452 5f574944 5448005f  .UINTPTR_WIDTH._
 1ef0 5f535444 435f5f20 31005f5f 42495449  _STDC__ 1.__BITI
 1f00 4e545f4d 41585749 4454485f 5f203635  NT_MAXWIDTH__ 65
 1f10 35333500 5f5f5349 5a454f46 5f4c4f4e  535.__SIZEOF_LON
 1f20 475f5f20 34005f5f 44424c5f 4d41585f  G__ 4.__DBL_MAX_
 1f30 4558505f 5f203130 3234005f 5f41544f  EXP__ 1024.__ATO
 1f40 4d49435f 434f4e53 554d4520 31005f5f  MIC_CONSUME 1.__
 1f50 42464c54 31365f45 5053494c 4f4e5f5f  BFLT16_EPSILON__
 1f60 20372e38 31323530 30303030 30303030   7.8125000000000
 1f70 30303030 30303030 30303030 30303030  0000000000000000
 1f80 30303030 3030652d 33424631 36005f5f  000000e-3BF16.__
 1f90 494e545f 46415354 33325f57 49445448  INT_FAST32_WIDTH
 1fa0 5f5f2033 32005549 4e545054 525f4d41  __ 32.UINTPTR_MA
 1fb0 58205f5f 55494e54 5054525f 4d41585f  X __UINTPTR_MAX_
 1fc0 5f005549 4e545f46 41535431 365f5749  _.UINT_FAST16_WI
 1fd0 44544800 5f5f5749 4e545f54 5950455f  DTH.__WINT_TYPE_
 1fe0 5f20756e 7369676e 65642069 6e74005f  _ unsigned int._
 1ff0 5f4c4f4e 475f4d41 585f5f20 30783766  _LONG_MAX__ 0x7f
 2000 66666666 66664c00 5f5f494e 5431365f  ffffffL.__INT16_
 2010 4d41585f 5f203078 37666666 005f5f53  MAX__ 0x7fff.__S
 2020 43484152 5f574944 54485f5f 2038005f  CHAR_WIDTH__ 8._
 2030 5f55494e 5433325f 43286329 20632023  _UINT32_C(c) c #
 2040 23205500 5f5f4c44 424c5f4d 494e5f31  # U.__LDBL_MIN_1
 2050 305f4558 505f5f20 282d3439 33312900  0_EXP__ (-4931).
 2060 5f5f4246 4c543136 5f4e4f52 4d5f4d41  __BFLT16_NORM_MA
 2070 585f5f20 332e3338 39353331 33383932  X__ 3.3895313892
 2080 35313533 35343735 39303437 30383030  5153547590470800
 2090 33373134 38373836 37652b33 38424631  371487867e+38BF1
 20a0 36005f5f 53495a45 4f465f44 4f55424c  6.__SIZEOF_DOUBL
 20b0 455f5f20 38005f5f 474e5543 5f504154  E__ 8.__GNUC_PAT
 20c0 43484c45 56454c5f 5f203100 55494e54  CHLEVEL__ 1.UINT
 20d0 5f4c4541 53543634 5f4d4158 205f5f55  _LEAST64_MAX __U
 20e0 494e545f 4c454153 5436345f 4d41585f  INT_LEAST64_MAX_
 20f0 5f005f5f 464c5431 365f4445 43494d41  _.__FLT16_DECIMA
 2100 4c5f4449 475f5f20 35005f5f 57494e54  L_DIG__ 5.__WINT
 2110 5f4d494e 5f5f2030 55005f5f 4c44424c  _MIN__ 0U.__LDBL
 2120 5f4d414e 545f4449 475f5f20 3634005f  _MANT_DIG__ 64._
 2130 5f464c54 33325f49 535f4945 435f3630  _FLT32_IS_IEC_60
 2140 3535395f 5f203100 494e545f 46415354  559__ 1.INT_FAST
 2150 33325f4d 494e005f 5f464c54 5f4e4f52  32_MIN.__FLT_NOR
 2160 4d5f4d41 585f5f20 332e3430 32383233  M_MAX__ 3.402823
 2170 34363633 38353238 38353938 31313730  4663852885981170
 2180 34313833 34383435 31363932 35652b33  4183484516925e+3
 2190 3846005f 5f535444 435f5554 465f3136  8F.__STDC_UTF_16
 21a0 5f5f2031 005f5f4c 44424c5f 45505349  __ 1.__LDBL_EPSI
 21b0 4c4f4e5f 5f20312e 30383432 30323137  LON__ 1.08420217
 21c0 32343835 35303434 33343030 37343532  2485504434007452
 21d0 38303038 36393934 31373165 2d31394c  80086994171e-19L
 21e0 00494e54 36345f4d 4158205f 5f494e54  .INT64_MAX __INT
 21f0 36345f4d 41585f5f 0055494e 545f4641  64_MAX__.UINT_FA
 2200 53543332 5f4d4158 0055494e 5433325f  ST32_MAX.UINT32_
 2210 43286329 205f5f55 494e5433 325f4328  C(c) __UINT32_C(
 2220 63290049 4e545f4c 45415354 33325f4d  c).INT_LEAST32_M
 2230 494e0069 64745f65 6e747279 005f5f4c  IN.idt_entry.__L
 2240 44424c5f 4841535f 494e4649 4e495459  DBL_HAS_INFINITY
 2250 5f5f2031 005f5f55 494e545f 46415354  __ 1.__UINT_FAST
 2260 36345f54 5950455f 5f206c6f 6e67206c  64_TYPE__ long l
 2270 6f6e6720 756e7369 676e6564 20696e74  ong unsigned int
 2280 005f5f47 43435f49 45435f35 35395f43  .__GCC_IEC_559_C
 2290 4f4d504c 45582032 0055494e 545f4641  OMPLEX 2.UINT_FA
 22a0 53543634 5f574944 5448005f 5f53495a  ST64_WIDTH.__SIZ
 22b0 454f465f 57434841 525f545f 5f203400  EOF_WCHAR_T__ 4.
 22c0 5f5f464c 54313238 5f4d494e 5f31305f  __FLT128_MIN_10_
 22d0 4558505f 5f20282d 34393331 29005f5f  EXP__ (-4931).__
 22e0 464c4f41 545f574f 52445f4f 52444552  FLOAT_WORD_ORDER
 22f0 5f5f205f 5f4f5244 45525f4c 4954544c  __ __ORDER_LITTL
 2300 455f454e 4449414e 5f5f005f 5f474343  E_ENDIAN__.__GCC
 2310 5f484156 455f5359 4e435f43 4f4d5041  _HAVE_SYNC_COMPA
 2320 52455f41 4e445f53 5741505f 32203100  RE_AND_SWAP_2 1.
 2330 5f5f5349 5a455f57 49445448 5f5f2033  __SIZE_WIDTH__ 3
 2340 32005f5f 44454333 325f4d41 4e545f44  2.__DEC32_MANT_D
 2350 49475f5f 20370049 4e545054 525f4d49  IG__ 7.INTPTR_MI
 2360 4e005f5f 464c5433 325f4445 4e4f524d  N.__FLT32_DENORM
 2370 5f4d494e 5f5f2031 2e343031 32393834  _MIN__ 1.4012984
 2380 36343332 34383137 30373039 32333732  6432481707092372
 2390 39353833 32383939 31363133 652d3435  958328991613e-45
 23a0 46333200 5f5f4445 4336345f 4d494e5f  F32.__DEC64_MIN_
 23b0 4558505f 5f20282d 33383229 005f5f53  EXP__ (-382).__S
 23c0 49475f41 544f4d49 435f4d49 4e5f5f20  IG_ATOMIC_MIN__ 
 23d0 282d5f5f 5349475f 41544f4d 49435f4d  (-__SIG_ATOMIC_M
 23e0 41585f5f 202d2031 29005549 4e543332  AX__ - 1).UINT32
 23f0 5f43005f 5f494e54 33325f4d 41585f5f  _C.__INT32_MAX__
 2400 20307837 66666666 66666600 5f5f4c4f   0x7fffffff.__LO
 2410 4e475f57 49445448 5f5f2033 32005f5f  NG_WIDTH__ 32.__
 2420 41544f4d 49435f41 43515549 52452032  ATOMIC_ACQUIRE 2
 2430 005f5f55 494e5431 365f4328 63292063  .__UINT16_C(c) c
 2440 00494e54 36345f4d 494e2028 2d494e54  .INT64_MIN (-INT
 2450 36345f4d 4158202d 20312900 5f5f5345  64_MAX - 1).__SE
 2460 475f4753 20310075 696e7431 365f7400  G_GS 1.uint16_t.
 2470 5f5f464c 5431365f 4841535f 44454e4f  __FLT16_HAS_DENO
 2480 524d5f5f 20310055 494e545f 4c454153  RM__ 1.UINT_LEAS
 2490 54385f4d 4158205f 5f55494e 545f4c45  T8_MAX __UINT_LE
 24a0 41535438 5f4d4158 5f5f005f 5f55494e  AST8_MAX__.__UIN
 24b0 544d4158 5f545950 455f5f20 6c6f6e67  TMAX_TYPE__ long
 24c0 206c6f6e 6720756e 7369676e 65642069   long unsigned i
 24d0 6e740049 4e545f46 41535436 345f4d41  nt.INT_FAST64_MA
 24e0 58205f5f 494e545f 46415354 36345f4d  X __INT_FAST64_M
 24f0 41585f5f 005f5f53 49475f41 544f4d49  AX__.__SIG_ATOMI
 2500 435f5749 4454485f 5f203332 0055494e  C_WIDTH__ 32.UIN
 2510 5436345f 43286329 205f5f55 494e5436  T64_C(c) __UINT6
 2520 345f4328 63290055 494e545f 4c454153  4_C(c).UINT_LEAS
 2530 54385f57 49445448 005f5f53 4852545f  T8_WIDTH.__SHRT_
 2540 4d41585f 5f203078 37666666 005f5f42  MAX__ 0x7fff.__B
 2550 464c5431 365f4d41 4e545f44 49475f5f  FLT16_MANT_DIG__
 2560 2038005f 5f4f5244 45525f50 44505f45   8.__ORDER_PDP_E
 2570 4e444941 4e5f5f20 33343132 005f5f55  NDIAN__ 3412.__U
 2580 494e545f 4c454153 5431365f 54595045  INT_LEAST16_TYPE
 2590 5f5f2073 686f7274 20756e73 69676e65  __ short unsigne
 25a0 6420696e 7400494e 545f4c45 41535438  d int.INT_LEAST8
 25b0 5f4d494e 005f5f46 4c545f44 4543494d  _MIN.__FLT_DECIM
 25c0 414c5f44 49475f5f 2039005f 5f636f64  AL_DIG__ 9.__cod
 25d0 655f6d6f 64656c5f 33325f5f 2031005f  e_model_32__ 1._
 25e0 5f4c4442 4c5f4d49 4e5f4558 505f5f20  _LDBL_MIN_EXP__ 
 25f0 282d3136 33383129 005f5f57 494e545f  (-16381).__WINT_
 2600 57494454 485f5f20 3332005f 5f464c54  WIDTH__ 32.__FLT
 2610 3634585f 4d494e5f 5f20332e 33363231  64X_MIN__ 3.3621
 2620 30333134 33313132 30393335 30363236  0314311209350626
 2630 32363737 38313733 32313735 32363065  267781732175260e
 2640 2d343933 32463634 7800494e 545f4c45  -4932F64x.INT_LE
 2650 41535436 345f4d49 4e20282d 494e545f  AST64_MIN (-INT_
 2660 4c454153 5436345f 4d415820 2d203129  LEAST64_MAX - 1)
 2670 0055494e 545f4641 5354385f 4d415800  .UINT_FAST8_MAX.
 2680 5f5f494e 545f4641 5354385f 4d41585f  __INT_FAST8_MAX_
 2690 5f203078 3766005f 5f524547 49535445  _ 0x7f.__REGISTE
 26a0 525f5052 45464958 5f5f2000 5f5f464c  R_PREFIX__ .__FL
 26b0 5433325f 45505349 4c4f4e5f 5f20312e  T32_EPSILON__ 1.
 26c0 31393230 39323839 35353037 38313235  1920928955078125
 26d0 30303030 30303030 30303030 30303030  0000000000000000
 26e0 30303065 2d374633 3200494e 545f4641  000e-7F32.INT_FA
 26f0 53543634 5f4d494e 20282d49 4e545f46  ST64_MIN (-INT_F
 2700 41535436 345f4d41 58202d20 31290055  AST64_MAX - 1).U
 2710 494e5431 365f4d41 58205f5f 55494e54  INT16_MAX __UINT
 2720 31365f4d 41585f5f 00534947 5f41544f  16_MAX__.SIG_ATO
 2730 4d49435f 57494454 48205f5f 5349475f  MIC_WIDTH __SIG_
 2740 41544f4d 49435f57 49445448 5f5f005f  ATOMIC_WIDTH__._
 2750 5f444543 36345f4d 41585f45 58505f5f  _DEC64_MAX_EXP__
 2760 20333835 005f5f69 33383620 31005f5f   385.__i386 1.__
 2770 464c5433 32585f4d 494e5f31 305f4558  FLT32X_MIN_10_EX
 2780 505f5f20 282d3330 3729005f 5f42464c  P__ (-307).__BFL
 2790 5431365f 4841535f 494e4649 4e495459  T16_HAS_INFINITY
 27a0 5f5f2031 00494e54 36345f43 28632920  __ 1.INT64_C(c) 
 27b0 5f5f494e 5436345f 43286329 0055494e  __INT64_C(c).UIN
 27c0 5436345f 43005749 4e545f4d 4158205f  T64_C.WINT_MAX _
 27d0 5f57494e 545f4d41 585f5f00 5f5f4348  _WINT_MAX__.__CH
 27e0 41523332 5f545950 455f5f20 756e7369  AR32_TYPE__ unsi
 27f0 676e6564 20696e74 005f5f42 464c5431  gned int.__BFLT1
 2800 365f4d49 4e5f5f20 312e3137 35343934  6_MIN__ 1.175494
 2810 33353038 32323238 37353037 39363837  3508222875079687
 2820 33363533 37323232 32343536 38652d33  3653722224568e-3
 2830 38424631 36005f5f 464c5436 34585f48  8BF16.__FLT64X_H
 2840 41535f49 4e46494e 4954595f 5f203100  AS_INFINITY__ 1.
 2850 5f5f494e 544d4158 5f432863 29206320  __INTMAX_C(c) c 
 2860 2323204c 4c005f5f 44454331 32385f4d  ## LL.__DEC128_M
 2870 494e5f5f 2031452d 36313433 444c005f  IN__ 1E-6143DL._
 2880 5f464c54 3332585f 4d494e5f 4558505f  _FLT32X_MIN_EXP_
 2890 5f20282d 31303231 29005549 4e545f46  _ (-1021).UINT_F
 28a0 41535436 345f4d41 5800494e 545f4c45  AST64_MAX.INT_LE
 28b0 41535436 345f4d41 58205f5f 494e545f  AST64_MAX __INT_
 28c0 4c454153 5436345f 4d41585f 5f00494e  LEAST64_MAX__.IN
 28d0 545f4c45 41535436 345f4d49 4e005f5f  T_LEAST64_MIN.__
 28e0 4743435f 44455354 52554354 4956455f  GCC_DESTRUCTIVE_
 28f0 53495a45 20363400 5f5f4246 4c543136  SIZE 64.__BFLT16
 2900 5f4d4158 5f455850 5f5f2031 3238005f  _MAX_EXP__ 128._
 2910 5f55494e 545f4641 5354385f 54595045  _UINT_FAST8_TYPE
 2920 5f5f2075 6e736967 6e656420 63686172  __ unsigned char
 2930 005f5f49 4e543332 5f432863 29206300  .__INT32_C(c) c.
 2940 5f5f4c44 424c5f48 41535f51 55494554  __LDBL_HAS_QUIET
 2950 5f4e414e 5f5f2031 005f5f49 4e54385f  _NAN__ 1.__INT8_
 2960 54595045 5f5f2073 69676e65 64206368  TYPE__ signed ch
 2970 6172005f 5f555345 525f4c41 42454c5f  ar.__USER_LABEL_
 2980 50524546 49585f5f 20005f5f 43484152  PREFIX__ .__CHAR
 2990 385f5459 50455f5f 20756e73 69676e65  8_TYPE__ unsigne
 29a0 64206368 61720055 494e544d 41585f4d  d char.UINTMAX_M
 29b0 4158005f 5f6c696e 75782031 0055494e  AX.__linux 1.UIN
 29c0 545f4c45 41535433 325f5749 44544820  T_LEAST32_WIDTH 
 29d0 5f5f494e 545f4c45 41535433 325f5749  __INT_LEAST32_WI
 29e0 4454485f 5f006f66 66736574 5f6c6f77  DTH__.offset_low
 29f0 0068616e 646c6572 005f5f55 494e5433  .handler.__UINT3
 2a00 325f5459 50455f5f 20756e73 69676e65  2_TYPE__ unsigne
 2a10 6420696e 74005f5f 53544443 5f564552  d int.__STDC_VER
 2a20 53494f4e 5f535444 494e545f 485f5f20  SION_STDINT_H__ 
 2a30 32303233 31314c00 5f5f5549 4e545f46  202311L.__UINT_F
 2a40 41535436 345f4d41 585f5f20 30786666  AST64_MAX__ 0xff
 2a50 66666666 66666666 66666666 6666554c  ffffffffffffffUL
 2a60 4c005f5f 55494e54 5f464153 5433325f  L.__UINT_FAST32_
 2a70 4d41585f 5f203078 66666666 66666666  MAX__ 0xffffffff
 2a80 55005f5f 494e5436 345f4328 63292063  U.__INT64_C(c) c
 2a90 20232320 4c4c005f 5f464c54 3132385f   ## LL.__FLT128_
 2aa0 45505349 4c4f4e5f 5f20312e 39323539  EPSILON__ 1.9259
 2ab0 32393934 34333837 32333538 35333035  2994438723585305
 2ac0 35393737 39343235 38343932 37333265  597794258492732e
 2ad0 2d333446 31323800 55494e54 5f4c4541  -34F128.UINT_LEA
 2ae0 53543136 5f4d4158 0055494e 54505452  ST16_MAX.UINTPTR
 2af0 5f574944 5448205f 5f494e54 5054525f  _WIDTH __INTPTR_
 2b00 57494454 485f5f00 5f5f5349 5a454f46  WIDTH__.__SIZEOF
 2b10 5f4c4f4e 475f4c4f 4e475f5f 2038005f  _LONG_LONG__ 8._
 2b20 5f464c54 31365f45 5053494c 4f4e5f5f  _FLT16_EPSILON__
 2b30 20392e37 36353632 35303030 30303030   9.7656250000000
 2b40 30303030 30303030 30303030 30303030  0000000000000000
 2b50 30303030 3030652d 34463136 005f5f55  000000e-4F16.__U
 2b60 494e5438 5f545950 455f5f20 756e7369  INT8_TYPE__ unsi
 2b70 676e6564 20636861 72005f5f 53485254  gned char.__SHRT
 2b80 5f574944 54485f5f 20313600 55494e54  _WIDTH__ 16.UINT
 2b90 33325f4d 41580049 4e543332 5f4d4158  32_MAX.INT32_MAX
 2ba0 205f5f49 4e543332 5f4d4158 5f5f005f   __INT32_MAX__._
 2bb0 5f464c54 36345f4e 4f524d5f 4d41585f  _FLT64_NORM_MAX_
 2bc0 5f20312e 37393736 39333133 34383632  _ 1.797693134862
 2bd0 33313537 30383134 35323734 32333733  3157081452742373
 2be0 31373034 33353765 2b333038 46363400  1704357e+308F64.
 2bf0 5f5f494e 545f4c45 41535436 345f5459  __INT_LEAST64_TY
 2c00 50455f5f 206c6f6e 67206c6f 6e672069  PE__ long long i
 2c10 6e740049 4e545f4c 45415354 33325f4d  nt.INT_LEAST32_M
 2c20 494e2028 2d494e54 5f4c4541 53543332  IN (-INT_LEAST32
 2c30 5f4d4158 202d2031 29005f5f 53495a45  _MAX - 1).__SIZE
 2c40 4f465f50 4f494e54 45525f5f 20340043  OF_POINTER__ 4.C
 2c50 4f44455f 5345474d 454e545f 4f464653  ODE_SEGMENT_OFFS
 2c60 45542028 2875696e 7431365f 74293829  ET ((uint16_t)8)
 2c70 005f5f42 464c5431 365f4d49 4e5f3130  .__BFLT16_MIN_10
 2c80 5f455850 5f5f2028 2d333729 00574348  _EXP__ (-37).WCH
 2c90 41525f4d 4158205f 5f574348 41525f4d  AR_MAX __WCHAR_M
 2ca0 41585f5f 005f5f46 4c543634 5f455053  AX__.__FLT64_EPS
 2cb0 494c4f4e 5f5f2032 2e323230 34343630  ILON__ 2.2204460
 2cc0 34393235 30333133 30383038 34373236  4925031308084726
 2cd0 33333336 31383136 34303632 652d3136  333618164062e-16
 2ce0 46363400 5f5f464c 54363458 5f4d414e  F64.__FLT64X_MAN
 2cf0 545f4449 475f5f20 3634005f 5f505452  T_DIG__ 64.__PTR
 2d00 44494646 5f574944 54485f5f 20333200  DIFF_WIDTH__ 32.
 2d10 6f666673 65745f68 69676800 5f5f464c  offset_high.__FL
 2d20 545f4445 4e4f524d 5f4d494e 5f5f2031  T_DENORM_MIN__ 1
 2d30 2e343031 32393834 36343332 34383137  .401298464324817
 2d40 30373039 32333732 39353833 32383939  0709237295832899
 2d50 31363133 652d3435 46005f5f 494e545f  1613e-45F.__INT_
 2d60 57494454 485f5f20 3332005f 5f4c4442  WIDTH__ 32.__LDB
 2d70 4c5f4445 43494d41 4c5f4449 475f5f20  L_DECIMAL_DIG__ 
 2d80 3231005f 5f474343 5f41544f 4d49435f  21.__GCC_ATOMIC_
 2d90 504f494e 5445525f 4c4f434b 5f465245  POINTER_LOCK_FRE
 2da0 45203200 5f5f5549 4e543634 5f432863  E 2.__UINT64_C(c
 2db0 29206320 23232055 4c4c0055 494e544d  ) c ## ULL.UINTM
 2dc0 41585f57 49445448 205f5f49 4e544d41  AX_WIDTH __INTMA
 2dd0 585f5749 4454485f 5f005f5f 5345475f  X_WIDTH__.__SEG_
 2de0 46532031 0055494e 5431365f 57494454  FS 1.UINT16_WIDT
 2df0 48005f5f 42464c54 31365f48 41535f51  H.__BFLT16_HAS_Q
 2e00 55494554 5f4e414e 5f5f2031 0055494e  UIET_NAN__ 1.UIN
 2e10 5436345f 4d415820 5f5f5549 4e543634  T64_MAX __UINT64
 2e20 5f4d4158 5f5f005f 5f474343 5f41544f  _MAX__.__GCC_ATO
 2e30 4d49435f 43484152 33325f54 5f4c4f43  MIC_CHAR32_T_LOC
 2e40 4b5f4652 45452032 0055494e 544d4158  K_FREE 2.UINTMAX
 2e50 5f432863 29205f5f 55494e54 4d41585f  _C(c) __UINTMAX_
 2e60 43286329 005f5f57 43484152 5f545950  C(c).__WCHAR_TYP
 2e70 455f5f20 6c6f6e67 20696e74 005f5f75  E__ long int.__u
 2e80 6e697820 31005f5f 55494e54 4d41585f  nix 1.__UINTMAX_
 2e90 4d41585f 5f203078 66666666 66666666  MAX__ 0xffffffff
 2ea0 66666666 66666666 554c4c00 5f5f4348  ffffffffULL.__CH
 2eb0 41525f42 49545f5f 2038005f 5f41544f  AR_BIT__ 8.__ATO
 2ec0 4d49435f 52454c41 58454420 30005f5f  MIC_RELAXED 0.__
 2ed0 53544443 5f484f53 5445445f 5f203000  STDC_HOSTED__ 0.
 2ee0 55494e54 5f4c4541 5354385f 4d415800  UINT_LEAST8_MAX.
 2ef0 5f5f4d4d 585f5f20 31005f5f 494e5450  __MMX__ 1.__INTP
 2f00 54525f4d 41585f5f 20307837 66666666  TR_MAX__ 0x7ffff
 2f10 66666600 494e545f 4c454153 54385f4d  fff.INT_LEAST8_M
 2f20 494e2028 2d494e54 5f4c4541 5354385f  IN (-INT_LEAST8_
 2f30 4d415820 2d203129 00534947 5f41544f  MAX - 1).SIG_ATO
 2f40 4d49435f 57494454 48005f5f 464c5431  MIC_WIDTH.__FLT1
 2f50 365f4841 535f5155 4945545f 4e414e5f  6_HAS_QUIET_NAN_
 2f60 5f203100 5f5f464c 54333258 5f44454e  _ 1.__FLT32X_DEN
 2f70 4f524d5f 4d494e5f 5f20342e 39343036  ORM_MIN__ 4.9406
 2f80 35363435 38343132 34363534 34313736  5645841246544176
 2f90 35363837 39323836 38323231 33373265  568792868221372e
 2fa0 2d333234 46333278 0057494e 545f5749  -324F32x.WINT_WI
 2fb0 44544820 5f5f5749 4e545f57 49445448  DTH __WINT_WIDTH
 2fc0 5f5f0055 494e5433 325f5749 44544820  __.UINT32_WIDTH 
 2fd0 33320049 4e544d41 585f4d41 58205f5f  32.INTMAX_MAX __
 2fe0 494e544d 41585f4d 41585f5f 00494e54  INTMAX_MAX__.INT
 2ff0 385f4328 6329205f 5f494e54 385f4328  8_C(c) __INT8_C(
 3000 6329005f 5f474343 5f41544f 4d49435f  c).__GCC_ATOMIC_
 3010 4c4c4f4e 475f4c4f 434b5f46 52454520  LLONG_LOCK_FREE 
 3020 32005f5f 464c545f 4d41585f 4558505f  2.__FLT_MAX_EXP_
 3030 5f203132 38005f5f 41544f4d 49435f41  _ 128.__ATOMIC_A
 3040 43515f52 454c2034 005f5f49 4e543634  CQ_REL 4.__INT64
 3050 5f4d4158 5f5f2030 78376666 66666666  _MAX__ 0x7ffffff
 3060 66666666 66666666 664c4c00 5f5f4445  fffffffffLL.__DE
 3070 4333325f 4d494e5f 4558505f 5f20282d  C32_MIN_EXP__ (-
 3080 39342900 494e5433 325f4d49 4e005f5f  94).INT32_MIN.__
 3090 464c545f 4d494e5f 5f20312e 31373534  FLT_MIN__ 1.1754
 30a0 39343335 30383232 32383735 30373936  9435082228750796
 30b0 38373336 35333732 32323234 35363865  873653722224568e
 30c0 2d333846 0055494e 545f4641 5354385f  -38F.UINT_FAST8_
 30d0 4d415820 5f5f5549 4e545f46 41535438  MAX __UINT_FAST8
 30e0 5f4d4158 5f5f005f 5f494e54 5054525f  _MAX__.__INTPTR_
 30f0 54595045 5f5f2069 6e74005f 5f444543  TYPE__ int.__DEC
 3100 5f455641 4c5f4d45 54484f44 5f5f2032  _EVAL_METHOD__ 2
 3110 00494e54 5054525f 4d494e20 282d494e  .INTPTR_MIN (-IN
 3120 54505452 5f4d4158 202d2031 29005f5f  TPTR_MAX - 1).__
 3130 46585352 5f5f2031 005f5f49 4e545f4c  FXSR__ 1.__INT_L
 3140 45415354 33325f57 49445448 5f5f2033  EAST32_WIDTH__ 3
 3150 32005f5f 474e5543 5f574944 455f4558  2.__GNUC_WIDE_EX
 3160 45435554 494f4e5f 43484152 5345545f  ECUTION_CHARSET_
 3170 4e414d45 20225554 462d3332 4c452200  NAME "UTF-32LE".
 3180 5f5f5549 4e545f46 41535433 325f5459  __UINT_FAST32_TY
 3190 50455f5f 20756e73 69676e65 6420696e  PE__ unsigned in
 31a0 74005349 5a455f57 49445448 205f5f53  t.SIZE_WIDTH __S
 31b0 495a455f 57494454 485f5f00 55494e54  IZE_WIDTH__.UINT
 31c0 36345f4d 4158005f 5f6c696e 75785f5f  64_MAX.__linux__
 31d0 20310050 54524449 46465f57 49445448   1.PTRDIFF_WIDTH
 31e0 205f5f50 54524449 46465f57 49445448   __PTRDIFF_WIDTH
 31f0 5f5f005f 5f53495a 455f5459 50455f5f  __.__SIZE_TYPE__
 3200 20756e73 69676e65 6420696e 74005743   unsigned int.WC
 3210 4841525f 4d494e20 5f5f5743 4841525f  HAR_MIN __WCHAR_
 3220 4d494e5f 5f005f5f 464c5431 32385f44  MIN__.__FLT128_D
 3230 4543494d 414c5f44 49475f5f 20333600  ECIMAL_DIG__ 36.
 3240 5f5f464c 5436345f 4d494e5f 4558505f  __FLT64_MIN_EXP_
 3250 5f20282d 31303231 29007265 67697374  _ (-1021).regist
 3260 65725f69 6e74005f 5f474343 5f41544f  er_int.__GCC_ATO
 3270 4d49435f 53484f52 545f4c4f 434b5f46  MIC_SHORT_LOCK_F
 3280 52454520 32005f5f 464c5436 34585f44  REE 2.__FLT64X_D
 3290 4543494d 414c5f44 49475f5f 20323100  ECIMAL_DIG__ 21.
 32a0 5f5f5549 4e545f4c 45415354 33325f54  __UINT_LEAST32_T
 32b0 5950455f 5f20756e 7369676e 65642069  YPE__ unsigned i
 32c0 6e74005f 5f464c54 3332585f 49535f49  nt.__FLT32X_IS_I
 32d0 45435f36 30353539 5f5f2031 005f5f46  EC_60559__ 1.__F
 32e0 4c545f45 5053494c 4f4e5f5f 20312e31  LT_EPSILON__ 1.1
 32f0 39323039 32383935 35303738 31323530  9209289550781250
 3300 30303030 30303030 30303030 30303030  0000000000000000
 3310 3030652d 3746005f 5f464c54 3132385f  00e-7F.__FLT128_
 3320 49535f49 45435f36 30353539 5f5f2031  IS_IEC_60559__ 1
 3330 0057494e 545f5749 44544800 55494e54  .WINT_WIDTH.UINT
 3340 385f4300 5f5f4442 4c5f4841 535f494e  8_C.__DBL_HAS_IN
 3350 46494e49 54595f5f 2031005f 5f464c54  FINITY__ 1.__FLT
 3360 5f455641 4c5f4d45 54484f44 5f54535f  _EVAL_METHOD_TS_
 3370 31383636 315f335f 5f203200 5349475f  18661_3__ 2.SIG_
 3380 41544f4d 49435f4d 4158205f 5f534947  ATOMIC_MAX __SIG
 3390 5f41544f 4d49435f 4d41585f 5f007072  _ATOMIC_MAX__.pr
 33a0 6573656e 74005f5f 494e545f 46415354  esent.__INT_FAST
 33b0 33325f54 5950455f 5f20696e 74005f5f  32_TYPE__ int.__
 33c0 464c545f 4841535f 51554945 545f4e41  FLT_HAS_QUIET_NA
 33d0 4e5f5f20 31006761 74655f74 79706500  N__ 1.gate_type.
 33e0 5f5f494e 544d4158 5f545950 455f5f20  __INTMAX_TYPE__ 
 33f0 6c6f6e67 206c6f6e 6720696e 74005f5f  long long int.__
 3400 44424c5f 4e4f524d 5f4d4158 5f5f2028  DBL_NORM_MAX__ (
 3410 28646f75 626c6529 312e3739 37363933  (double)1.797693
 3420 31333438 36323331 35373038 31343532  1348623157081452
 3430 37343233 37333137 30343335 37652b33  7423731704357e+3
 3440 30384c29 005f5f44 45433132 385f5355  08L).__DEC128_SU
 3450 424e4f52 4d414c5f 4d494e5f 5f20302e  BNORMAL_MIN__ 0.
 3460 30303030 30303030 30303030 30303030  0000000000000000
 3470 30303030 30303030 30303030 30303030  0000000000000000
 3480 31452d36 31343344 4c00494e 545f4641  1E-6143DL.INT_FA
 3490 53543332 5f4d494e 20282d49 4e545f46  ST32_MIN (-INT_F
 34a0 41535433 325f4d41 58202d20 31290057  AST32_MAX - 1).W
 34b0 494e545f 4d494e00 55494e54 5f464153  INT_MIN.UINT_FAS
 34c0 5431365f 4d415820 5f5f5549 4e545f46  T16_MAX __UINT_F
 34d0 41535431 365f4d41 585f5f00 5f5f5349  AST16_MAX__.__SI
 34e0 5a454f46 5f464c4f 41543830 5f5f2031  ZEOF_FLOAT80__ 1
 34f0 32005349 5a455f57 49445448 00494e54  2.SIZE_WIDTH.INT
 3500 385f4d41 58205f5f 494e5438 5f4d4158  8_MAX __INT8_MAX
 3510 5f5f005f 5f55494e 5436345f 54595045  __.__UINT64_TYPE
 3520 5f5f206c 6f6e6720 6c6f6e67 20756e73  __ long long uns
 3530 69676e65 6420696e 74005f5f 464c5433  igned int.__FLT3
 3540 32585f48 41535f51 55494554 5f4e414e  2X_HAS_QUIET_NAN
 3550 5f5f2031 005f5f44 424c5f4d 41585f31  __ 1.__DBL_MAX_1
 3560 305f4558 505f5f20 33303800 55494e54  0_EXP__ 308.UINT
 3570 33325f4d 4158205f 5f55494e 5433325f  32_MAX __UINT32_
 3580 4d41585f 5f005f5f 69333836 5f5f2031  MAX__.__i386__ 1
 3590 005f5f47 4e55435f 53544443 5f494e4c  .__GNUC_STDC_INL
 35a0 494e455f 5f203100 5f5f5349 5a454f46  INE__ 1.__SIZEOF
 35b0 5f464c4f 41545f5f 2034005f 5f424947  _FLOAT__ 4.__BIG
 35c0 47455354 5f414c49 474e4d45 4e545f5f  GEST_ALIGNMENT__
 35d0 20313600 57494e54 5f4d494e 205f5f57   16.WINT_MIN __W
 35e0 494e545f 4d494e5f 5f005f5f 464c5431  INT_MIN__.__FLT1
 35f0 32385f44 454e4f52 4d5f4d49 4e5f5f20  28_DENORM_MIN__ 
 3600 362e3437 35313735 31313934 33383032  6.47517511943802
 3610 35313130 39323434 33383935 38323237  5110924438958227
 3620 36343635 35652d34 39363646 31323800  64655e-4966F128.
 3630 494e5431 365f4d41 58205f5f 494e5431  INT16_MAX __INT1
 3640 365f4d41 585f5f00 5f5f464c 545f4d49  6_MAX__.__FLT_MI
 3650 4e5f4558 505f5f20 282d3132 3529005f  N_EXP__ (-125)._
 3660 5f53495a 454f465f 464c4f41 54313238  _SIZEOF_FLOAT128
 3670 5f5f2031 36005549 4e545f46 41535436  __ 16.UINT_FAST6
 3680 345f5749 44544820 5f5f494e 545f4641  4_WIDTH __INT_FA
 3690 53543634 5f574944 54485f5f 005f5f44  ST64_WIDTH__.__D
 36a0 45433132 385f4d41 585f5f20 392e3939  EC128_MAX__ 9.99
 36b0 39393939 39393939 39393939 39393939  9999999999999999
 36c0 39393939 39393939 39393939 39393945  999999999999999E
 36d0 36313434 444c005f 5f41544f 4d49435f  6144DL.__ATOMIC_
 36e0 484c455f 41435155 49524520 36353533  HLE_ACQUIRE 6553
 36f0 36007265 73657276 65640055 494e5436  6.reserved.UINT6
 3700 345f5749 44544820 3634005f 5f464c54  4_WIDTH 64.__FLT
 3710 31365f4d 41585f5f 20362e35 35303430  16_MAX__ 6.55040
 3720 30303030 30303030 30303030 30303030  0000000000000000
 3730 30303030 30303030 30303030 3030652b  00000000000000e+
 3740 34463136 00494e54 36345f4d 494e005f  4F16.INT64_MIN._
 3750 5f55494e 545f4c45 41535433 325f4d41  _UINT_LEAST32_MA
 3760 585f5f20 30786666 66666666 66665500  X__ 0xffffffffU.
 3770 50545244 4946465f 57494454 48005f5f  PTRDIFF_WIDTH.__
 3780 464c5433 32585f4d 41585f31 305f4558  FLT32X_MAX_10_EX
 3790 505f5f20 33303800 5f5f5549 4e545054  P__ 308.__UINTPT
 37a0 525f4d41 585f5f20 30786666 66666666  R_MAX__ 0xffffff
 37b0 66665500 5f5f4442 4c5f4841 535f4445  ffU.__DBL_HAS_DE
 37c0 4e4f524d 5f5f2031 005f5f46 4c543136  NORM__ 1.__FLT16
 37d0 5f4d4158 5f31305f 4558505f 5f203400  _MAX_10_EXP__ 4.
 37e0 5f5f464c 54333258 5f4e4f52 4d5f4d41  __FLT32X_NORM_MA
 37f0 585f5f20 312e3739 37363933 31333438  X__ 1.7976931348
 3800 36323331 35373038 31343532 37343233  6231570814527423
 3810 37333137 30343335 37652b33 30384633  731704357e+308F3
 3820 32780055 494e5431 365f4328 6329205f  2x.UINT16_C(c) _
 3830 5f55494e 5431365f 43286329 005f5f46  _UINT16_C(c).__F
 3840 4c543332 5f4d4158 5f31305f 4558505f  LT32_MAX_10_EXP_
 3850 5f203338 0055494e 545f4641 53543136  _ 38.UINT_FAST16
 3860 5f4d4158 005f5f42 464c5431 365f4d49  _MAX.__BFLT16_MI
 3870 4e5f4558 505f5f20 282d3132 3529005f  N_EXP__ (-125)._
 3880 5f494e54 5f4c4541 53543332 5f4d4158  _INT_LEAST32_MAX
 3890 5f5f2030 78376666 66666666 66005549  __ 0x7fffffff.UI
 38a0 4e545f4c 45415354 33325f57 49445448  NT_LEAST32_WIDTH
 38b0 005f5f46 4c543634 5f44454e 4f524d5f  .__FLT64_DENORM_
 38c0 4d494e5f 5f20342e 39343036 35363435  MIN__ 4.94065645
 38d0 38343132 34363534 34313736 35363837  8412465441765687
 38e0 39323836 38323231 33373265 2d333234  92868221372e-324
 38f0 46363400 5f5f4c44 424c5f4d 41585f31  F64.__LDBL_MAX_1
 3900 305f4558 505f5f20 34393332 005f5f44  0_EXP__ 4932.__D
 3910 45433634 5f4d494e 5f5f2031 452d3338  EC64_MIN__ 1E-38
 3920 33444400 5f5f464c 5433325f 4d494e5f  3DD.__FLT32_MIN_
 3930 5f20312e 31373534 39343335 30383232  _ 1.175494350822
 3940 32383735 30373936 38373336 35333732  2875079687365372
 3950 32323234 35363865 2d333846 3332005f  2224568e-38F32._
 3960 5f44424c 5f455053 494c4f4e 5f5f2028  _DBL_EPSILON__ (
 3970 28646f75 626c6529 322e3232 30343436  (double)2.220446
 3980 30343932 35303331 33303830 38343732  0492503130808472
 3990 36333333 36313831 36343036 32652d31  6333618164062e-1
 39a0 364c2900 5f5f5052 41474d41 5f524544  6L).__PRAGMA_RED
 39b0 4546494e 455f4558 544e414d 45203100  EFINE_EXTNAME 1.
 39c0 5f5f5349 475f4154 4f4d4943 5f545950  __SIG_ATOMIC_TYP
 39d0 455f5f20 696e7400 5f5f464c 54363458  E__ int.__FLT64X
 39e0 5f44454e 4f524d5f 4d494e5f 5f20332e  _DENORM_MIN__ 3.
 39f0 36343531 39393533 31383832 34373436  6451995318824746
 3a00 30323532 38343035 39333336 31393431  0252840593361941
 3a10 39383265 2d343935 31463634 78005f5f  982e-4951F64x.__
 3a20 464c5431 32385f48 41535f44 454e4f52  FLT128_HAS_DENOR
 3a30 4d5f5f20 3100494e 545f4c45 41535433  M__ 1.INT_LEAST3
 3a40 325f4d41 58205f5f 494e545f 4c454153  2_MAX __INT_LEAS
 3a50 5433325f 4d41585f 5f005f5f 42464c54  T32_MAX__.__BFLT
 3a60 31365f4d 41585f31 305f4558 505f5f20  16_MAX_10_EXP__ 
 3a70 3338005f 5f44424c 5f444543 494d414c  38.__DBL_DECIMAL
 3a80 5f444947 5f5f2031 37005f5f 4c44424c  _DIG__ 17.__LDBL
 3a90 5f484153 5f44454e 4f524d5f 5f203100  _HAS_DENORM__ 1.
 3aa0 55494e54 5f4c4541 53543136 5f4d4158  UINT_LEAST16_MAX
 3ab0 205f5f55 494e545f 4c454153 5431365f   __UINT_LEAST16_
 3ac0 4d41585f 5f005549 4e545054 525f4d41  MAX__.UINTPTR_MA
 3ad0 5800494e 5433325f 4d494e20 282d494e  X.INT32_MIN (-IN
 3ae0 5433325f 4d415820 2d203129 005f5f44  T32_MAX - 1).__D
 3af0 424c5f44 49475f5f 20313500 5f5f4445  BL_DIG__ 15.__DE
 3b00 4336345f 4d414e54 5f444947 5f5f2031  C64_MANT_DIG__ 1
 3b10 36005f5f 464c545f 4841535f 44454e4f  6.__FLT_HAS_DENO
 3b20 524d5f5f 2031005f 5f494e54 5f464153  RM__ 1.__INT_FAS
 3b30 5436345f 57494454 485f5f20 3634005f  T64_WIDTH__ 64._
 3b40 5f444543 494d414c 5f444947 5f5f2032  _DECIMAL_DIG__ 2
 3b50 31007072 696e745f 696e7400 5f466c6f  1.print_int._Flo
 3b60 61743132 38005f5f 53495a45 5f542000  at128.__SIZE_T .
 3b70 5f425344 5f574348 41525f54 5f00424f  _BSD_WCHAR_T_.BO
 3b80 4f545f55 54494c5f 4820005f 545f5349  OT_UTIL_H ._T_SI
 3b90 5a452000 5f545f53 495a455f 20005f57  ZE ._T_SIZE_ ._W
 3ba0 43484152 5f545f44 4546494e 45445f20  CHAR_T_DEFINED_ 
 3bb0 005f4253 445f5349 5a455f54 5f20005f  ._BSD_SIZE_T_ ._
 3bc0 4743435f 57434841 525f5420 005f5f44  GCC_WCHAR_T .__D
 3bd0 4546494e 45445f70 74726469 66665f74  EFINED_ptrdiff_t
 3be0 20005f42 53445f53 495a455f 545f4445   ._BSD_SIZE_T_DE
 3bf0 46494e45 445f2000 5f5f6e65 65645f4e  FINED_ .__need_N
 3c00 554c4c00 5f474343 5f53495a 455f5420  ULL._GCC_SIZE_T 
 3c10 005f5f53 5444435f 56455253 494f4e5f  .__STDC_VERSION_
 3c20 53544444 45465f48 5f5f2032 30323331  STDDEF_H__ 20231
 3c30 314c005f 5f505452 44494646 5f542000  1L.__PTRDIFF_T .
 3c40 6f666673 6574005f 5f776368 61725f74  offset.__wchar_t
 3c50 5f5f2000 5f53495a 455f545f 44454649  __ ._SIZE_T_DEFI
 3c60 4e454420 005f5f6e 6565645f 70747264  NED .__need_ptrd
 3c70 6966665f 74005f5f 53495a45 5f545f5f  iff_t.__SIZE_T__
 3c80 20005354 525f434f 4c4f5552 20307831   .STR_COLOUR 0x1
 3c90 46005f53 495a4554 5f20005f 5f5f696e  F._SIZET_ .___in
 3ca0 745f7074 72646966 665f745f 6820005f  t_ptrdiff_t_h ._
 3cb0 5f6e6565 645f7763 6861725f 74005f5f  _need_wchar_t.__
 3cc0 44454649 4e45445f 77636861 725f7420  DEFINED_wchar_t 
 3cd0 005f5f57 43484152 5f545f5f 20005f5f  .__WCHAR_T__ .__
 3ce0 57434841 525f5420 005f5f73 697a655f  WCHAR_T .__size_
 3cf0 7420005f 4743435f 4e554c4c 5054525f  t ._GCC_NULLPTR_
 3d00 54200076 67615f6d 656d005f 57434841  T .vga_mem._WCHA
 3d10 525f545f 44454649 4e454420 005f5054  R_T_DEFINED ._PT
 3d20 52444946 465f545f 4445434c 41524544  RDIFF_T_DECLARED
 3d30 20007072 696e745f 63737472 005f4253   .print_cstr._BS
 3d40 445f5054 52444946 465f545f 20005f5f  D_PTRDIFF_T_ .__
 3d50 5f696e74 5f73697a 655f745f 6820006c  _int_size_t_h .l
 3d60 6f6e6720 646f7562 6c65005f 5f6e6565  ong double.__nee
 3d70 645f7369 7a655f74 005f5f5f 696e745f  d_size_t.___int_
 3d80 77636861 725f745f 6820005f 545f5743  wchar_t_h ._T_WC
 3d90 4841525f 20005f5f 494e545f 57434841  HAR_ .__INT_WCHA
 3da0 525f545f 4820005f 57434841 525f545f  R_T_H ._WCHAR_T_
 3db0 4445434c 41524544 2000756e 72656163  DECLARED .unreac
 3dc0 6861626c 65282920 285f5f62 75696c74  hable() (__built
 3dd0 696e5f75 6e726561 63686162 6c652028  in_unreachable (
 3de0 2929005f 5f444546 494e4544 5f73697a  )).__DEFINED_siz
 3df0 655f7420 005f5359 535f5349 5a455f54  e_t ._SYS_SIZE_T
 3e00 5f482000 5f474343 5f505452 44494646  _H ._GCC_PTRDIFF
 3e10 5f542000 6f666673 65746f66 006f6666  _T .offsetof.off
 3e20 7365746f 66285459 50452c4d 454d4245  setof(TYPE,MEMBE
 3e30 5229205f 5f627569 6c74696e 5f6f6666  R) __builtin_off
 3e40 7365746f 66202854 5950452c 204d454d  setof (TYPE, MEM
 3e50 42455229 005f545f 57434841 5220004e  BER)._T_WCHAR .N
 3e60 554c4c20 2828766f 6964202a 29302900  ULL ((void *)0).
 3e70 5f425344 5f574348 41525f54 5f20005f  _BSD_WCHAR_T_ ._
 3e80 545f5054 52444946 465f2000 5f535444  T_PTRDIFF_ ._STD
 3e90 4445465f 485f2000 5f53495a 455f545f  DEF_H_ ._SIZE_T_
 3ea0 4445434c 41524544 20005f54 5f505452  DECLARED ._T_PTR
 3eb0 44494646 20005f47 43435f4d 41585f41  DIFF ._GCC_MAX_A
 3ec0 4c49474e 5f542000 5f414e53 495f5354  LIGN_T ._ANSI_ST
 3ed0 44444546 5f482000 5f5f7369 7a655f74  DDEF_H .__size_t
 3ee0 5f5f2000 6c696d69 7400696e 69745f69  __ .limit.init_i
 3ef0 64740069 6e76616c 69645f6f 70636f64  dt.invalid_opcod
 3f00 65006d61 696e0069 64745f65 6e747269  e.main.idt_entri
 3f10 65730069 64745f64 65736300           es.idt_desc.    
Contents of section .debug_line_str:
 0000 2f686f6d 652f6162 6861792f 4261636f  /home/abhay/Baco
 0010 6e2f7372 632f626f 6f746c6f 61646572  n/src/bootloader
 0020 2f737461 67652d31 2e350069 64742e63  /stage-1.5.idt.c
 0030 002f7573 722f6c69 622f6763 632f7838  ./usr/lib/gcc/x8
 0040 365f3634 2d70632d 6c696e75 782d676e  6_64-pc-linux-gn
 0050 752f3134 2e322e31 2f696e63 6c756465  u/14.2.1/include
 0060 00737464 696e742d 6763632e 68006964  .stdint-gcc.h.id
 0070 742e6800 73746469 6e742e68 00757469  t.h.stdint.h.uti
 0080 6c2e6300 73746464 65662e68 00757469  l.c.stddef.h.uti
 0090 6c2e6800 70726f74 65637465 642d656e  l.h.protected-en
 00a0 7472792e 6300                        try.c.          
Contents of section .comment:
 0000 4743433a 2028474e 55292031 342e322e  GCC: (GNU) 14.2.
 0010 31203230 32353032 303700             1 20250207.     

Disassembly of section .text:

00008035 <code>:
    8035:	66 90                	xchg   ax,ax
    8037:	66 90                	xchg   ax,ax
    8039:	66 90                	xchg   ax,ax
    803b:	66 90                	xchg   ax,ax
    803d:	66 90                	xchg   ax,ax
    803f:	90                   	nop

00008040 <main>:
  register_int(idt_entries, 16, 0xe, invalid_opcode);
  asm volatile("lidt %[idtr]\n" : : [idtr] "m"(desc));
  asm volatile("sti\n" :);
}

int main(void) {
    8040:	8d 4c 24 04          	lea    ecx,[esp+0x4]
    8044:	83 e4 f0             	and    esp,0xfffffff0
    8047:	ff 71 fc             	push   DWORD PTR [ecx-0x4]
    804a:	55                   	push   ebp
    804b:	89 e5                	mov    ebp,esp
    804d:	51                   	push   ecx
    804e:	83 ec 0c             	sub    esp,0xc
  //init_idt();
  //print_int((uint32_t)main, 0);

  print_cstr("Hello", 0);
    8051:	6a 00                	push   0x0
    8053:	68 a6 83 00 00       	push   0x83a6
    8058:	e8 73 00 00 00       	call   80d0 <print_cstr>
    805d:	83 c4 10             	add    esp,0x10
  for (;;)
    8060:	eb fe                	jmp    8060 <main+0x20>
    8062:	66 90                	xchg   ax,ax
    8064:	66 90                	xchg   ax,ax
    8066:	66 90                	xchg   ax,ax
    8068:	66 90                	xchg   ax,ax
    806a:	66 90                	xchg   ax,ax
    806c:	66 90                	xchg   ax,ax
    806e:	66 90                	xchg   ax,ax

00008070 <register_int>:
#include "idt.h"

#define CODE_SEGMENT_OFFSET ((uint16_t)8)

void register_int(struct idt_entry *entries, uint32_t entry, uint8_t gate_type,
                  void (*handler)()) {
    8070:	57                   	push   edi
    8071:	56                   	push   esi
    8072:	53                   	push   ebx
  struct idt_entry *e = &entries[entry];
    8073:	8b 44 24 14          	mov    eax,DWORD PTR [esp+0x14]
                  void (*handler)()) {
    8077:	8b 5c 24 18          	mov    ebx,DWORD PTR [esp+0x18]
  e->reserved = 0;

  e->present = 1;
  asm volatile(
    807b:	8b 74 24 1c          	mov    esi,DWORD PTR [esp+0x1c]
  struct idt_entry *e = &entries[entry];
    807f:	8d 14 c5 00 00 00 00 	lea    edx,[eax*8+0x0]
    8086:	03 54 24 10          	add    edx,DWORD PTR [esp+0x10]
  e->reserved = 0;
    808a:	0f b7 42 04          	movzx  eax,WORD PTR [edx+0x4]
    808e:	66 25 00 7f          	and    ax,0x7f00
    8092:	66 0d 00 80          	or     ax,0x8000
    8096:	66 89 42 04          	mov    WORD PTR [edx+0x4],ax
    809a:	0f b6 cc             	movzx  ecx,ah
  asm volatile(
    809d:	89 f0                	mov    eax,esi
    809f:	66 89 c6             	mov    si,ax
    80a2:	c1 e8 10             	shr    eax,0x10
    80a5:	66 89 c7             	mov    di,ax
    "mov %[offset_high], ax\n"
    : [offset_low] "=r"(e->offset_low), [offset_high] "=r"(e->offset_high)
    : [ptr] "r"(handler)
    : "eax", "ax");
  e->segment = 0 | (CODE_SEGMENT_OFFSET << 3);
  e->gate_type = gate_type;
    80a8:	83 e3 0f             	and    ebx,0xf
    80ab:	83 e1 90             	and    ecx,0xffffff90
  e->segment = 0 | (CODE_SEGMENT_OFFSET << 3);
    80ae:	b8 40 00 00 00       	mov    eax,0x40
  asm volatile(
    80b3:	66 89 32             	mov    WORD PTR [edx],si
  e->gate_type = gate_type;
    80b6:	09 d9                	or     ecx,ebx
  asm volatile(
    80b8:	66 89 7a 06          	mov    WORD PTR [edx+0x6],di
  e->segment = 0 | (CODE_SEGMENT_OFFSET << 3);
    80bc:	66 89 42 02          	mov    WORD PTR [edx+0x2],ax
  e->gate_type = gate_type;
    80c0:	88 4a 05             	mov    BYTE PTR [edx+0x5],cl
  e->privilege = 0;
}
    80c3:	5b                   	pop    ebx
    80c4:	5e                   	pop    esi
    80c5:	5f                   	pop    edi
    80c6:	c3                   	ret
    80c7:	66 90                	xchg   ax,ax
    80c9:	66 90                	xchg   ax,ax
    80cb:	66 90                	xchg   ax,ax
    80cd:	66 90                	xchg   ax,ax
    80cf:	90                   	nop

000080d0 <print_cstr>:

#define STR_COLOUR 0x1F

static volatile char *vga_mem = (char *)0xb8000;

int print_cstr(const char *str, uint32_t offset) {
    80d0:	83 ec 30             	sub    esp,0x30
    80d3:	8b 44 24 34          	mov    eax,DWORD PTR [esp+0x34]
  volatile uint32_t i = offset * 2; // Since each character requires 2 bytes
    80d7:	8b 4c 24 38          	mov    ecx,DWORD PTR [esp+0x38]

  if (*str == 0) {
    80db:	80 38 00             	cmp    BYTE PTR [eax],0x0
  volatile uint32_t i = offset * 2; // Since each character requires 2 bytes
    80de:	8d 14 09             	lea    edx,[ecx+ecx*1]
    80e1:	89 54 24 04          	mov    DWORD PTR [esp+0x4],edx
  if (*str == 0) {
    80e5:	75 21                	jne    8108 <print_cstr+0x38>
    volatile int a[10] = { 0 };
    80e7:	66 0f ef c0          	pxor   xmm0,xmm0
    80eb:	0f 11 44 24 08       	movups XMMWORD PTR [esp+0x8],xmm0
    80f0:	0f 11 44 24 18       	movups XMMWORD PTR [esp+0x18],xmm0
    80f5:	0f 11 44 24 20       	movups XMMWORD PTR [esp+0x20],xmm0
    //vga_mem[i++] = *str;
    //vga_mem[i++] = STR_COLOUR;
    str++;
  }

  return i;
    80fa:	8b 44 24 04          	mov    eax,DWORD PTR [esp+0x4]
}
    80fe:	83 c4 30             	add    esp,0x30
    8101:	c3                   	ret
    8102:	8d b6 00 00 00 00    	lea    esi,[esi+0x0]
    volatile char tmp = vga_mem[i];
    8108:	8b 54 24 04          	mov    edx,DWORD PTR [esp+0x4]
    810c:	0f b6 92 00 80 0b 00 	movzx  edx,BYTE PTR [edx+0xb8000]
    8113:	88 54 24 03          	mov    BYTE PTR [esp+0x3],dl
    vga_mem[i] = tmp;
    8117:	8b 54 24 04          	mov    edx,DWORD PTR [esp+0x4]
    811b:	0f b6 4c 24 03       	movzx  ecx,BYTE PTR [esp+0x3]
    8120:	88 8a 00 80 0b 00    	mov    BYTE PTR [edx+0xb8000],cl
    asm volatile("mov [0xb8000 + %[i]], %[chr]\n"
    8126:	8b 54 24 04          	mov    edx,DWORD PTR [esp+0x4]
    812a:	0f b6 08             	movzx  ecx,BYTE PTR [eax]
    812d:	88 8a 00 80 0b 00    	mov    BYTE PTR [edx+0xb8000],cl
    8133:	c6 82 01 80 0b 00 1f 	mov    BYTE PTR [edx+0xb8001],0x1f
    i += 2;
    813a:	8b 54 24 04          	mov    edx,DWORD PTR [esp+0x4]
    str++;
    813e:	83 c0 01             	add    eax,0x1
    i += 2;
    8141:	83 c2 02             	add    edx,0x2
  while (*str) {
    8144:	80 38 00             	cmp    BYTE PTR [eax],0x0
    i += 2;
    8147:	89 54 24 04          	mov    DWORD PTR [esp+0x4],edx
  while (*str) {
    814b:	75 bb                	jne    8108 <print_cstr+0x38>
    814d:	eb ab                	jmp    80fa <print_cstr+0x2a>
    814f:	90                   	nop

00008150 <print_int>:

void print_int(uint32_t n, uint32_t offset) {
    8150:	57                   	push   edi
    8151:	56                   	push   esi
    8152:	53                   	push   ebx
    8153:	83 ec 30             	sub    esp,0x30
    8156:	8b 4c 24 40          	mov    ecx,DWORD PTR [esp+0x40]
  char *buf = NULL;
  asm volatile("xor ax, ax\n"
    815a:	66 31 c0             	xor    ax,ax
    815d:	66 50                	push   ax
    815f:	83 c4 01             	add    esp,0x1
               :
               :
               : "eax");

  uint32_t i = 0;
  while (n) {
    8162:	85 c9                	test   ecx,ecx
    8164:	0f 84 c6 00 00 00    	je     8230 <print_int+0xe0>
  uint32_t i = 0;
    816a:	31 f6                	xor    esi,esi
    char d = n % 10 + '0';
    816c:	bf cd cc cc cc       	mov    edi,0xcccccccd
    8171:	2e 8d b4 26 00 00 00 	lea    esi,cs:[esi+eiz*1+0x0]
    8178:	00 
    8179:	8d b4 26 00 00 00 00 	lea    esi,[esi+eiz*1+0x0]
    8180:	89 c8                	mov    eax,ecx
    8182:	89 cb                	mov    ebx,ecx
    8184:	f7 e7                	mul    edi
    8186:	c1 ea 03             	shr    edx,0x3
    8189:	8d 04 92             	lea    eax,[edx+edx*4]
    818c:	01 c0                	add    eax,eax
    818e:	29 c3                	sub    ebx,eax
    8190:	83 c3 30             	add    ebx,0x30

    asm volatile("xor ax, ax\n"
    8193:	66 31 c0             	xor    ax,ax
    8196:	88 d8                	mov    al,bl
    8198:	66 c1 e0 08          	shl    ax,0x8
    819c:	66 50                	push   ax
    819e:	83 c4 01             	add    esp,0x1
                 "add esp, 1"
                 :
                 : [digit] "q"(d)
                 : "ax", "al");

    n /= 10;
    81a1:	89 cb                	mov    ebx,ecx
    81a3:	89 f0                	mov    eax,esi
    81a5:	89 d1                	mov    ecx,edx
    i++;
    81a7:	83 c6 01             	add    esi,0x1
  while (n) {
    81aa:	83 fb 09             	cmp    ebx,0x9
    81ad:	77 d1                	ja     8180 <print_int+0x30>
  }

  i++;
    81af:	83 c0 02             	add    eax,0x2
  asm volatile("mov %[buf], esp\n"
    81b2:	89 e0                	mov    eax,esp
    81b4:	01 c4                	add    esp,eax
  volatile uint32_t i = offset * 2; // Since each character requires 2 bytes
    81b6:	8b 7c 24 44          	mov    edi,DWORD PTR [esp+0x44]
  if (*str == 0) {
    81ba:	80 38 00             	cmp    BYTE PTR [eax],0x0
  volatile uint32_t i = offset * 2; // Since each character requires 2 bytes
    81bd:	8d 14 3f             	lea    edx,[edi+edi*1]
    81c0:	89 54 24 04          	mov    DWORD PTR [esp+0x4],edx
  if (*str == 0) {
    81c4:	75 22                	jne    81e8 <print_int+0x98>
    volatile int a[10] = { 0 };
    81c6:	66 0f ef c0          	pxor   xmm0,xmm0
    81ca:	0f 11 44 24 08       	movups XMMWORD PTR [esp+0x8],xmm0
    81cf:	0f 11 44 24 18       	movups XMMWORD PTR [esp+0x18],xmm0
    81d4:	0f 11 44 24 20       	movups XMMWORD PTR [esp+0x20],xmm0
  return i;
    81d9:	8b 44 24 04          	mov    eax,DWORD PTR [esp+0x4]
               "add esp, %[count]\n"
               : [buf] "=r"(buf)
               : [count] "r"(i));

  print_cstr(buf, offset);
}
    81dd:	83 c4 30             	add    esp,0x30
    81e0:	5b                   	pop    ebx
    81e1:	5e                   	pop    esi
    81e2:	5f                   	pop    edi
    81e3:	c3                   	ret
    81e4:	8d 74 26 00          	lea    esi,[esi+eiz*1+0x0]
    volatile char tmp = vga_mem[i];
    81e8:	8b 54 24 04          	mov    edx,DWORD PTR [esp+0x4]
    81ec:	0f b6 92 00 80 0b 00 	movzx  edx,BYTE PTR [edx+0xb8000]
    81f3:	88 54 24 03          	mov    BYTE PTR [esp+0x3],dl
    vga_mem[i] = tmp;
    81f7:	8b 54 24 04          	mov    edx,DWORD PTR [esp+0x4]
    81fb:	0f b6 4c 24 03       	movzx  ecx,BYTE PTR [esp+0x3]
    8200:	88 8a 00 80 0b 00    	mov    BYTE PTR [edx+0xb8000],cl
    asm volatile("mov [0xb8000 + %[i]], %[chr]\n"
    8206:	8b 54 24 04          	mov    edx,DWORD PTR [esp+0x4]
    820a:	0f b6 08             	movzx  ecx,BYTE PTR [eax]
    820d:	88 8a 00 80 0b 00    	mov    BYTE PTR [edx+0xb8000],cl
    8213:	c6 82 01 80 0b 00 1f 	mov    BYTE PTR [edx+0xb8001],0x1f
    i += 2;
    821a:	8b 54 24 04          	mov    edx,DWORD PTR [esp+0x4]
    str++;
    821e:	83 c0 01             	add    eax,0x1
    i += 2;
    8221:	83 c2 02             	add    edx,0x2
  while (*str) {
    8224:	80 38 00             	cmp    BYTE PTR [eax],0x0
    i += 2;
    8227:	89 54 24 04          	mov    DWORD PTR [esp+0x4],edx
  while (*str) {
    822b:	75 bb                	jne    81e8 <print_int+0x98>
    822d:	eb aa                	jmp    81d9 <print_int+0x89>
    822f:	90                   	nop
  while (n) {
    8230:	b8 01 00 00 00       	mov    eax,0x1
    8235:	e9 78 ff ff ff       	jmp    81b2 <print_int+0x62>
    823a:	66 90                	xchg   ax,ax
    823c:	66 90                	xchg   ax,ax
    823e:	66 90                	xchg   ax,ax

00008240 <invalid_opcode>:
__attribute__((noreturn)) void invalid_opcode(void) {
    8240:	83 ec 14             	sub    esp,0x14
  print_cstr("You done fucked up, lol!     ", 0);
    8243:	6a 00                	push   0x0
    8245:	68 88 83 00 00       	push   0x8388
    824a:	e8 81 fe ff ff       	call   80d0 <print_cstr>
  asm volatile("cli\n"
    824f:	fa                   	cli
    8250:	f4                   	hlt
    8251:	83 c4 10             	add    esp,0x10
  for (;;)
    8254:	eb fe                	jmp    8254 <invalid_opcode+0x14>
    8256:	66 90                	xchg   ax,ax
    8258:	66 90                	xchg   ax,ax
    825a:	66 90                	xchg   ax,ax
    825c:	66 90                	xchg   ax,ax
    825e:	66 90                	xchg   ax,ax

00008260 <init_idt>:
void init_idt(void) {
    8260:	83 ec 0c             	sub    esp,0xc
  register_int(idt_entries, 16, 0xe, invalid_opcode);
    8263:	68 40 82 00 00       	push   0x8240
    8268:	6a 0e                	push   0xe
    826a:	6a 10                	push   0x10
    826c:	68 e0 83 00 00       	push   0x83e0
    8271:	e8 fa fd ff ff       	call   8070 <register_int>
  asm volatile("lidt %[idtr]\n" : : [idtr] "m"(desc));
    8276:	0f 01 1d d4 83 00 00 	lidtd  ds:0x83d4
  asm volatile("sti\n" :);
    827d:	fb                   	sti
}
    827e:	83 c4 1c             	add    esp,0x1c
    8281:	c3                   	ret

Disassembly of section .eh_frame:

00008284 <.eh_frame>:
    8284:	14 00                	adc    al,0x0
    8286:	00 00                	add    BYTE PTR [eax],al
    8288:	00 00                	add    BYTE PTR [eax],al
    828a:	00 00                	add    BYTE PTR [eax],al
    828c:	01 7a 52             	add    DWORD PTR [edx+0x52],edi
    828f:	00 01                	add    BYTE PTR [ecx],al
    8291:	7c 08                	jl     829b <init_idt+0x3b>
    8293:	01 1b                	add    DWORD PTR [ebx],ebx
    8295:	0c 04                	or     al,0x4
    8297:	04 88                	add    al,0x88
    8299:	01 00                	add    DWORD PTR [eax],eax
    829b:	00 2c 00             	add    BYTE PTR [eax+eax*1],ch
    829e:	00 00                	add    BYTE PTR [eax],al
    82a0:	1c 00                	sbb    al,0x0
    82a2:	00 00                	add    BYTE PTR [eax],al
    82a4:	cc                   	int3
    82a5:	fd                   	std
    82a6:	ff                   	(bad)
    82a7:	ff 57 00             	call   DWORD PTR [edi+0x0]
    82aa:	00 00                	add    BYTE PTR [eax],al
    82ac:	00 41 0e             	add    BYTE PTR [ecx+0xe],al
    82af:	08 87 02 41 0e 0c    	or     BYTE PTR [edi+0xc0e4102],al
    82b5:	86 03                	xchg   BYTE PTR [ebx],al
    82b7:	41                   	inc    ecx
    82b8:	0e                   	push   cs
    82b9:	10 83 04 02 51 c3    	adc    BYTE PTR [ebx-0x3caefdfc],al
    82bf:	0e                   	push   cs
    82c0:	0c 41                	or     al,0x41
    82c2:	c6                   	(bad)
    82c3:	0e                   	push   cs
    82c4:	08 41 c7             	or     BYTE PTR [ecx-0x39],al
    82c7:	0e                   	push   cs
    82c8:	04 00                	add    al,0x0
    82ca:	00 00                	add    BYTE PTR [eax],al
    82cc:	18 00                	sbb    BYTE PTR [eax],al
    82ce:	00 00                	add    BYTE PTR [eax],al
    82d0:	4c                   	dec    esp
    82d1:	00 00                	add    BYTE PTR [eax],al
    82d3:	00 fc                	add    ah,bh
    82d5:	fd                   	std
    82d6:	ff                   	(bad)
    82d7:	ff                   	(bad)
    82d8:	7f 00                	jg     82da <init_idt+0x7a>
    82da:	00 00                	add    BYTE PTR [eax],al
    82dc:	00 43 0e             	add    BYTE PTR [ebx+0xe],al
    82df:	34 6e                	xor    al,0x6e
    82e1:	0a 0e                	or     cl,BYTE PTR [esi]
    82e3:	04 47                	add    al,0x47
    82e5:	0b 00                	or     eax,DWORD PTR [eax]
    82e7:	00 34 00             	add    BYTE PTR [eax+eax*1],dh
    82ea:	00 00                	add    BYTE PTR [eax],al
    82ec:	68 00 00 00 60       	push   0x60000000
    82f1:	fe                   	(bad)
    82f2:	ff                   	(bad)
    82f3:	ff                   	jmp    (bad)
    82f4:	ea 00 00 00 00 41 0e 	jmp    0xe41:0x0
    82fb:	08 87 02 41 0e 0c    	or     BYTE PTR [edi+0xc0e4102],al
    8301:	86 03                	xchg   BYTE PTR [ebx],al
    8303:	41                   	inc    ecx
    8304:	0e                   	push   cs
    8305:	10 83 04 43 0e 40    	adc    BYTE PTR [ebx+0x400e4304],al
    830b:	02 8a 0a 0e 10 41    	add    cl,BYTE PTR [edx+0x41100e0a]
    8311:	c3                   	ret
    8312:	0e                   	push   cs
    8313:	0c 41                	or     al,0x41
    8315:	c6                   	(bad)
    8316:	0e                   	push   cs
    8317:	08 41 c7             	or     BYTE PTR [ecx-0x39],al
    831a:	0e                   	push   cs
    831b:	04 45                	add    al,0x45
    831d:	0b 00                	or     eax,DWORD PTR [eax]
    831f:	00 1c 00             	add    BYTE PTR [eax+eax*1],bl
    8322:	00 00                	add    BYTE PTR [eax],al
    8324:	a0 00 00 00 18       	mov    al,ds:0x18000000
    8329:	ff                   	(bad)
    832a:	ff                   	(bad)
    832b:	ff 16                	call   DWORD PTR [esi]
    832d:	00 00                	add    BYTE PTR [eax],al
    832f:	00 00                	add    BYTE PTR [eax],al
    8331:	43                   	inc    ebx
    8332:	0e                   	push   cs
    8333:	18 42 0e             	sbb    BYTE PTR [edx+0xe],al
    8336:	1c 45                	sbb    al,0x45
    8338:	0e                   	push   cs
    8339:	20 4a 0e             	and    BYTE PTR [edx+0xe],cl
    833c:	10 00                	adc    BYTE PTR [eax],al
    833e:	00 00                	add    BYTE PTR [eax],al
    8340:	20 00                	and    BYTE PTR [eax],al
    8342:	00 00                	add    BYTE PTR [eax],al
    8344:	c0 00 00             	rol    BYTE PTR [eax],0x0
    8347:	00 18                	add    BYTE PTR [eax],bl
    8349:	ff                   	(bad)
    834a:	ff                   	(bad)
    834b:	ff 22                	jmp    DWORD PTR [edx]
    834d:	00 00                	add    BYTE PTR [eax],al
    834f:	00 00                	add    BYTE PTR [eax],al
    8351:	43                   	inc    ebx
    8352:	0e                   	push   cs
    8353:	10 45 0e             	adc    BYTE PTR [ebp+0xe],al
    8356:	14 42                	adc    al,0x42
    8358:	0e                   	push   cs
    8359:	18 42 0e             	sbb    BYTE PTR [edx+0xe],al
    835c:	1c 45                	sbb    al,0x45
    835e:	0e                   	push   cs
    835f:	20 50 0e             	and    BYTE PTR [eax+0xe],dl
    8362:	04 00                	add    al,0x0
    8364:	20 00                	and    BYTE PTR [eax],al
    8366:	00 00                	add    BYTE PTR [eax],al
    8368:	e4 00                	in     al,0x0
    836a:	00 00                	add    BYTE PTR [eax],al
    836c:	d4 fc                	aam    0xfc
    836e:	ff                   	(bad)
    836f:	ff 22                	jmp    DWORD PTR [edx]
    8371:	00 00                	add    BYTE PTR [eax],al
    8373:	00 00                	add    BYTE PTR [eax],al
    8375:	44                   	inc    esp
    8376:	0c 01                	or     al,0x1
    8378:	00 49 10             	add    BYTE PTR [ecx+0x10],cl
    837b:	05 02 75 00 41       	add    eax,0x41007502
    8380:	0f 03 75 7c          	lsl    esi,WORD PTR [ebp+0x7c]
    8384:	06                   	push   es
    8385:	00 00                	add    BYTE PTR [eax],al
	...

Disassembly of section .rodata.str1.1:

00008388 <.rodata.str1.1>:
    8388:	59                   	pop    ecx
    8389:	6f                   	outs   dx,DWORD PTR ds:[esi]
    838a:	75 20                	jne    83ac <init_idt+0x14c>
    838c:	64 6f                	outs   dx,DWORD PTR fs:[esi]
    838e:	6e                   	outs   dx,BYTE PTR ds:[esi]
    838f:	65 20 66 75          	and    BYTE PTR gs:[esi+0x75],ah
    8393:	63 6b 65             	arpl   WORD PTR [ebx+0x65],ebp
    8396:	64 20 75 70          	and    BYTE PTR fs:[ebp+0x70],dh
    839a:	2c 20                	sub    al,0x20
    839c:	6c                   	ins    BYTE PTR es:[edi],dx
    839d:	6f                   	outs   dx,DWORD PTR ds:[esi]
    839e:	6c                   	ins    BYTE PTR es:[edi],dx
    839f:	21 20                	and    DWORD PTR [eax],esp
    83a1:	20 20                	and    BYTE PTR [eax],ah
    83a3:	20 20                	and    BYTE PTR [eax],ah
    83a5:	00 48 65             	add    BYTE PTR [eax+0x65],cl
    83a8:	6c                   	ins    BYTE PTR es:[edi],dx
    83a9:	6c                   	ins    BYTE PTR es:[edi],dx
    83aa:	6f                   	outs   dx,DWORD PTR ds:[esi]
	...

Disassembly of section .note.gnu.property:

000083ac <.note.gnu.property>:
    83ac:	04 00                	add    al,0x0
    83ae:	00 00                	add    BYTE PTR [eax],al
    83b0:	18 00                	sbb    BYTE PTR [eax],al
    83b2:	00 00                	add    BYTE PTR [eax],al
    83b4:	05 00 00 00 47       	add    eax,0x47000000
    83b9:	4e                   	dec    esi
    83ba:	55                   	push   ebp
    83bb:	00 01                	add    BYTE PTR [ecx],al
    83bd:	00 01                	add    BYTE PTR [ecx],al
    83bf:	c0 04 00 00          	rol    BYTE PTR [eax+eax*1],0x0
    83c3:	00 09                	add    BYTE PTR [ecx],cl
    83c5:	00 00                	add    BYTE PTR [eax],al
    83c7:	00 02                	add    BYTE PTR [edx],al
    83c9:	00 01                	add    BYTE PTR [ecx],al
    83cb:	c0 04 00 00          	rol    BYTE PTR [eax+eax*1],0x0
    83cf:	00 01                	add    BYTE PTR [ecx],al
    83d1:	00 00                	add    BYTE PTR [eax],al
	...

Disassembly of section .data:

000083d4 <desc>:
    83d4:	07                   	pop    es
    83d5:	00 e0                	add    al,ah
    83d7:	83 00 00             	add    DWORD PTR [eax],0x0

Disassembly of section .debug_info:

00000000 <.debug_info>:
   0:	4e                   	dec    esi
   1:	01 00                	add    DWORD PTR [eax],eax
   3:	00 05 00 01 04 00    	add    BYTE PTR ds:0x40100,al
   9:	00 00                	add    BYTE PTR [eax],al
   b:	00 07                	add    BYTE PTR [edi],al
   d:	b6 01                	mov    dh,0x1
   f:	00 00                	add    BYTE PTR [eax],al
  11:	1d 2b 00 00 00       	sbb    eax,0x2b
  16:	00 00                	add    BYTE PTR [eax],al
  18:	00 00                	add    BYTE PTR [eax],al
  1a:	0c 00                	or     al,0x0
	...
  28:	00 00                	add    BYTE PTR [eax],al
  2a:	01 01                	add    DWORD PTR [ecx],eax
  2c:	06                   	push   es
  2d:	67 29 00             	sub    DWORD PTR [bx+si],eax
  30:	00 01                	add    BYTE PTR [ecx],al
  32:	02 05 f3 07 00 00    	add    al,BYTE PTR ds:0x7f3
  38:	08 04 05 69 6e 74 00 	or     BYTE PTR [eax*1+0x746e69],al
  3f:	01 08                	add    DWORD PTR [eax],ecx
  41:	05 b3 15 00 00       	add    eax,0x15b3
  46:	04 b1                	add    al,0xb1
  48:	19 00                	sbb    DWORD PTR [eax],eax
  4a:	00 2e                	add    BYTE PTR [esi],ch
  4c:	18 51 00             	sbb    BYTE PTR [ecx+0x0],dl
  4f:	00 00                	add    BYTE PTR [eax],al
  51:	01 01                	add    DWORD PTR [ecx],eax
  53:	08 99 29 00 00 04    	or     BYTE PTR [ecx+0x4000029],bl
  59:	67 24 00             	addr16 and al,0x0
  5c:	00 31                	add    BYTE PTR [ecx],dh
  5e:	19 63 00             	sbb    DWORD PTR [ebx+0x0],esp
  61:	00 00                	add    BYTE PTR [eax],al
  63:	01 02                	add    DWORD PTR [edx],eax
  65:	07                   	pop    es
  66:	4c                   	dec    esp
  67:	06                   	push   es
  68:	00 00                	add    BYTE PTR [eax],al
  6a:	04 48                	add    al,0x48
  6c:	0c 00                	or     al,0x0
  6e:	00 34 19             	add    BYTE PTR [ecx+ebx*1],dh
  71:	75 00                	jne    73 <code-0x7fc2>
  73:	00 00                	add    BYTE PTR [eax],al
  75:	01 04 07             	add    DWORD PTR [edi+eax*1],eax
  78:	ec                   	in     al,dx
  79:	27                   	daa
  7a:	00 00                	add    BYTE PTR [eax],al
  7c:	01 08                	add    DWORD PTR [eax],ecx
  7e:	07                   	pop    es
  7f:	23 35 00 00 09 33    	and    esi,DWORD PTR ds:0x33090000
  85:	22 00                	and    al,BYTE PTR [eax]
  87:	00 08                	add    BYTE PTR [eax],cl
  89:	03 0b                	add    ecx,DWORD PTR [ebx]
  8b:	08 e5                	or     ch,ah
  8d:	00 00                	add    BYTE PTR [eax],al
  8f:	00 02                	add    BYTE PTR [edx],al
  91:	e6 29                	out    0x29,al
  93:	00 00                	add    BYTE PTR [eax],al
  95:	0c 0c                	or     al,0xc
  97:	58                   	pop    eax
  98:	00 00                	add    BYTE PTR [eax],al
  9a:	00 00                	add    BYTE PTR [eax],al
  9c:	02 2f                	add    ch,BYTE PTR [edi]
  9e:	08 00                	or     BYTE PTR [eax],al
  a0:	00 0d 0c 58 00 00    	add    BYTE PTR ds:0x580c,cl
  a6:	00 02                	add    BYTE PTR [edx],al
  a8:	02 f2                	add    dh,dl
  aa:	36 00 00             	add    BYTE PTR ss:[eax],al
  ad:	0f 0b                	ud2
  af:	46                   	inc    esi
  b0:	00 00                	add    BYTE PTR [eax],al
  b2:	00 04 05 d6 33 00 00 	add    BYTE PTR [eax*1+0x33d6],al
  b9:	11 46 00             	adc    DWORD PTR [esi+0x0],eax
  bc:	00 00                	add    BYTE PTR [eax],al
  be:	04 28                	add    al,0x28
  c0:	05 ee 06 00 00       	add    eax,0x6ee
  c5:	13 46 00             	adc    eax,DWORD PTR [esi+0x0]
  c8:	00 00                	add    BYTE PTR [eax],al
  ca:	02 2d 05 9e 33 00    	add    ch,BYTE PTR ds:0x339e05
  d0:	00 14 46             	add    BYTE PTR [esi+eax*2],dl
  d3:	00 00                	add    BYTE PTR [eax],al
  d5:	00 01                	add    BYTE PTR [ecx],al
  d7:	2f                   	das
  d8:	02 10                	add    dl,BYTE PTR [eax]
  da:	2d 00 00 16 0c       	sub    eax,0xc160000
  df:	58                   	pop    eax
  e0:	00 00                	add    BYTE PTR [eax],al
  e2:	00 06                	add    BYTE PTR [esi],al
  e4:	00 0a                	add    BYTE PTR [edx],cl
  e6:	5a                   	pop    edx
  e7:	32 00                	xor    al,BYTE PTR [eax]
  e9:	00 01                	add    BYTE PTR [ecx],al
  eb:	05 06 70 80 00       	add    eax,0x807006
  f0:	00 57 00             	add    BYTE PTR [edi+0x0],dl
  f3:	00 00                	add    BYTE PTR [eax],al
  f5:	01 9c 46 01 00 00 03 	add    DWORD PTR [esi+eax*2+0x3000001],ebx
  fc:	0b 3f                	or     edi,DWORD PTR [edi]
  fe:	00 00                	add    BYTE PTR [eax],al
 100:	05 25 46 01 00       	add    eax,0x14625
 105:	00 02                	add    BYTE PTR [edx],al
 107:	91                   	xchg   ecx,eax
 108:	00 03                	add    BYTE PTR [ebx],al
 10a:	37                   	aaa
 10b:	22 00                	and    al,BYTE PTR [eax]
 10d:	00 05 37 6a 00 00    	add    BYTE PTR ds:0x6a37,al
 113:	00 02                	add    BYTE PTR [edx],al
 115:	91                   	xchg   ecx,eax
 116:	04 03                	add    al,0x3
 118:	d6                   	(bad)
 119:	33 00                	xor    eax,DWORD PTR [eax]
 11b:	00 05 46 46 00 00    	add    BYTE PTR ds:0x4646,al
 121:	00 02                	add    BYTE PTR [edx],al
 123:	91                   	xchg   ecx,eax
 124:	08 03                	or     BYTE PTR [ebx],al
 126:	f1                   	int1
 127:	29 00                	sub    DWORD PTR [eax],eax
 129:	00 06                	add    BYTE PTR [esi],al
 12b:	1a 4c 01 00          	sbb    cl,BYTE PTR [ecx+eax*1+0x0]
 12f:	00 02                	add    BYTE PTR [edx],al
 131:	91                   	xchg   ecx,eax
 132:	0c 0b                	or     al,0xb
 134:	65 00 01             	add    BYTE PTR gs:[ecx],al
 137:	07                   	pop    es
 138:	15 46 01 00 00       	adc    eax,0x146
 13d:	0e                   	push   cs
 13e:	00 00                	add    BYTE PTR [eax],al
 140:	00 0c 00             	add    BYTE PTR [eax+eax*1],cl
 143:	00 00                	add    BYTE PTR [eax],al
 145:	00 06                	add    BYTE PTR [esi],al
 147:	83 00 00             	add    DWORD PTR [eax],0x0
 14a:	00 0c 06             	add    BYTE PTR [esi+eax*1],cl
 14d:	4b                   	dec    ebx
 14e:	01 00                	add    DWORD PTR [eax],eax
 150:	00 00                	add    BYTE PTR [eax],al
 152:	54                   	push   esp
 153:	02 00                	add    al,BYTE PTR [eax]
 155:	00 05 00 01 04 c6    	add    BYTE PTR ds:0xc6040100,al
 15b:	00 00                	add    BYTE PTR [eax],al
 15d:	00 0a                	add    BYTE PTR [edx],cl
 15f:	b6 01                	mov    dh,0x1
 161:	00 00                	add    BYTE PTR [eax],al
 163:	1d 7d 00 00 00       	sbb    eax,0x7d
 168:	00 00                	add    BYTE PTR [eax],al
 16a:	00 00                	add    BYTE PTR [eax],al
 16c:	43                   	inc    ebx
 16d:	00 00                	add    BYTE PTR [eax],al
 16f:	00 00                	add    BYTE PTR [eax],al
 171:	00 00                	add    BYTE PTR [eax],al
 173:	00 ab 00 00 00 73    	add    BYTE PTR [ebx+0x73000000],ch
 179:	0e                   	push   cs
 17a:	00 00                	add    BYTE PTR [eax],al
 17c:	0b 04 05 69 6e 74 00 	or     eax,DWORD PTR [eax*1+0x746e69]
 183:	03 2a                	add    ebp,DWORD PTR [edx]
 185:	00 00                	add    BYTE PTR [eax],al
 187:	00 01                	add    BYTE PTR [ecx],al
 189:	04 07                	add    al,0x7
 18b:	ec                   	in     al,dx
 18c:	27                   	daa
 18d:	00 00                	add    BYTE PTR [eax],al
 18f:	01 04 05 74 2e 00 00 	add    DWORD PTR [eax*1+0x2e74],eax
 196:	01 08                	add    DWORD PTR [eax],ecx
 198:	05 b3 15 00 00       	add    eax,0x15b3
 19d:	01 0c 04             	add    DWORD PTR [esp+eax*1],ecx
 1a0:	5f                   	pop    edi
 1a1:	3d 00 00 01 10       	cmp    eax,0x10010000
 1a6:	04 5c                	add    al,0x5c
 1a8:	3b 00                	cmp    eax,DWORD PTR [eax]
 1aa:	00 01                	add    BYTE PTR [ecx],al
 1ac:	01 06                	add    DWORD PTR [esi],eax
 1ae:	67 29 00             	sub    DWORD PTR [bx+si],eax
 1b1:	00 01                	add    BYTE PTR [ecx],al
 1b3:	02 05 f3 07 00 00    	add    al,BYTE PTR ds:0x7f3
 1b9:	01 01                	add    DWORD PTR [ecx],eax
 1bb:	08 99 29 00 00 01    	or     BYTE PTR [ecx+0x1000029],bl
 1c1:	02 07                	add    al,BYTE PTR [edi]
 1c3:	4c                   	dec    esp
 1c4:	06                   	push   es
 1c5:	00 00                	add    BYTE PTR [eax],al
 1c7:	0c 48                	or     al,0x48
 1c9:	0c 00                	or     al,0x0
 1cb:	00 02                	add    BYTE PTR [edx],al
 1cd:	34 19                	xor    al,0x19
 1cf:	36 00 00             	add    BYTE PTR ss:[eax],al
 1d2:	00 03                	add    BYTE PTR [ebx],al
 1d4:	75 00                	jne    1d6 <code-0x7e5f>
 1d6:	00 00                	add    BYTE PTR [eax],al
 1d8:	01 08                	add    DWORD PTR [eax],ecx
 1da:	07                   	pop    es
 1db:	23 35 00 00 0d 03    	and    esi,DWORD PTR ds:0x30d0000
 1e1:	3d 00 00 01 08       	cmp    eax,0x8010000
 1e6:	17                   	pop    ss
 1e7:	99                   	cdq
 1e8:	00 00                	add    BYTE PTR [eax],al
 1ea:	00 04 a5 00 00 00 01 	add    BYTE PTR [eiz*4+0x1000000],al
 1f1:	01 06                	add    DWORD PTR [esi],eax
 1f3:	6e                   	outs   dx,BYTE PTR ds:[esi]
 1f4:	29 00                	sub    DWORD PTR [eax],eax
 1f6:	00 03                	add    BYTE PTR [ebx],al
 1f8:	9e                   	sahf
 1f9:	00 00                	add    BYTE PTR [eax],al
 1fb:	00 0e                	add    BYTE PTR [esi],cl
 1fd:	9e                   	sahf
 1fe:	00 00                	add    BYTE PTR [eax],al
 200:	00 0f                	add    BYTE PTR [edi],cl
 202:	52                   	push   edx
 203:	3b 00                	cmp    eax,DWORD PTR [eax]
 205:	00 01                	add    BYTE PTR [ecx],al
 207:	24 06                	and    al,0x6
 209:	50                   	push   eax
 20a:	81 00 00 ea 00 00    	add    DWORD PTR [eax],0xea00
 210:	00 01                	add    BYTE PTR [ecx],al
 212:	9c                   	pushf
 213:	90                   	nop
 214:	01 00                	add    DWORD PTR [eax],eax
 216:	00 10                	add    BYTE PTR [eax],dl
 218:	6e                   	outs   dx,BYTE PTR ds:[esi]
 219:	00 01                	add    BYTE PTR [ecx],al
 21b:	24 19                	and    al,0x19
 21d:	75 00                	jne    21f <code-0x7e16>
 21f:	00 00                	add    BYTE PTR [eax],al
 221:	2b 00                	sub    eax,DWORD PTR [eax]
 223:	00 00                	add    BYTE PTR [eax],al
 225:	23 00                	and    eax,DWORD PTR [eax]
 227:	00 00                	add    BYTE PTR [eax],al
 229:	11 40 3c             	adc    DWORD PTR [eax+0x3c],eax
 22c:	00 00                	add    BYTE PTR [eax],al
 22e:	01 24 25 75 00 00 00 	add    DWORD PTR [eiz*1+0x75],esp
 235:	02 91 04 05 62 75    	add    dl,BYTE PTR [ecx+0x75620504]
 23b:	66 00 25 09 90 01 00 	data16 add BYTE PTR ds:0x19009,ah
 242:	00 4e 00             	add    BYTE PTR [esi+0x0],cl
 245:	00 00                	add    BYTE PTR [eax],al
 247:	48                   	dec    eax
 248:	00 00                	add    BYTE PTR [eax],al
 24a:	00 05 69 00 2d 0c    	add    BYTE PTR ds:0xc2d0069,al
 250:	75 00                	jne    252 <code-0x7de3>
 252:	00 00                	add    BYTE PTR [eax],al
 254:	6e                   	outs   dx,BYTE PTR ds:[esi]
 255:	00 00                	add    BYTE PTR [eax],al
 257:	00 68 00             	add    BYTE PTR [eax+0x0],ch
 25a:	00 00                	add    BYTE PTR [eax],al
 25c:	12 6c 81 00          	adc    ch,BYTE PTR [ecx+eax*4+0x0]
 260:	00 3e                	add    BYTE PTR [esi],bh
 262:	00 00                	add    BYTE PTR [eax],al
 264:	00 29                	add    BYTE PTR [ecx],ch
 266:	01 00                	add    DWORD PTR [eax],eax
 268:	00 05 64 00 2f 0a    	add    BYTE PTR ds:0xa2f0064,al
 26e:	9e                   	sahf
 26f:	00 00                	add    BYTE PTR [eax],al
 271:	00 8b 00 00 00 87    	add    BYTE PTR [ebx-0x79000000],cl
 277:	00 00                	add    BYTE PTR [eax],al
 279:	00 00                	add    BYTE PTR [eax],al
 27b:	13 95 01 00 00 b6    	adc    edx,DWORD PTR [ebp-0x49ffffff]
 281:	81 00 00 01 2b 00    	add    DWORD PTR [eax],0x2b0100
 287:	00 00                	add    BYTE PTR [eax],al
 289:	01 44 03 06          	add    DWORD PTR [ebx+eax*1+0x6],eax
 28d:	a6                   	cmps   BYTE PTR ds:[esi],BYTE PTR es:[edi]
 28e:	01 00                	add    DWORD PTR [eax],eax
 290:	00 a9 00 00 00 a7    	add    BYTE PTR [ecx-0x59000000],ch
 296:	00 00                	add    BYTE PTR [eax],al
 298:	00 06                	add    BYTE PTR [esi],al
 29a:	b2 01                	mov    dl,0x1
 29c:	00 00                	add    BYTE PTR [eax],al
 29e:	b6 00                	mov    dh,0x0
 2a0:	00 00                	add    BYTE PTR [eax],al
 2a2:	b2 00                	mov    dl,0x0
 2a4:	00 00                	add    BYTE PTR [eax],al
 2a6:	14 2b                	adc    al,0x2b
 2a8:	00 00                	add    BYTE PTR [eax],al
 2aa:	00 02                	add    BYTE PTR [edx],al
 2ac:	be 01 00 00 02       	mov    esi,0x2000001
 2b1:	91                   	xchg   ecx,eax
 2b2:	44                   	inc    esp
 2b3:	08 c7                	or     bh,al
 2b5:	01 00                	add    DWORD PTR [eax],eax
 2b7:	00 c6                	add    dh,al
 2b9:	81 00 00 13 00 00    	add    DWORD PTR [eax],0x1300
 2bf:	00 7b 01             	add    BYTE PTR [ebx+0x1],bh
 2c2:	00 00                	add    BYTE PTR [eax],al
 2c4:	02 cc                	add    cl,ah
 2c6:	01 00                	add    DWORD PTR [eax],eax
 2c8:	00 02                	add    BYTE PTR [edx],al
 2ca:	91                   	xchg   ecx,eax
 2cb:	48                   	dec    eax
 2cc:	00 09                	add    BYTE PTR [ecx],cl
 2ce:	d6                   	(bad)
 2cf:	01 00                	add    DWORD PTR [eax],eax
 2d1:	00 37                	add    BYTE PTR [edi],dh
 2d3:	00 00                	add    BYTE PTR [eax],al
 2d5:	00 02                	add    BYTE PTR [edx],al
 2d7:	d7                   	xlat   BYTE PTR ds:[ebx]
 2d8:	01 00                	add    DWORD PTR [eax],eax
 2da:	00 02                	add    BYTE PTR [edx],al
 2dc:	91                   	xchg   ecx,eax
 2dd:	43                   	inc    ebx
 2de:	00 00                	add    BYTE PTR [eax],al
 2e0:	00 00                	add    BYTE PTR [eax],al
 2e2:	04 9e                	add    al,0x9e
 2e4:	00 00                	add    BYTE PTR [eax],al
 2e6:	00 15 32 3d 00 00    	add    BYTE PTR ds:0x3d32,dl
 2ec:	01 0a                	add    DWORD PTR [edx],ecx
 2ee:	05 2a 00 00 00       	add    eax,0x2a
 2f3:	01 e4                	add    esp,esp
 2f5:	01 00                	add    DWORD PTR [eax],eax
 2f7:	00 16                	add    BYTE PTR [esi],dl
 2f9:	73 74                	jae    36f <code-0x7cc6>
 2fb:	72 00                	jb     2fd <code-0x7d38>
 2fd:	01 0a                	add    DWORD PTR [edx],ecx
 2ff:	1c e4                	sbb    al,0xe4
 301:	01 00                	add    DWORD PTR [eax],eax
 303:	00 17                	add    BYTE PTR [edi],dl
 305:	40                   	inc    eax
 306:	3c 00                	cmp    al,0x0
 308:	00 01                	add    BYTE PTR [ecx],al
 30a:	0a 2a                	or     ch,BYTE PTR [edx]
 30c:	75 00                	jne    30e <code-0x7d27>
 30e:	00 00                	add    BYTE PTR [eax],al
 310:	07                   	pop    es
 311:	69 00 0b 15 81 00    	imul   eax,DWORD PTR [eax],0x81150b
 317:	00 00                	add    BYTE PTR [eax],al
 319:	18 d6                	sbb    dh,dl
 31b:	01 00                	add    DWORD PTR [eax],eax
 31d:	00 07                	add    BYTE PTR [edi],al
 31f:	61                   	popa
 320:	00 0e                	add    BYTE PTR [esi],cl
 322:	12 f9                	adc    bh,cl
 324:	01 00                	add    DWORD PTR [eax],eax
 326:	00 00                	add    BYTE PTR [eax],al
 328:	19 07                	sbb    DWORD PTR [edi],eax
 32a:	74 6d                	je     399 <code-0x7c9c>
 32c:	70 00                	jo     32e <code-0x7d07>
 32e:	12 13                	adc    dl,BYTE PTR [ebx]
 330:	a5                   	movs   DWORD PTR es:[edi],DWORD PTR ds:[esi]
 331:	00 00                	add    BYTE PTR [eax],al
 333:	00 00                	add    BYTE PTR [eax],al
 335:	00 04 aa             	add    BYTE PTR [edx+ebp*4],al
 338:	00 00                	add    BYTE PTR [eax],al
 33a:	00 1a                	add    BYTE PTR [edx],bl
 33c:	31 00                	xor    DWORD PTR [eax],eax
 33e:	00 00                	add    BYTE PTR [eax],al
 340:	f9                   	stc
 341:	01 00                	add    DWORD PTR [eax],eax
 343:	00 1b                	add    BYTE PTR [ebx],bl
 345:	36 00 00             	add    BYTE PTR ss:[eax],al
 348:	00 09                	add    BYTE PTR [ecx],cl
 34a:	00 03                	add    BYTE PTR [ebx],al
 34c:	e9 01 00 00 1c       	jmp    1c000352 <end+0x1bff7e7a>
 351:	95                   	xchg   ebp,eax
 352:	01 00                	add    DWORD PTR [eax],eax
 354:	00 d0                	add    al,dl
 356:	80 00 00             	add    BYTE PTR [eax],0x0
 359:	7f 00                	jg     35b <code-0x7cda>
 35b:	00 00                	add    BYTE PTR [eax],al
 35d:	01 9c 06 a6 01 00 00 	add    DWORD PTR [esi+eax*1+0x1a6],ebx
 364:	cb                   	retf
 365:	00 00                	add    BYTE PTR [eax],al
 367:	00 c7                	add    bh,al
 369:	00 00                	add    BYTE PTR [eax],al
 36b:	00 1d b2 01 00 00    	add    BYTE PTR ds:0x1b2,bl
 371:	02 91 04 02 be 01    	add    dl,BYTE PTR [ecx+0x1be0204]
 377:	00 00                	add    BYTE PTR [eax],al
 379:	02 91 50 08 c7 01    	add    dl,BYTE PTR [ecx+0x1c70850]
 37f:	00 00                	add    BYTE PTR [eax],al
 381:	e7 80                	out    0x80,eax
 383:	00 00                	add    BYTE PTR [eax],al
 385:	13 00                	adc    eax,DWORD PTR [eax]
 387:	00 00                	add    BYTE PTR [eax],al
 389:	44                   	inc    esp
 38a:	02 00                	add    al,BYTE PTR [eax]
 38c:	00 02                	add    BYTE PTR [edx],al
 38e:	cc                   	int3
 38f:	01 00                	add    DWORD PTR [eax],eax
 391:	00 02                	add    BYTE PTR [edx],al
 393:	91                   	xchg   ecx,eax
 394:	54                   	push   esp
 395:	00 09                	add    BYTE PTR [ecx],cl
 397:	d6                   	(bad)
 398:	01 00                	add    DWORD PTR [eax],eax
 39a:	00 1f                	add    BYTE PTR [edi],bl
 39c:	00 00                	add    BYTE PTR [eax],al
 39e:	00 02                	add    BYTE PTR [edx],al
 3a0:	d7                   	xlat   BYTE PTR ds:[ebx]
 3a1:	01 00                	add    DWORD PTR [eax],eax
 3a3:	00 02                	add    BYTE PTR [edx],al
 3a5:	91                   	xchg   ecx,eax
 3a6:	4f                   	dec    edi
 3a7:	00 00                	add    BYTE PTR [eax],al
 3a9:	00 05 02 00 00 05    	add    BYTE PTR ds:0x5000002,al
 3af:	00 01                	add    BYTE PTR [ecx],al
 3b1:	04 49                	add    al,0x49
 3b3:	02 00                	add    al,BYTE PTR [eax]
 3b5:	00 09                	add    BYTE PTR [ecx],cl
 3b7:	b6 01                	mov    dh,0x1
 3b9:	00 00                	add    BYTE PTR [eax],al
 3bb:	1d 94 00 00 00       	sbb    eax,0x94
 3c0:	00 00                	add    BYTE PTR [eax],al
 3c2:	00 00                	add    BYTE PTR [eax],al
 3c4:	5d                   	pop    ebp
 3c5:	00 00                	add    BYTE PTR [eax],al
 3c7:	00 00                	add    BYTE PTR [eax],al
 3c9:	00 00                	add    BYTE PTR [eax],al
 3cb:	00 5a 02             	add    BYTE PTR [edx+0x2],bl
 3ce:	00 00                	add    BYTE PTR [eax],al
 3d0:	55                   	push   ebp
 3d1:	10 00                	adc    BYTE PTR [eax],al
 3d3:	00 01                	add    BYTE PTR [ecx],al
 3d5:	01 06                	add    DWORD PTR [esi],eax
 3d7:	67 29 00             	sub    DWORD PTR [bx+si],eax
 3da:	00 01                	add    BYTE PTR [ecx],al
 3dc:	02 05 f3 07 00 00    	add    al,BYTE PTR ds:0x7f3
 3e2:	0a 04 05 69 6e 74 00 	or     al,BYTE PTR [eax*1+0x746e69]
 3e9:	01 08                	add    DWORD PTR [eax],ecx
 3eb:	05 b3 15 00 00       	add    eax,0x15b3
 3f0:	04 b1                	add    al,0xb1
 3f2:	19 00                	sbb    DWORD PTR [eax],eax
 3f4:	00 2e                	add    BYTE PTR [esi],ch
 3f6:	18 51 00             	sbb    BYTE PTR [ecx+0x0],dl
 3f9:	00 00                	add    BYTE PTR [eax],al
 3fb:	01 01                	add    DWORD PTR [ecx],eax
 3fd:	08 99 29 00 00 04    	or     BYTE PTR [ecx+0x4000029],bl
 403:	67 24 00             	addr16 and al,0x0
 406:	00 31                	add    BYTE PTR [ecx],dh
 408:	19 63 00             	sbb    DWORD PTR [ebx+0x0],esp
 40b:	00 00                	add    BYTE PTR [eax],al
 40d:	01 02                	add    DWORD PTR [edx],eax
 40f:	07                   	pop    es
 410:	4c                   	dec    esp
 411:	06                   	push   es
 412:	00 00                	add    BYTE PTR [eax],al
 414:	04 48                	add    al,0x48
 416:	0c 00                	or     al,0x0
 418:	00 34 19             	add    BYTE PTR [ecx+ebx*1],dh
 41b:	75 00                	jne    41d <code-0x7c18>
 41d:	00 00                	add    BYTE PTR [eax],al
 41f:	01 04 07             	add    DWORD PTR [edi+eax*1],eax
 422:	ec                   	in     al,dx
 423:	27                   	daa
 424:	00 00                	add    BYTE PTR [eax],al
 426:	01 08                	add    DWORD PTR [eax],ecx
 428:	07                   	pop    es
 429:	23 35 00 00 01 04    	and    esi,DWORD PTR ds:0x4010000
 42f:	05 74 2e 00 00       	add    eax,0x2e74
 434:	01 0c 04             	add    DWORD PTR [esp+eax*1],ecx
 437:	5f                   	pop    edi
 438:	3d 00 00 01 10       	cmp    eax,0x10010000
 43d:	04 5c                	add    al,0x5c
 43f:	3b 00                	cmp    eax,DWORD PTR [eax]
 441:	00 08                	add    BYTE PTR [eax],cl
 443:	13 3f                	adc    edi,DWORD PTR [edi]
 445:	00 00                	add    BYTE PTR [eax],al
 447:	06                   	push   es
 448:	06                   	push   es
 449:	bc 00 00 00 02       	mov    esp,0x2000000
 44e:	e4 3e                	in     al,0x3e
 450:	00 00                	add    BYTE PTR [eax],al
 452:	07                   	pop    es
 453:	0c 58                	or     al,0x58
 455:	00 00                	add    BYTE PTR [eax],al
 457:	00 00                	add    BYTE PTR [eax],al
 459:	02 40 3c             	add    al,BYTE PTR [eax+0x3c]
 45c:	00 00                	add    BYTE PTR [eax],al
 45e:	08 0c 6a             	or     BYTE PTR [edx+ebp*2],cl
 461:	00 00                	add    BYTE PTR [eax],al
 463:	00 02                	add    BYTE PTR [edx],al
 465:	00 08                	add    BYTE PTR [eax],cl
 467:	33 22                	xor    esp,DWORD PTR [edx]
 469:	00 00                	add    BYTE PTR [eax],al
 46b:	08 0b                	or     BYTE PTR [ebx],cl
 46d:	1c 01                	sbb    al,0x1
 46f:	00 00                	add    BYTE PTR [eax],al
 471:	02 e6                	add    ah,dh
 473:	29 00                	sub    DWORD PTR [eax],eax
 475:	00 0c 0c             	add    BYTE PTR [esp+ecx*1],cl
 478:	58                   	pop    eax
 479:	00 00                	add    BYTE PTR [eax],al
 47b:	00 00                	add    BYTE PTR [eax],al
 47d:	02 2f                	add    ch,BYTE PTR [edi]
 47f:	08 00                	or     BYTE PTR [eax],al
 481:	00 0d 0c 58 00 00    	add    BYTE PTR ds:0x580c,cl
 487:	00 02                	add    BYTE PTR [edx],al
 489:	02 f2                	add    dh,dl
 48b:	36 00 00             	add    BYTE PTR ss:[eax],al
 48e:	0f 0b                	ud2
 490:	46                   	inc    esi
 491:	00 00                	add    BYTE PTR [eax],al
 493:	00 04 05 d6 33 00 00 	add    BYTE PTR [eax*1+0x33d6],al
 49a:	11 46 00             	adc    DWORD PTR [esi+0x0],eax
 49d:	00 00                	add    BYTE PTR [eax],al
 49f:	04 28                	add    al,0x28
 4a1:	05 ee 06 00 00       	add    eax,0x6ee
 4a6:	13 46 00             	adc    eax,DWORD PTR [esi+0x0]
 4a9:	00 00                	add    BYTE PTR [eax],al
 4ab:	02 2d 05 9e 33 00    	add    ch,BYTE PTR ds:0x339e05
 4b1:	00 14 46             	add    BYTE PTR [esi+eax*2],dl
 4b4:	00 00                	add    BYTE PTR [eax],al
 4b6:	00 01                	add    BYTE PTR [ecx],al
 4b8:	2f                   	das
 4b9:	02 10                	add    dl,BYTE PTR [eax]
 4bb:	2d 00 00 16 0c       	sub    eax,0xc160000
 4c0:	58                   	pop    eax
 4c1:	00 00                	add    BYTE PTR [eax],al
 4c3:	00 06                	add    BYTE PTR [esi],al
 4c5:	00 0b                	add    BYTE PTR [ebx],cl
 4c7:	bc 00 00 00 2c       	mov    esp,0x2c000000
 4cc:	01 00                	add    DWORD PTR [eax],eax
 4ce:	00 0c 75 00 00 00 1e 	add    BYTE PTR [esi*2+0x1e000000],cl
 4d5:	00 0d 07 3f 00 00    	add    BYTE PTR ds:0x3f07,cl
 4db:	01 07                	add    DWORD PTR [edi],eax
 4dd:	19 1c 01             	sbb    DWORD PTR [ecx+eax*1],ebx
 4e0:	00 00                	add    BYTE PTR [eax],al
 4e2:	05 03 e0 83 00       	add    eax,0x83e003
 4e7:	00 0e                	add    BYTE PTR [esi],cl
 4e9:	17                   	pop    ss
 4ea:	3f                   	aas
 4eb:	00 00                	add    BYTE PTR [eax],al
 4ed:	01 08                	add    DWORD PTR [eax],ecx
 4ef:	11 98 00 00 00 05    	adc    DWORD PTR [eax+0x5000000],ebx
 4f5:	03 d4                	add    edx,esp
 4f7:	83 00 00             	add    DWORD PTR [eax],0x0
 4fa:	0f 5a 32             	cvtps2pd xmm6,QWORD PTR [edx]
 4fd:	00 00                	add    BYTE PTR [eax],al
 4ff:	03 19                	add    ebx,DWORD PTR [ecx]
 501:	06                   	push   es
 502:	71 01                	jno    505 <code-0x7b30>
 504:	00 00                	add    BYTE PTR [eax],al
 506:	03 71 01             	add    esi,DWORD PTR [ecx+0x1]
 509:	00 00                	add    BYTE PTR [eax],al
 50b:	03 6a 00             	add    ebp,DWORD PTR [edx+0x0]
 50e:	00 00                	add    BYTE PTR [eax],al
 510:	03 46 00             	add    eax,DWORD PTR [esi+0x0]
 513:	00 00                	add    BYTE PTR [eax],al
 515:	03 76 01             	add    esi,DWORD PTR [esi+0x1]
 518:	00 00                	add    BYTE PTR [eax],al
 51a:	00 06                	add    BYTE PTR [esi],al
 51c:	bc 00 00 00 06       	mov    esp,0x6000000
 521:	7b 01                	jnp    524 <code-0x7b11>
 523:	00 00                	add    BYTE PTR [eax],al
 525:	10 11                	adc    BYTE PTR [ecx],dl
 527:	32 3d 00 00 04 06    	xor    bh,BYTE PTR ds:0x6040000
 52d:	05 38 00 00 00       	add    eax,0x38
 532:	97                   	xchg   edi,eax
 533:	01 00                	add    DWORD PTR [eax],eax
 535:	00 03                	add    BYTE PTR [ebx],al
 537:	97                   	xchg   edi,eax
 538:	01 00                	add    DWORD PTR [eax],eax
 53a:	00 03                	add    BYTE PTR [ebx],al
 53c:	6a 00                	push   0x0
 53e:	00 00                	add    BYTE PTR [eax],al
 540:	00 06                	add    BYTE PTR [esi],al
 542:	a3 01 00 00 01       	mov    ds:0x1000001,eax
 547:	01 06                	add    DWORD PTR [esi],eax
 549:	6e                   	outs   dx,BYTE PTR ds:[esi]
 54a:	29 00                	sub    DWORD PTR [eax],eax
 54c:	00 12                	add    BYTE PTR [edx],dl
 54e:	9c                   	pushf
 54f:	01 00                	add    DWORD PTR [eax],eax
 551:	00 13                	add    BYTE PTR [ebx],dl
 553:	02 3f                	add    bh,BYTE PTR [edi]
 555:	00 00                	add    BYTE PTR [eax],al
 557:	01 1c 05 38 00 00 00 	add    DWORD PTR [eax*1+0x38],ebx
 55e:	40                   	inc    eax
 55f:	80 00 00             	add    BYTE PTR [eax],0x0
 562:	22 00                	and    al,BYTE PTR [eax]
 564:	00 00                	add    BYTE PTR [eax],al
 566:	01 9c cc 01 00 00 07 	add    DWORD PTR [esp+ecx*8+0x7000001],ebx
 56d:	5d                   	pop    ebp
 56e:	80 00 00             	add    BYTE PTR [eax],0x0
 571:	7c 01                	jl     574 <code-0x7ac1>
 573:	00 00                	add    BYTE PTR [eax],al
 575:	00 14 ea             	add    BYTE PTR [edx+ebp*8],dl
 578:	3e 00 00             	add    BYTE PTR ds:[eax],al
 57b:	01 16                	add    DWORD PTR [esi],edx
 57d:	06                   	push   es
 57e:	60                   	pusha
 57f:	82 00 00             	add    BYTE PTR [eax],0x0
 582:	22 00                	and    al,BYTE PTR [eax]
 584:	00 00                	add    BYTE PTR [eax],al
 586:	01 9c ec 01 00 00 07 	add    DWORD PTR [esp+ebp*8+0x7000001],ebx
 58d:	76 82                	jbe    511 <code-0x7b24>
 58f:	00 00                	add    BYTE PTR [eax],al
 591:	50                   	push   eax
 592:	01 00                	add    DWORD PTR [eax],eax
 594:	00 00                	add    BYTE PTR [eax],al
 596:	15 f3 3e 00 00       	adc    eax,0x3ef3
 59b:	01 0d 20 40 82 00    	add    DWORD PTR ds:0x824020,ecx
 5a1:	00 16                	add    BYTE PTR [esi],dl
 5a3:	00 00                	add    BYTE PTR [eax],al
 5a5:	00 01                	add    BYTE PTR [ecx],al
 5a7:	9c                   	pushf
 5a8:	07                   	pop    es
 5a9:	4f                   	dec    edi
 5aa:	82 00 00             	add    BYTE PTR [eax],0x0
 5ad:	7c 01                	jl     5b0 <code-0x7a85>
 5af:	00 00                	add    BYTE PTR [eax],al
	...

Disassembly of section .debug_abbrev:

00000000 <.debug_abbrev>:
   0:	01 24 00             	add    DWORD PTR [eax+eax*1],esp
   3:	0b 0b                	or     ecx,DWORD PTR [ebx]
   5:	3e 0b 03             	or     eax,DWORD PTR ds:[ebx]
   8:	0e                   	push   cs
   9:	00 00                	add    BYTE PTR [eax],al
   b:	02 0d 00 03 0e 3a    	add    cl,BYTE PTR ds:0x3a0e0300
  11:	21 03                	and    DWORD PTR [ebx],eax
  13:	3b 0b                	cmp    ecx,DWORD PTR [ebx]
  15:	39 0b                	cmp    DWORD PTR [ebx],ecx
  17:	49                   	dec    ecx
  18:	13 38                	adc    edi,DWORD PTR [eax]
  1a:	0b 00                	or     eax,DWORD PTR [eax]
  1c:	00 03                	add    BYTE PTR [ebx],al
  1e:	05 00 03 0e 3a       	add    eax,0x3a0e0300
  23:	21 01                	and    DWORD PTR [ecx],eax
  25:	3b 0b                	cmp    ecx,DWORD PTR [ebx]
  27:	39 0b                	cmp    DWORD PTR [ebx],ecx
  29:	49                   	dec    ecx
  2a:	13 02                	adc    eax,DWORD PTR [edx]
  2c:	18 00                	sbb    BYTE PTR [eax],al
  2e:	00 04 16             	add    BYTE PTR [esi+edx*1],al
  31:	00 03                	add    BYTE PTR [ebx],al
  33:	0e                   	push   cs
  34:	3a 21                	cmp    ah,BYTE PTR [ecx]
  36:	02 3b                	add    bh,BYTE PTR [ebx]
  38:	0b 39                	or     edi,DWORD PTR [ecx]
  3a:	0b 49 13             	or     ecx,DWORD PTR [ecx+0x13]
  3d:	00 00                	add    BYTE PTR [eax],al
  3f:	05 0d 00 03 0e       	add    eax,0xe03000d
  44:	3a 21                	cmp    ah,BYTE PTR [ecx]
  46:	03 3b                	add    edi,DWORD PTR [ebx]
  48:	0b 39                	or     edi,DWORD PTR [ecx]
  4a:	21 0b                	and    DWORD PTR [ebx],ecx
  4c:	49                   	dec    ecx
  4d:	13 0d 0b 6b 0b 00    	adc    ecx,DWORD PTR ds:0xb6b0b
  53:	00 06                	add    BYTE PTR [esi],al
  55:	0f 00 0b             	str    WORD PTR [ebx]
  58:	21 04 49             	and    DWORD PTR [ecx+ecx*2],eax
  5b:	13 00                	adc    eax,DWORD PTR [eax]
  5d:	00 07                	add    BYTE PTR [edi],al
  5f:	11 01                	adc    DWORD PTR [ecx],eax
  61:	25 0e 13 0b 03       	and    eax,0x30b130e
  66:	1f                   	pop    ds
  67:	1b 1f                	sbb    ebx,DWORD PTR [edi]
  69:	55                   	push   ebp
  6a:	17                   	pop    ss
  6b:	11 01                	adc    DWORD PTR [ecx],eax
  6d:	10 17                	adc    BYTE PTR [edi],dl
  6f:	79 17                	jns    88 <code-0x7fad>
  71:	00 00                	add    BYTE PTR [eax],al
  73:	08 24 00             	or     BYTE PTR [eax+eax*1],ah
  76:	0b 0b                	or     ecx,DWORD PTR [ebx]
  78:	3e 0b 03             	or     eax,DWORD PTR ds:[ebx]
  7b:	08 00                	or     BYTE PTR [eax],al
  7d:	00 09                	add    BYTE PTR [ecx],cl
  7f:	13 01                	adc    eax,DWORD PTR [ecx]
  81:	03 0e                	add    ecx,DWORD PTR [esi]
  83:	0b 0b                	or     ecx,DWORD PTR [ebx]
  85:	3a 0b                	cmp    cl,BYTE PTR [ebx]
  87:	3b 0b                	cmp    ecx,DWORD PTR [ebx]
  89:	39 0b                	cmp    DWORD PTR [ebx],ecx
  8b:	01 13                	add    DWORD PTR [ebx],edx
  8d:	00 00                	add    BYTE PTR [eax],al
  8f:	0a 2e                	or     ch,BYTE PTR [esi]
  91:	01 3f                	add    DWORD PTR [edi],edi
  93:	19 03                	sbb    DWORD PTR [ebx],eax
  95:	0e                   	push   cs
  96:	3a 0b                	cmp    cl,BYTE PTR [ebx]
  98:	3b 0b                	cmp    ecx,DWORD PTR [ebx]
  9a:	39 0b                	cmp    DWORD PTR [ebx],ecx
  9c:	27                   	daa
  9d:	19 11                	sbb    DWORD PTR [ecx],edx
  9f:	01 12                	add    DWORD PTR [edx],edx
  a1:	06                   	push   es
  a2:	40                   	inc    eax
  a3:	18 7a 19             	sbb    BYTE PTR [edx+0x19],bh
  a6:	01 13                	add    DWORD PTR [ebx],edx
  a8:	00 00                	add    BYTE PTR [eax],al
  aa:	0b 34 00             	or     esi,DWORD PTR [eax+eax*1]
  ad:	03 08                	add    ecx,DWORD PTR [eax]
  af:	3a 0b                	cmp    cl,BYTE PTR [ebx]
  b1:	3b 0b                	cmp    ecx,DWORD PTR [ebx]
  b3:	39 0b                	cmp    DWORD PTR [ebx],ecx
  b5:	49                   	dec    ecx
  b6:	13 02                	adc    eax,DWORD PTR [edx]
  b8:	17                   	pop    ss
  b9:	b7 42                	mov    bh,0x42
  bb:	17                   	pop    ss
  bc:	00 00                	add    BYTE PTR [eax],al
  be:	0c 15                	or     al,0x15
  c0:	00 27                	add    BYTE PTR [edi],ah
  c2:	19 00                	sbb    DWORD PTR [eax],eax
  c4:	00 00                	add    BYTE PTR [eax],al
  c6:	01 24 00             	add    DWORD PTR [eax+eax*1],esp
  c9:	0b 0b                	or     ecx,DWORD PTR [ebx]
  cb:	3e 0b 03             	or     eax,DWORD PTR ds:[ebx]
  ce:	0e                   	push   cs
  cf:	00 00                	add    BYTE PTR [eax],al
  d1:	02 34 00             	add    dh,BYTE PTR [eax+eax*1]
  d4:	31 13                	xor    DWORD PTR [ebx],edx
  d6:	02 18                	add    bl,BYTE PTR [eax]
  d8:	00 00                	add    BYTE PTR [eax],al
  da:	03 35 00 49 13 00    	add    esi,DWORD PTR ds:0x134900
  e0:	00 04 0f             	add    BYTE PTR [edi+ecx*1],al
  e3:	00 0b                	add    BYTE PTR [ebx],cl
  e5:	21 04 49             	and    DWORD PTR [ecx+ecx*2],eax
  e8:	13 00                	adc    eax,DWORD PTR [eax]
  ea:	00 05 34 00 03 08    	add    BYTE PTR ds:0x8030034,al
  f0:	3a 21                	cmp    ah,BYTE PTR [ecx]
  f2:	01 3b                	add    DWORD PTR [ebx],edi
  f4:	0b 39                	or     edi,DWORD PTR [ecx]
  f6:	0b 49 13             	or     ecx,DWORD PTR [ecx+0x13]
  f9:	02 17                	add    dl,BYTE PTR [edi]
  fb:	b7 42                	mov    bh,0x42
  fd:	17                   	pop    ss
  fe:	00 00                	add    BYTE PTR [eax],al
 100:	06                   	push   es
 101:	05 00 31 13 02       	add    eax,0x2133100
 106:	17                   	pop    ss
 107:	b7 42                	mov    bh,0x42
 109:	17                   	pop    ss
 10a:	00 00                	add    BYTE PTR [eax],al
 10c:	07                   	pop    es
 10d:	34 00                	xor    al,0x0
 10f:	03 08                	add    ecx,DWORD PTR [eax]
 111:	3a 21                	cmp    ah,BYTE PTR [ecx]
 113:	01 3b                	add    DWORD PTR [ebx],edi
 115:	0b 39                	or     edi,DWORD PTR [ecx]
 117:	0b 49 13             	or     ecx,DWORD PTR [ecx+0x13]
 11a:	00 00                	add    BYTE PTR [eax],al
 11c:	08 0b                	or     BYTE PTR [ebx],cl
 11e:	01 31                	add    DWORD PTR [ecx],esi
 120:	13 11                	adc    edx,DWORD PTR [ecx]
 122:	01 12                	add    DWORD PTR [edx],edx
 124:	06                   	push   es
 125:	01 13                	add    DWORD PTR [ebx],edx
 127:	00 00                	add    BYTE PTR [eax],al
 129:	09 0b                	or     DWORD PTR [ebx],ecx
 12b:	01 31                	add    DWORD PTR [ecx],esi
 12d:	13 55 17             	adc    edx,DWORD PTR [ebp+0x17]
 130:	00 00                	add    BYTE PTR [eax],al
 132:	0a 11                	or     dl,BYTE PTR [ecx]
 134:	01 25 0e 13 0b 03    	add    DWORD PTR ds:0x30b130e,esp
 13a:	1f                   	pop    ds
 13b:	1b 1f                	sbb    ebx,DWORD PTR [edi]
 13d:	55                   	push   ebp
 13e:	17                   	pop    ss
 13f:	11 01                	adc    DWORD PTR [ecx],eax
 141:	10 17                	adc    BYTE PTR [edi],dl
 143:	79 17                	jns    15c <code-0x7ed9>
 145:	00 00                	add    BYTE PTR [eax],al
 147:	0b 24 00             	or     esp,DWORD PTR [eax+eax*1]
 14a:	0b 0b                	or     ecx,DWORD PTR [ebx]
 14c:	3e 0b 03             	or     eax,DWORD PTR ds:[ebx]
 14f:	08 00                	or     BYTE PTR [eax],al
 151:	00 0c 16             	add    BYTE PTR [esi+edx*1],cl
 154:	00 03                	add    BYTE PTR [ebx],al
 156:	0e                   	push   cs
 157:	3a 0b                	cmp    cl,BYTE PTR [ebx]
 159:	3b 0b                	cmp    ecx,DWORD PTR [ebx]
 15b:	39 0b                	cmp    DWORD PTR [ebx],ecx
 15d:	49                   	dec    ecx
 15e:	13 00                	adc    eax,DWORD PTR [eax]
 160:	00 0d 34 00 03 0e    	add    BYTE PTR ds:0xe030034,cl
 166:	3a 0b                	cmp    cl,BYTE PTR [ebx]
 168:	3b 0b                	cmp    ecx,DWORD PTR [ebx]
 16a:	39 0b                	cmp    DWORD PTR [ebx],ecx
 16c:	49                   	dec    ecx
 16d:	13 00                	adc    eax,DWORD PTR [eax]
 16f:	00 0e                	add    BYTE PTR [esi],cl
 171:	26 00 49 13          	add    BYTE PTR es:[ecx+0x13],cl
 175:	00 00                	add    BYTE PTR [eax],al
 177:	0f 2e 01             	ucomiss xmm0,DWORD PTR [ecx]
 17a:	3f                   	aas
 17b:	19 03                	sbb    DWORD PTR [ebx],eax
 17d:	0e                   	push   cs
 17e:	3a 0b                	cmp    cl,BYTE PTR [ebx]
 180:	3b 0b                	cmp    ecx,DWORD PTR [ebx]
 182:	39 0b                	cmp    DWORD PTR [ebx],ecx
 184:	27                   	daa
 185:	19 11                	sbb    DWORD PTR [ecx],edx
 187:	01 12                	add    DWORD PTR [edx],edx
 189:	06                   	push   es
 18a:	40                   	inc    eax
 18b:	18 7a 19             	sbb    BYTE PTR [edx+0x19],bh
 18e:	01 13                	add    DWORD PTR [ebx],edx
 190:	00 00                	add    BYTE PTR [eax],al
 192:	10 05 00 03 08 3a    	adc    BYTE PTR ds:0x3a080300,al
 198:	0b 3b                	or     edi,DWORD PTR [ebx]
 19a:	0b 39                	or     edi,DWORD PTR [ecx]
 19c:	0b 49 13             	or     ecx,DWORD PTR [ecx+0x13]
 19f:	02 17                	add    dl,BYTE PTR [edi]
 1a1:	b7 42                	mov    bh,0x42
 1a3:	17                   	pop    ss
 1a4:	00 00                	add    BYTE PTR [eax],al
 1a6:	11 05 00 03 0e 3a    	adc    DWORD PTR ds:0x3a0e0300,eax
 1ac:	0b 3b                	or     edi,DWORD PTR [ebx]
 1ae:	0b 39                	or     edi,DWORD PTR [ecx]
 1b0:	0b 49 13             	or     ecx,DWORD PTR [ecx+0x13]
 1b3:	02 18                	add    bl,BYTE PTR [eax]
 1b5:	00 00                	add    BYTE PTR [eax],al
 1b7:	12 0b                	adc    cl,BYTE PTR [ebx]
 1b9:	01 11                	add    DWORD PTR [ecx],edx
 1bb:	01 12                	add    DWORD PTR [edx],edx
 1bd:	06                   	push   es
 1be:	01 13                	add    DWORD PTR [ebx],edx
 1c0:	00 00                	add    BYTE PTR [eax],al
 1c2:	13 1d 01 31 13 52    	adc    ebx,DWORD PTR ds:0x52133101
 1c8:	01 b8 42 0b 55 17    	add    DWORD PTR [eax+0x17550b42],edi
 1ce:	58                   	pop    eax
 1cf:	0b 59 0b             	or     ebx,DWORD PTR [ecx+0xb]
 1d2:	57                   	push   edi
 1d3:	0b 00                	or     eax,DWORD PTR [eax]
 1d5:	00 14 0b             	add    BYTE PTR [ebx+ecx*1],dl
 1d8:	01 55 17             	add    DWORD PTR [ebp+0x17],edx
 1db:	00 00                	add    BYTE PTR [eax],al
 1dd:	15 2e 01 3f 19       	adc    eax,0x193f012e
 1e2:	03 0e                	add    ecx,DWORD PTR [esi]
 1e4:	3a 0b                	cmp    cl,BYTE PTR [ebx]
 1e6:	3b 0b                	cmp    ecx,DWORD PTR [ebx]
 1e8:	39 0b                	cmp    DWORD PTR [ebx],ecx
 1ea:	27                   	daa
 1eb:	19 49 13             	sbb    DWORD PTR [ecx+0x13],ecx
 1ee:	20 0b                	and    BYTE PTR [ebx],cl
 1f0:	01 13                	add    DWORD PTR [ebx],edx
 1f2:	00 00                	add    BYTE PTR [eax],al
 1f4:	16                   	push   ss
 1f5:	05 00 03 08 3a       	add    eax,0x3a080300
 1fa:	0b 3b                	or     edi,DWORD PTR [ebx]
 1fc:	0b 39                	or     edi,DWORD PTR [ecx]
 1fe:	0b 49 13             	or     ecx,DWORD PTR [ecx+0x13]
 201:	00 00                	add    BYTE PTR [eax],al
 203:	17                   	pop    ss
 204:	05 00 03 0e 3a       	add    eax,0x3a0e0300
 209:	0b 3b                	or     edi,DWORD PTR [ebx]
 20b:	0b 39                	or     edi,DWORD PTR [ecx]
 20d:	0b 49 13             	or     ecx,DWORD PTR [ecx+0x13]
 210:	00 00                	add    BYTE PTR [eax],al
 212:	18 0b                	sbb    BYTE PTR [ebx],cl
 214:	01 01                	add    DWORD PTR [ecx],eax
 216:	13 00                	adc    eax,DWORD PTR [eax]
 218:	00 19                	add    BYTE PTR [ecx],bl
 21a:	0b 01                	or     eax,DWORD PTR [ecx]
 21c:	00 00                	add    BYTE PTR [eax],al
 21e:	1a 01                	sbb    al,BYTE PTR [ecx]
 220:	01 49 13             	add    DWORD PTR [ecx+0x13],ecx
 223:	01 13                	add    DWORD PTR [ebx],edx
 225:	00 00                	add    BYTE PTR [eax],al
 227:	1b 21                	sbb    esp,DWORD PTR [ecx]
 229:	00 49 13             	add    BYTE PTR [ecx+0x13],cl
 22c:	2f                   	das
 22d:	0b 00                	or     eax,DWORD PTR [eax]
 22f:	00 1c 2e             	add    BYTE PTR [esi+ebp*1],bl
 232:	01 31                	add    DWORD PTR [ecx],esi
 234:	13 11                	adc    edx,DWORD PTR [ecx]
 236:	01 12                	add    DWORD PTR [edx],edx
 238:	06                   	push   es
 239:	40                   	inc    eax
 23a:	18 7a 19             	sbb    BYTE PTR [edx+0x19],bh
 23d:	00 00                	add    BYTE PTR [eax],al
 23f:	1d 05 00 31 13       	sbb    eax,0x13310005
 244:	02 18                	add    bl,BYTE PTR [eax]
 246:	00 00                	add    BYTE PTR [eax],al
 248:	00 01                	add    BYTE PTR [ecx],al
 24a:	24 00                	and    al,0x0
 24c:	0b 0b                	or     ecx,DWORD PTR [ebx]
 24e:	3e 0b 03             	or     eax,DWORD PTR ds:[ebx]
 251:	0e                   	push   cs
 252:	00 00                	add    BYTE PTR [eax],al
 254:	02 0d 00 03 0e 3a    	add    cl,BYTE PTR ds:0x3a0e0300
 25a:	21 03                	and    DWORD PTR [ebx],eax
 25c:	3b 0b                	cmp    ecx,DWORD PTR [ebx]
 25e:	39 0b                	cmp    DWORD PTR [ebx],ecx
 260:	49                   	dec    ecx
 261:	13 38                	adc    edi,DWORD PTR [eax]
 263:	0b 00                	or     eax,DWORD PTR [eax]
 265:	00 03                	add    BYTE PTR [ebx],al
 267:	05 00 49 13 00       	add    eax,0x134900
 26c:	00 04 16             	add    BYTE PTR [esi+edx*1],al
 26f:	00 03                	add    BYTE PTR [ebx],al
 271:	0e                   	push   cs
 272:	3a 21                	cmp    ah,BYTE PTR [ecx]
 274:	02 3b                	add    bh,BYTE PTR [ebx]
 276:	0b 39                	or     edi,DWORD PTR [ecx]
 278:	0b 49 13             	or     ecx,DWORD PTR [ecx+0x13]
 27b:	00 00                	add    BYTE PTR [eax],al
 27d:	05 0d 00 03 0e       	add    eax,0xe03000d
 282:	3a 21                	cmp    ah,BYTE PTR [ecx]
 284:	03 3b                	add    edi,DWORD PTR [ebx]
 286:	0b 39                	or     edi,DWORD PTR [ecx]
 288:	21 0b                	and    DWORD PTR [ebx],ecx
 28a:	49                   	dec    ecx
 28b:	13 0d 0b 6b 0b 00    	adc    ecx,DWORD PTR ds:0xb6b0b
 291:	00 06                	add    BYTE PTR [esi],al
 293:	0f 00 0b             	str    WORD PTR [ebx]
 296:	21 04 49             	and    DWORD PTR [ecx+ecx*2],eax
 299:	13 00                	adc    eax,DWORD PTR [eax]
 29b:	00 07                	add    BYTE PTR [edi],al
 29d:	48                   	dec    eax
 29e:	00 7d 01             	add    BYTE PTR [ebp+0x1],bh
 2a1:	7f 13                	jg     2b6 <code-0x7d7f>
 2a3:	00 00                	add    BYTE PTR [eax],al
 2a5:	08 13                	or     BYTE PTR [ebx],dl
 2a7:	01 03                	add    DWORD PTR [ebx],eax
 2a9:	0e                   	push   cs
 2aa:	0b 0b                	or     ecx,DWORD PTR [ebx]
 2ac:	3a 21                	cmp    ah,BYTE PTR [ecx]
 2ae:	03 3b                	add    edi,DWORD PTR [ebx]
 2b0:	0b 39                	or     edi,DWORD PTR [ecx]
 2b2:	21 08                	and    DWORD PTR [eax],ecx
 2b4:	01 13                	add    DWORD PTR [ebx],edx
 2b6:	00 00                	add    BYTE PTR [eax],al
 2b8:	09 11                	or     DWORD PTR [ecx],edx
 2ba:	01 25 0e 13 0b 03    	add    DWORD PTR ds:0x30b130e,esp
 2c0:	1f                   	pop    ds
 2c1:	1b 1f                	sbb    ebx,DWORD PTR [edi]
 2c3:	55                   	push   ebp
 2c4:	17                   	pop    ss
 2c5:	11 01                	adc    DWORD PTR [ecx],eax
 2c7:	10 17                	adc    BYTE PTR [edi],dl
 2c9:	79 17                	jns    2e2 <code-0x7d53>
 2cb:	00 00                	add    BYTE PTR [eax],al
 2cd:	0a 24 00             	or     ah,BYTE PTR [eax+eax*1]
 2d0:	0b 0b                	or     ecx,DWORD PTR [ebx]
 2d2:	3e 0b 03             	or     eax,DWORD PTR ds:[ebx]
 2d5:	08 00                	or     BYTE PTR [eax],al
 2d7:	00 0b                	add    BYTE PTR [ebx],cl
 2d9:	01 01                	add    DWORD PTR [ecx],eax
 2db:	49                   	dec    ecx
 2dc:	13 01                	adc    eax,DWORD PTR [ecx]
 2de:	13 00                	adc    eax,DWORD PTR [eax]
 2e0:	00 0c 21             	add    BYTE PTR [ecx+eiz*1],cl
 2e3:	00 49 13             	add    BYTE PTR [ecx+0x13],cl
 2e6:	2f                   	das
 2e7:	0b 00                	or     eax,DWORD PTR [eax]
 2e9:	00 0d 34 00 03 0e    	add    BYTE PTR ds:0xe030034,cl
 2ef:	3a 0b                	cmp    cl,BYTE PTR [ebx]
 2f1:	3b 0b                	cmp    ecx,DWORD PTR [ebx]
 2f3:	39 0b                	cmp    DWORD PTR [ebx],ecx
 2f5:	49                   	dec    ecx
 2f6:	13 02                	adc    eax,DWORD PTR [edx]
 2f8:	18 00                	sbb    BYTE PTR [eax],al
 2fa:	00 0e                	add    BYTE PTR [esi],cl
 2fc:	34 00                	xor    al,0x0
 2fe:	03 0e                	add    ecx,DWORD PTR [esi]
 300:	3a 0b                	cmp    cl,BYTE PTR [ebx]
 302:	3b 0b                	cmp    ecx,DWORD PTR [ebx]
 304:	39 0b                	cmp    DWORD PTR [ebx],ecx
 306:	49                   	dec    ecx
 307:	13 3f                	adc    edi,DWORD PTR [edi]
 309:	19 02                	sbb    DWORD PTR [edx],eax
 30b:	18 00                	sbb    BYTE PTR [eax],al
 30d:	00 0f                	add    BYTE PTR [edi],cl
 30f:	2e 01 3f             	add    DWORD PTR cs:[edi],edi
 312:	19 03                	sbb    DWORD PTR [ebx],eax
 314:	0e                   	push   cs
 315:	3a 0b                	cmp    cl,BYTE PTR [ebx]
 317:	3b 0b                	cmp    ecx,DWORD PTR [ebx]
 319:	39 0b                	cmp    DWORD PTR [ebx],ecx
 31b:	27                   	daa
 31c:	19 3c 19             	sbb    DWORD PTR [ecx+ebx*1],edi
 31f:	01 13                	add    DWORD PTR [ebx],edx
 321:	00 00                	add    BYTE PTR [eax],al
 323:	10 15 00 27 19 00    	adc    BYTE PTR ds:0x192700,dl
 329:	00 11                	add    BYTE PTR [ecx],dl
 32b:	2e 01 3f             	add    DWORD PTR cs:[edi],edi
 32e:	19 03                	sbb    DWORD PTR [ebx],eax
 330:	0e                   	push   cs
 331:	3a 0b                	cmp    cl,BYTE PTR [ebx]
 333:	3b 0b                	cmp    ecx,DWORD PTR [ebx]
 335:	39 0b                	cmp    DWORD PTR [ebx],ecx
 337:	27                   	daa
 338:	19 49 13             	sbb    DWORD PTR [ecx+0x13],ecx
 33b:	3c 19                	cmp    al,0x19
 33d:	01 13                	add    DWORD PTR [ebx],edx
 33f:	00 00                	add    BYTE PTR [eax],al
 341:	12 26                	adc    ah,BYTE PTR [esi]
 343:	00 49 13             	add    BYTE PTR [ecx+0x13],cl
 346:	00 00                	add    BYTE PTR [eax],al
 348:	13 2e                	adc    ebp,DWORD PTR [esi]
 34a:	01 3f                	add    DWORD PTR [edi],edi
 34c:	19 03                	sbb    DWORD PTR [ebx],eax
 34e:	0e                   	push   cs
 34f:	3a 0b                	cmp    cl,BYTE PTR [ebx]
 351:	3b 0b                	cmp    ecx,DWORD PTR [ebx]
 353:	39 0b                	cmp    DWORD PTR [ebx],ecx
 355:	27                   	daa
 356:	19 49 13             	sbb    DWORD PTR [ecx+0x13],ecx
 359:	11 01                	adc    DWORD PTR [ecx],eax
 35b:	12 06                	adc    al,BYTE PTR [esi]
 35d:	40                   	inc    eax
 35e:	18 7a 19             	sbb    BYTE PTR [edx+0x19],bh
 361:	01 13                	add    DWORD PTR [ebx],edx
 363:	00 00                	add    BYTE PTR [eax],al
 365:	14 2e                	adc    al,0x2e
 367:	01 3f                	add    DWORD PTR [edi],edi
 369:	19 03                	sbb    DWORD PTR [ebx],eax
 36b:	0e                   	push   cs
 36c:	3a 0b                	cmp    cl,BYTE PTR [ebx]
 36e:	3b 0b                	cmp    ecx,DWORD PTR [ebx]
 370:	39 0b                	cmp    DWORD PTR [ebx],ecx
 372:	27                   	daa
 373:	19 11                	sbb    DWORD PTR [ecx],edx
 375:	01 12                	add    DWORD PTR [edx],edx
 377:	06                   	push   es
 378:	40                   	inc    eax
 379:	18 7a 19             	sbb    BYTE PTR [edx+0x19],bh
 37c:	01 13                	add    DWORD PTR [ebx],edx
 37e:	00 00                	add    BYTE PTR [eax],al
 380:	15 2e 01 3f 19       	adc    eax,0x193f012e
 385:	03 0e                	add    ecx,DWORD PTR [esi]
 387:	3a 0b                	cmp    cl,BYTE PTR [ebx]
 389:	3b 0b                	cmp    ecx,DWORD PTR [ebx]
 38b:	39 0b                	cmp    DWORD PTR [ebx],ecx
 38d:	27                   	daa
 38e:	19 87 01 19 11 01    	sbb    DWORD PTR [edi+0x1111901],eax
 394:	12 06                	adc    al,BYTE PTR [esi]
 396:	40                   	inc    eax
 397:	18 7a 19             	sbb    BYTE PTR [edx+0x19],bh
 39a:	00 00                	add    BYTE PTR [eax],al
	...

Disassembly of section .debug_loclists:

00000000 <.debug_loclists>:
   0:	13 00                	adc    eax,DWORD PTR [eax]
   2:	00 00                	add    BYTE PTR [eax],al
   4:	05 00 04 00 00       	add    eax,0x400
   9:	00 00                	add    BYTE PTR [eax],al
   b:	00 00                	add    BYTE PTR [eax],al
   d:	00 08                	add    BYTE PTR [eax],cl
   f:	8a 80 00 00 3d 01    	mov    al,BYTE PTR [eax+0x13d0000]
  15:	52                   	push   edx
  16:	00 c2                	add    dl,al
  18:	00 00                	add    BYTE PTR [eax],al
  1a:	00 05 00 04 00 00    	add    BYTE PTR ds:0x400,al
  20:	00 00                	add    BYTE PTR [eax],al
  22:	00 00                	add    BYTE PTR [eax],al
  24:	02 02                	add    al,BYTE PTR [edx]
  26:	00 00                	add    BYTE PTR [eax],al
  28:	00 00                	add    BYTE PTR [eax],al
  2a:	00 06                	add    BYTE PTR [esi],al
  2c:	50                   	push   eax
  2d:	81 00 00 04 00 12    	add    DWORD PTR [eax],0x12000400
  33:	02 91 00 04 12 57    	add    dl,BYTE PTR [ecx+0x57120400]
  39:	01 51 04             	add    DWORD PTR [ecx+0x4],edx
  3c:	57                   	push   edi
  3d:	62 01                	bound  eax,QWORD PTR [ecx]
  3f:	52                   	push   edx
  40:	04 df                	add    al,0xdf
  42:	01 ea                	add    edx,ebp
  44:	01 01                	add    DWORD PTR [ecx],eax
  46:	51                   	push   ecx
  47:	00 02                	add    BYTE PTR [edx],al
  49:	00 00                	add    BYTE PTR [eax],al
  4b:	02 00                	add    al,BYTE PTR [eax]
  4d:	00 06                	add    BYTE PTR [esi],al
  4f:	50                   	push   eax
  50:	81 00 00 04 00 66    	add    DWORD PTR [eax],0x66000400
  56:	02 30                	add    dh,BYTE PTR [eax]
  58:	9f                   	lahf
  59:	04 66                	add    al,0x66
  5b:	89 01                	mov    DWORD PTR [ecx],eax
  5d:	01 50 04             	add    DWORD PTR [eax+0x4],edx
  60:	df 01                	fild   WORD PTR [ecx]
  62:	ea 01 02 30 9f 00 01 	jmp    0x100:0x9f300201
  69:	00 00                	add    BYTE PTR [eax],al
  6b:	00 00                	add    BYTE PTR [eax],al
  6d:	00 06                	add    BYTE PTR [esi],al
  6f:	62 81 00 00 04 00    	bound  eax,QWORD PTR [ecx+0x40000]
  75:	0f 02 30             	lar    esi,WORD PTR [eax]
  78:	9f                   	lahf
  79:	04 0f                	add    al,0xf
  7b:	50                   	push   eax
  7c:	01 56 04             	add    DWORD PTR [esi+0x4],edx
  7f:	cd 01                	int    0x1
  81:	d8 01                	fadd   DWORD PTR [ecx]
  83:	02 30                	add    dh,BYTE PTR [eax]
  85:	9f                   	lahf
  86:	00 01                	add    BYTE PTR [ecx],al
  88:	00 00                	add    BYTE PTR [eax],al
  8a:	00 06                	add    BYTE PTR [esi],al
  8c:	71 81                	jno    f <code-0x8026>
  8e:	00 00                	add    BYTE PTR [eax],al
  90:	04 00                	add    al,0x0
  92:	36 07                	ss pop es
  94:	71 00                	jno    96 <code-0x7f9f>
  96:	3a 1d 23 30 9f 04    	cmp    bl,BYTE PTR ds:0x49f3023
  9c:	36 41                	ss inc ecx
  9e:	07                   	pop    es
  9f:	73 00                	jae    a1 <code-0x7f94>
  a1:	3a 1d 23 30 9f 00    	cmp    bl,BYTE PTR ds:0x9f3023
  a7:	01 02                	add    DWORD PTR [edx],eax
  a9:	08 b6 81 00 00 23    	or     BYTE PTR [esi+0x23000081],dh
  af:	01 50 00             	add    DWORD PTR [eax+0x0],edx
  b2:	01 00                	add    DWORD PTR [eax],eax
  b4:	00 00                	add    BYTE PTR [eax],al
  b6:	06                   	push   es
  b7:	b6 81                	mov    dh,0x81
  b9:	00 00                	add    BYTE PTR [eax],al
  bb:	04 00                	add    al,0x0
  bd:	27                   	daa
  be:	02 91 04 04 2e 79    	add    dl,BYTE PTR [ecx+0x792e0404]
  c4:	01 57 00             	add    DWORD PTR [edi+0x0],edx
  c7:	00 00                	add    BYTE PTR [eax],al
  c9:	00 02                	add    BYTE PTR [edx],al
  cb:	08 d0                	or     al,dl
  cd:	80 00 00             	add    BYTE PTR [eax],0x0
  d0:	2a 02                	sub    al,BYTE PTR [edx]
  d2:	91                   	xchg   ecx,eax
  d3:	00 08                	add    BYTE PTR [eax],cl
  d5:	fa                   	cli
  d6:	80 00 00             	add    BYTE PTR [eax],0x0
  d9:	00 01                	add    BYTE PTR [ecx],al
  db:	50                   	push   eax
	...

Disassembly of section .debug_aranges:

00000000 <.debug_aranges>:
   0:	1c 00                	sbb    al,0x0
   2:	00 00                	add    BYTE PTR [eax],al
   4:	02 00                	add    al,BYTE PTR [eax]
   6:	00 00                	add    BYTE PTR [eax],al
   8:	00 00                	add    BYTE PTR [eax],al
   a:	04 00                	add    al,0x0
   c:	00 00                	add    BYTE PTR [eax],al
   e:	00 00                	add    BYTE PTR [eax],al
  10:	70 80                	jo     ffffff92 <end+0xffff7aba>
  12:	00 00                	add    BYTE PTR [eax],al
  14:	57                   	push   edi
	...
  1d:	00 00                	add    BYTE PTR [eax],al
  1f:	00 24 00             	add    BYTE PTR [eax+eax*1],ah
  22:	00 00                	add    BYTE PTR [eax],al
  24:	02 00                	add    al,BYTE PTR [eax]
  26:	52                   	push   edx
  27:	01 00                	add    DWORD PTR [eax],eax
  29:	00 04 00             	add    BYTE PTR [eax+eax*1],al
  2c:	00 00                	add    BYTE PTR [eax],al
  2e:	00 00                	add    BYTE PTR [eax],al
  30:	d0 80 00 00 7f 00    	rol    BYTE PTR [eax+0x7f0000],1
  36:	00 00                	add    BYTE PTR [eax],al
  38:	50                   	push   eax
  39:	81 00 00 ea 00 00    	add    DWORD PTR [eax],0xea00
	...
  47:	00 2c 00             	add    BYTE PTR [eax+eax*1],ch
  4a:	00 00                	add    BYTE PTR [eax],al
  4c:	02 00                	add    al,BYTE PTR [eax]
  4e:	aa                   	stos   BYTE PTR es:[edi],al
  4f:	03 00                	add    eax,DWORD PTR [eax]
  51:	00 04 00             	add    BYTE PTR [eax+eax*1],al
  54:	00 00                	add    BYTE PTR [eax],al
  56:	00 00                	add    BYTE PTR [eax],al
  58:	40                   	inc    eax
  59:	82 00 00             	add    BYTE PTR [eax],0x0
  5c:	16                   	push   ss
  5d:	00 00                	add    BYTE PTR [eax],al
  5f:	00 60 82             	add    BYTE PTR [eax-0x7e],ah
  62:	00 00                	add    BYTE PTR [eax],al
  64:	22 00                	and    al,BYTE PTR [eax]
  66:	00 00                	add    BYTE PTR [eax],al
  68:	40                   	inc    eax
  69:	80 00 00             	add    BYTE PTR [eax],0x0
  6c:	22 00                	and    al,BYTE PTR [eax]
	...

Disassembly of section .debug_rnglists:

00000000 <.debug_rnglists>:
   0:	0f 00 00             	sldt   WORD PTR [eax]
   3:	00 05 00 04 00 00    	add    BYTE PTR ds:0x400,al
   9:	00 00                	add    BYTE PTR [eax],al
   b:	00 07                	add    BYTE PTR [edi],al
   d:	70 80                	jo     ffffff8f <end+0xffff7ab7>
   f:	00 00                	add    BYTE PTR [eax],al
  11:	57                   	push   edi
  12:	00 3a                	add    BYTE PTR [edx],bh
  14:	00 00                	add    BYTE PTR [eax],al
  16:	00 05 00 04 00 00    	add    BYTE PTR ds:0x400,al
  1c:	00 00                	add    BYTE PTR [eax],al
  1e:	00 05 08 81 00 00    	add    BYTE PTR ds:0x8108,al
  24:	04 00                	add    al,0x0
  26:	3c 04                	cmp    al,0x4
  28:	3f                   	aas
  29:	43                   	inc    ebx
  2a:	00 05 b6 81 00 00    	add    BYTE PTR ds:0x81b6,al
  30:	04 00                	add    al,0x0
  32:	27                   	daa
  33:	04 32                	add    al,0x32
  35:	7a 00                	jp     37 <code-0x7ffe>
  37:	05 e8 81 00 00       	add    eax,0x81e8
  3c:	04 00                	add    al,0x0
  3e:	3c 04                	cmp    al,0x4
  40:	3f                   	aas
  41:	43                   	inc    ebx
  42:	00 07                	add    BYTE PTR [edi],al
  44:	d0 80 00 00 7f 07    	rol    BYTE PTR [eax+0x77f0000],1
  4a:	50                   	push   eax
  4b:	81 00 00 ea 01 00    	add    DWORD PTR [eax],0x1ea00
  51:	1b 00                	sbb    eax,DWORD PTR [eax]
  53:	00 00                	add    BYTE PTR [eax],al
  55:	05 00 04 00 00       	add    eax,0x400
  5a:	00 00                	add    BYTE PTR [eax],al
  5c:	00 07                	add    BYTE PTR [edi],al
  5e:	40                   	inc    eax
  5f:	82 00 00             	add    BYTE PTR [eax],0x0
  62:	16                   	push   ss
  63:	07                   	pop    es
  64:	60                   	pusha
  65:	82 00 00             	add    BYTE PTR [eax],0x0
  68:	22 07                	and    al,BYTE PTR [edi]
  6a:	40                   	inc    eax
  6b:	80 00 00             	add    BYTE PTR [eax],0x0
  6e:	22 00                	and    al,BYTE PTR [eax]

Disassembly of section .debug_macro:

00000000 <.debug_macro>:
       0:	05 00 02 00 00       	add    eax,0x200
       5:	00 00                	add    BYTE PTR [eax],al
       7:	07                   	pop    es
       8:	34 00                	xor    al,0x0
       a:	00 00                	add    BYTE PTR [eax],al
       c:	03 00                	add    eax,DWORD PTR [eax]
       e:	01 03                	add    DWORD PTR [ebx],eax
      10:	01 03                	add    DWORD PTR [ebx],eax
      12:	05 02 fe 02 00       	add    eax,0x2fe02
      17:	00 03                	add    BYTE PTR [ebx],al
      19:	04 04                	add    al,0x4
      1b:	03 0b                	add    ecx,DWORD PTR [ebx]
      1d:	02 07                	add    al,BYTE PTR [edi]
      1f:	50                   	push   eax
      20:	09 00                	or     DWORD PTR [eax],eax
      22:	00 04 05 0d 51 0c 00 	add    BYTE PTR [eax*1+0xc510d],al
      29:	00 04 04             	add    BYTE PTR [esp+eax*1],al
      2c:	05 03 4f 2c 00       	add    eax,0x2c4f03
      31:	00 04 00             	add    BYTE PTR [eax+eax*1],al
      34:	05 00 00 05 00       	add    eax,0x50000
      39:	ef                   	out    dx,eax
      3a:	1e                   	push   ds
      3b:	00 00                	add    BYTE PTR [eax],al
      3d:	05 00 7e 03 00       	add    eax,0x37e00
      42:	00 05 00 93 21 00    	add    BYTE PTR ds:0x219300,al
      48:	00 05 00 38 0a 00    	add    BYTE PTR ds:0xa3800,al
      4e:	00 05 00 ce 2e 00    	add    BYTE PTR ds:0x2ece00,al
      54:	00 05 00 0b 0f 00    	add    BYTE PTR ds:0xf0b00,al
      5a:	00 05 00 0f 05 00    	add    BYTE PTR ds:0x50f00,al
      60:	00 05 00 b6 20 00    	add    BYTE PTR ds:0x20b600,al
      66:	00 05 00 0c 1d 00    	add    BYTE PTR ds:0x1d0c00,al
      6c:	00 05 00 bb 2e 00    	add    BYTE PTR ds:0x2ebb00,al
      72:	00 05 00 82 08 00    	add    BYTE PTR ds:0x88200,al
      78:	00 05 00 1e 24 00    	add    BYTE PTR ds:0x241e00,al
      7e:	00 05 00 9a 07 00    	add    BYTE PTR ds:0x79a00,al
      84:	00 05 00 36 30 00    	add    BYTE PTR ds:0x303600,al
      8a:	00 05 00 3b 1f 00    	add    BYTE PTR ds:0x1f3b00,al
      90:	00 05 00 37 08 00    	add    BYTE PTR ds:0x83700,al
      96:	00 05 00 79 1c 00    	add    BYTE PTR ds:0x1c7900,al
      9c:	00 05 00 3e 19 00    	add    BYTE PTR ds:0x193e00,al
      a2:	00 05 00 14 1f 00    	add    BYTE PTR ds:0x1f1400,al
      a8:	00 05 00 08 2b 00    	add    BYTE PTR ds:0x2b0800,al
      ae:	00 05 00 95 08 00    	add    BYTE PTR ds:0x89500,al
      b4:	00 05 00 a8 35 00    	add    BYTE PTR ds:0x35a800,al
      ba:	00 05 00 a2 20 00    	add    BYTE PTR ds:0x20a200,al
      c0:	00 05 00 0e 10 00    	add    BYTE PTR ds:0x100e00,al
      c6:	00 05 00 28 06 00    	add    BYTE PTR ds:0x62800,al
      cc:	00 05 00 ac 2e 00    	add    BYTE PTR ds:0x2eac00,al
      d2:	00 05 00 bb 35 00    	add    BYTE PTR ds:0x35bb00,al
      d8:	00 05 00 15 12 00    	add    BYTE PTR ds:0x121500,al
      de:	00 05 00 b9 06 00    	add    BYTE PTR ds:0x6b900,al
      e4:	00 05 00 63 25 00    	add    BYTE PTR ds:0x256300,al
      ea:	00 05 00 3e 09 00    	add    BYTE PTR ds:0x93e00,al
      f0:	00 05 00 de 22 00    	add    BYTE PTR ds:0x22de00,al
      f6:	00 05 00 3a 2c 00    	add    BYTE PTR ds:0x2c3a00,al
      fc:	00 05 00 bd 0a 00    	add    BYTE PTR ds:0xabd00,al
     102:	00 05 00 52 31 00    	add    BYTE PTR ds:0x315200,al
     108:	00 05 00 f3 31 00    	add    BYTE PTR ds:0x31f300,al
     10e:	00 05 00 52 1e 00    	add    BYTE PTR ds:0x1e5200,al
     114:	00 05 00 65 2e 00    	add    BYTE PTR ds:0x2e6500,al
     11a:	00 05 00 d4 1f 00    	add    BYTE PTR ds:0x1fd400,al
     120:	00 05 00 e0 33 00    	add    BYTE PTR ds:0x33e000,al
     126:	00 05 00 ab 24 00    	add    BYTE PTR ds:0x24ab00,al
     12c:	00 05 00 8a 29 00    	add    BYTE PTR ds:0x298a00,al
     132:	00 05 00 3c 06 00    	add    BYTE PTR ds:0x63c00,al
     138:	00 05 00 dc 27 00    	add    BYTE PTR ds:0x27dc00,al
     13e:	00 05 00 c0 39 00    	add    BYTE PTR ds:0x39c000,al
     144:	00 05 00 59 29 00    	add    BYTE PTR ds:0x295900,al
     14a:	00 05 00 e4 07 00    	add    BYTE PTR ds:0x7e400,al
     150:	00 05 00 f5 12 00    	add    BYTE PTR ds:0x12f500,al
     156:	00 05 00 a4 15 00    	add    BYTE PTR ds:0x15a400,al
     15c:	00 05 00 5d 2b 00    	add    BYTE PTR ds:0x2b5d00,al
     162:	00 05 00 f7 14 00    	add    BYTE PTR ds:0x14f700,al
     168:	00 05 00 f9 29 00    	add    BYTE PTR ds:0x29f900,al
     16e:	00 05 00 13 35 00    	add    BYTE PTR ds:0x351300,al
     174:	00 05 00 c0 08 00    	add    BYTE PTR ds:0x8c000,al
     17a:	00 05 00 55 1a 00    	add    BYTE PTR ds:0x1a5500,al
     180:	00 05 00 ed 0b 00    	add    BYTE PTR ds:0xbed00,al
     186:	00 05 00 f0 2b 00    	add    BYTE PTR ds:0x2bf000,al
     18c:	00 05 00 8d 0b 00    	add    BYTE PTR ds:0xb8d00,al
     192:	00 05 00 7d 25 00    	add    BYTE PTR ds:0x257d00,al
     198:	00 05 00 a0 32 00    	add    BYTE PTR ds:0x32a000,al
     19e:	00 05 00 1b 07 00    	add    BYTE PTR ds:0x71b00,al
     1a4:	00 05 00 f4 0a 00    	add    BYTE PTR ds:0xaf400,al
     1aa:	00 05 00 b5 14 00    	add    BYTE PTR ds:0x14b500,al
     1b0:	00 05 00 a6 33 00    	add    BYTE PTR ds:0x33a600,al
     1b6:	00 05 00 b0 0b 00    	add    BYTE PTR ds:0xbb000,al
     1bc:	00 05 00 0f 29 00    	add    BYTE PTR ds:0x290f00,al
     1c2:	00 05 00 12 17 00    	add    BYTE PTR ds:0x171200,al
     1c8:	00 05 00 80 31 00    	add    BYTE PTR ds:0x318000,al
     1ce:	00 05 00 55 22 00    	add    BYTE PTR ds:0x225500,al
     1d4:	00 05 00 e7 30 00    	add    BYTE PTR ds:0x30e700,al
     1da:	00 05 00 b4 0c 00    	add    BYTE PTR ds:0xcb400,al
     1e0:	00 05 00 0a 18 00    	add    BYTE PTR ds:0x180a00,al
     1e6:	00 05 00 8e 0a 00    	add    BYTE PTR ds:0xa8e00,al
     1ec:	00 05 00 39 25 00    	add    BYTE PTR ds:0x253900,al
     1f2:	00 05 00 83 07 00    	add    BYTE PTR ds:0x78300,al
     1f8:	00 05 00 ef 1f 00    	add    BYTE PTR ds:0x1fef00,al
     1fe:	00 05 00 7d 15 00    	add    BYTE PTR ds:0x157d00,al
     204:	00 05 00 24 09 00    	add    BYTE PTR ds:0x92400,al
     20a:	00 05 00 ea 09 00    	add    BYTE PTR ds:0x9ea00,al
     210:	00 05 00 a0 11 00    	add    BYTE PTR ds:0x11a000,al
     216:	00 05 00 0a 21 00    	add    BYTE PTR ds:0x210a00,al
     21c:	00 05 00 63 0e 00    	add    BYTE PTR ds:0xe6300,al
     222:	00 05 00 3e 0b 00    	add    BYTE PTR ds:0xb3e00,al
     228:	00 05 00 1d 20 00    	add    BYTE PTR ds:0x201d00,al
     22e:	00 05 00 7a 2b 00    	add    BYTE PTR ds:0x2b7a00,al
     234:	00 05 00 5a 2d 00    	add    BYTE PTR ds:0x2d5a00,al
     23a:	00 05 00 0c 24 00    	add    BYTE PTR ds:0x240c00,al
     240:	00 05 00 ec 05 00    	add    BYTE PTR ds:0x5ec00,al
     246:	00 05 00 1a 15 00    	add    BYTE PTR ds:0x151a00,al
     24c:	00 05 00 f9 25 00    	add    BYTE PTR ds:0x25f900,al
     252:	00 05 00 fb 2c 00    	add    BYTE PTR ds:0x2cfb00,al
     258:	00 05 00 30 23 00    	add    BYTE PTR ds:0x233000,al
     25e:	00 05 00 fa 1e 00    	add    BYTE PTR ds:0x1efa00,al
     264:	00 05 00 7c 11 00    	add    BYTE PTR ds:0x117c00,al
     26a:	00 05 00 50 28 00    	add    BYTE PTR ds:0x285000,al
     270:	00 05 00 86 2e 00    	add    BYTE PTR ds:0x2e8600,al
     276:	00 05 00 f6 08 00    	add    BYTE PTR ds:0x8f600,al
     27c:	00 05 00 0e 1a 00    	add    BYTE PTR ds:0x1a0e00,al
     282:	00 05 00 3f 00 00    	add    BYTE PTR ds:0x3f00,al
     288:	00 05 00 bd 23 00    	add    BYTE PTR ds:0x23bd00,al
     28e:	00 05 00 f5 24 00    	add    BYTE PTR ds:0x24f500,al
     294:	00 05 00 73 0f 00    	add    BYTE PTR ds:0xf7300,al
     29a:	00 05 00 08 20 00    	add    BYTE PTR ds:0x200800,al
     2a0:	00 05 00 f3 23 00    	add    BYTE PTR ds:0x23f300,al
     2a6:	00 05 00 49 30 00    	add    BYTE PTR ds:0x304900,al
     2ac:	00 05 00 66 19 00    	add    BYTE PTR ds:0x196600,al
     2b2:	00 05 00 79 19 00    	add    BYTE PTR ds:0x197900,al
     2b8:	00 05 00 f3 19 00    	add    BYTE PTR ds:0x19f300,al
     2be:	00 05 00 2d 1e 00    	add    BYTE PTR ds:0x1e2d00,al
     2c4:	00 05 00 a8 08 00    	add    BYTE PTR ds:0x8a800,al
     2ca:	00 05 00 bd 1a 00    	add    BYTE PTR ds:0x1abd00,al
     2d0:	00 05 00 4f 19 00    	add    BYTE PTR ds:0x194f00,al
     2d6:	00 05 00 4a 0a 00    	add    BYTE PTR ds:0xa4a00,al
     2dc:	00 05 00 da 1d 00    	add    BYTE PTR ds:0x1dda00,al
     2e2:	00 05 00 06 0c 00    	add    BYTE PTR ds:0xc0600,al
     2e8:	00 05 00 7f 38 00    	add    BYTE PTR ds:0x387f00,al
     2ee:	00 05 00 31 29 00    	add    BYTE PTR ds:0x293100,al
     2f4:	00 05 00 39 31 00    	add    BYTE PTR ds:0x313900,al
     2fa:	00 05 00 9e 18 00    	add    BYTE PTR ds:0x189e00,al
     300:	00 05 00 82 2a 00    	add    BYTE PTR ds:0x2a8200,al
     306:	00 05 00 cb 11 00    	add    BYTE PTR ds:0x11cb00,al
     30c:	00 05 00 17 0f 00    	add    BYTE PTR ds:0xf1700,al
     312:	00 05 00 f8 06 00    	add    BYTE PTR ds:0x6f800,al
     318:	00 05 00 98 0e 00    	add    BYTE PTR ds:0xe9800,al
     31e:	00 05 00 31 24 00    	add    BYTE PTR ds:0x243100,al
     324:	00 05 00 4f 37 00    	add    BYTE PTR ds:0x374f00,al
     32a:	00 05 00 2f 20 00    	add    BYTE PTR ds:0x202f00,al
     330:	00 05 00 d3 0f 00    	add    BYTE PTR ds:0xfd300,al
     336:	00 05 00 a4 2d 00    	add    BYTE PTR ds:0x2da400,al
     33c:	00 05 00 80 26 00    	add    BYTE PTR ds:0x268000,al
     342:	00 05 00 29 14 00    	add    BYTE PTR ds:0x142900,al
     348:	00 05 00 84 0d 00    	add    BYTE PTR ds:0xd8400,al
     34e:	00 05 00 7a 01 00    	add    BYTE PTR ds:0x17a00,al
     354:	00 05 00 67 1e 00    	add    BYTE PTR ds:0x1e6700,al
     35a:	00 05 00 8e 1f 00    	add    BYTE PTR ds:0x1f8e00,al
     360:	00 05 00 3f 0d 00    	add    BYTE PTR ds:0xd3f00,al
     366:	00 05 00 27 3b 00    	add    BYTE PTR ds:0x3b2700,al
     36c:	00 05 00 d7 10 00    	add    BYTE PTR ds:0x10d700,al
     372:	00 05 00 f2 16 00    	add    BYTE PTR ds:0x16f200,al
     378:	00 05 00 62 2a 00    	add    BYTE PTR ds:0x2a6200,al
     37e:	00 05 00 38 2a 00    	add    BYTE PTR ds:0x2a3800,al
     384:	00 05 00 fa 2e 00    	add    BYTE PTR ds:0x2efa00,al
     38a:	00 05 00 47 1c 00    	add    BYTE PTR ds:0x1c4700,al
     390:	00 05 00 98 37 00    	add    BYTE PTR ds:0x379800,al
     396:	00 05 00 37 0e 00    	add    BYTE PTR ds:0xe3700,al
     39c:	00 05 00 81 22 00    	add    BYTE PTR ds:0x228100,al
     3a2:	00 05 00 db 00 00    	add    BYTE PTR ds:0xdb00,al
     3a8:	00 05 00 5b 33 00    	add    BYTE PTR ds:0x335b00,al
     3ae:	00 05 00 fb 30 00    	add    BYTE PTR ds:0x30fb00,al
     3b4:	00 05 00 fe 0f 00    	add    BYTE PTR ds:0xffe00,al
     3ba:	00 05 00 39 16 00    	add    BYTE PTR ds:0x163900,al
     3c0:	00 05 00 76 0d 00    	add    BYTE PTR ds:0xd7600,al
     3c6:	00 05 00 48 36 00    	add    BYTE PTR ds:0x364800,al
     3cc:	00 05 00 08 01 00    	add    BYTE PTR ds:0x10800,al
     3d2:	00 05 00 22 30 00    	add    BYTE PTR ds:0x302200,al
     3d8:	00 05 00 c1 15 00    	add    BYTE PTR ds:0x15c100,al
     3de:	00 05 00 b5 25 00    	add    BYTE PTR ds:0x25b500,al
     3e4:	00 05 00 34 17 00    	add    BYTE PTR ds:0x173400,al
     3ea:	00 05 00 57 21 00    	add    BYTE PTR ds:0x215700,al
     3f0:	00 05 00 8e 30 00    	add    BYTE PTR ds:0x308e00,al
     3f6:	00 05 00 dd 32 00    	add    BYTE PTR ds:0x32dd00,al
     3fc:	00 05 00 1c 2d 00    	add    BYTE PTR ds:0x2d1c00,al
     402:	00 05 00 12 3b 00    	add    BYTE PTR ds:0x3b1200,al
     408:	00 05 00 a0 1e 00    	add    BYTE PTR ds:0x1ea000,al
     40e:	00 05 00 be 33 00    	add    BYTE PTR ds:0x33be00,al
     414:	00 05 00 27 19 00    	add    BYTE PTR ds:0x192700,al
     41a:	00 05 00 07 07 00    	add    BYTE PTR ds:0x70700,al
     420:	00 05 00 ed 3a 00    	add    BYTE PTR ds:0x3aed00,al
     426:	00 05 00 00 04 00    	add    BYTE PTR ds:0x40000,al
     42c:	00 05 00 6b 17 00    	add    BYTE PTR ds:0x176b00,al
     432:	00 05 00 26 1f 00    	add    BYTE PTR ds:0x1f2600,al
     438:	00 05 00 55 35 00    	add    BYTE PTR ds:0x355500,al
     43e:	00 05 00 73 3a 00    	add    BYTE PTR ds:0x3a7300,al
     444:	00 05 00 5b 14 00    	add    BYTE PTR ds:0x145b00,al
     44a:	00 05 00 fe 33 00    	add    BYTE PTR ds:0x33fe00,al
     450:	00 05 00 05 1c 00    	add    BYTE PTR ds:0x1c0500,al
     456:	00 05 00 5f 39 00    	add    BYTE PTR ds:0x395f00,al
     45c:	00 05 00 91 02 00    	add    BYTE PTR ds:0x29100,al
     462:	00 05 00 b4 37 00    	add    BYTE PTR ds:0x37b400,al
     468:	00 05 00 44 33 00    	add    BYTE PTR ds:0x334400,al
     46e:	00 05 00 41 10 00    	add    BYTE PTR ds:0x104100,al
     474:	00 05 00 3e 1a 00    	add    BYTE PTR ds:0x1a3e00,al
     47a:	00 05 00 1a 21 00    	add    BYTE PTR ds:0x211a00,al
     480:	00 05 00 59 08 00    	add    BYTE PTR ds:0x85900,al
     486:	00 05 00 df 25 00    	add    BYTE PTR ds:0x25df00,al
     48c:	00 05 00 44 20 00    	add    BYTE PTR ds:0x204400,al
     492:	00 05 00 18 11 00    	add    BYTE PTR ds:0x111800,al
     498:	00 05 00 f4 38 00    	add    BYTE PTR ds:0x38f400,al
     49e:	00 05 00 3f 3b 00    	add    BYTE PTR ds:0x3b3f00,al
     4a4:	00 05 00 6b 2d 00    	add    BYTE PTR ds:0x2d6b00,al
     4aa:	00 05 00 b8 16 00    	add    BYTE PTR ds:0x16b800,al
     4b0:	00 05 00 cc 0e 00    	add    BYTE PTR ds:0xecc00,al
     4b6:	00 05 00 af 12 00    	add    BYTE PTR ds:0x12af00,al
     4bc:	00 05 00 a5 21 00    	add    BYTE PTR ds:0x21a500,al
     4c2:	00 05 00 7d 10 00    	add    BYTE PTR ds:0x107d00,al
     4c8:	00 05 00 8a 3a 00    	add    BYTE PTR ds:0x3a8a00,al
     4ce:	00 05 00 3d 22 00    	add    BYTE PTR ds:0x223d00,al
     4d4:	00 05 00 40 29 00    	add    BYTE PTR ds:0x294000,al
     4da:	00 05 00 a1 06 00    	add    BYTE PTR ds:0x6a100,al
     4e0:	00 05 00 a2 0d 00    	add    BYTE PTR ds:0xda200,al
     4e6:	00 05 00 b6 07 00    	add    BYTE PTR ds:0x7b600,al
     4ec:	00 05 00 cd 14 00    	add    BYTE PTR ds:0x14cd00,al
     4f2:	00 05 00 a8 00 00    	add    BYTE PTR ds:0xa800,al
     4f8:	00 05 00 18 16 00    	add    BYTE PTR ds:0x161800,al
     4fe:	00 05 00 c9 37 00    	add    BYTE PTR ds:0x37c900,al
     504:	00 05 00 f2 20 00    	add    BYTE PTR ds:0x20f200,al
     50a:	00 05 00 0b 37 00    	add    BYTE PTR ds:0x370b00,al
     510:	00 05 00 00 00 00    	add    BYTE PTR ds:0x0,al
     516:	00 05 00 b9 19 00    	add    BYTE PTR ds:0x19b900,al
     51c:	00 05 00 1f 2b 00    	add    BYTE PTR ds:0x2b1f00,al
     522:	00 05 00 40 13 00    	add    BYTE PTR ds:0x134000,al
     528:	00 05 00 70 24 00    	add    BYTE PTR ds:0x247000,al
     52e:	00 05 00 c8 1e 00    	add    BYTE PTR ds:0x1ec800,al
     534:	00 05 00 4a 2f 00    	add    BYTE PTR ds:0x2f4a00,al
     53a:	00 05 00 fd 07 00    	add    BYTE PTR ds:0x7fd00,al
     540:	00 05 00 2b 03 00    	add    BYTE PTR ds:0x32b00,al
     546:	00 05 00 eb 17 00    	add    BYTE PTR ds:0x17eb00,al
     54c:	00 05 00 85 17 00    	add    BYTE PTR ds:0x178500,al
     552:	00 05 00 8c 09 00    	add    BYTE PTR ds:0x98c00,al
     558:	00 05 00 74 1a 00    	add    BYTE PTR ds:0x1a7400,al
     55e:	00 05 00 3d 38 00    	add    BYTE PTR ds:0x383d00,al
     564:	00 05 00 b4 0e 00    	add    BYTE PTR ds:0xeb400,al
     56a:	00 05 00 48 07 00    	add    BYTE PTR ds:0x74800,al
     570:	00 05 00 20 05 00    	add    BYTE PTR ds:0x52000,al
     576:	00 05 00 24 39 00    	add    BYTE PTR ds:0x392400,al
     57c:	00 05 00 ac 26 00    	add    BYTE PTR ds:0x26ac00,al
     582:	00 05 00 62 23 00    	add    BYTE PTR ds:0x236200,al
     588:	00 05 00 d2 0c 00    	add    BYTE PTR ds:0xcd200,al
     58e:	00 05 00 c2 00 00    	add    BYTE PTR ds:0xc200,al
     594:	00 05 00 7e 0e 00    	add    BYTE PTR ds:0xe7e00,al
     59a:	00 05 00 2f 21 00    	add    BYTE PTR ds:0x212f00,al
     5a0:	00 05 00 e0 08 00    	add    BYTE PTR ds:0x8e000,al
     5a6:	00 05 00 e3 0a 00    	add    BYTE PTR ds:0xae300,al
     5ac:	00 05 00 40 32 00    	add    BYTE PTR ds:0x324000,al
     5b2:	00 05 00 3f 14 00    	add    BYTE PTR ds:0x143f00,al
     5b8:	00 05 00 f1 00 00    	add    BYTE PTR ds:0xf100,al
     5be:	00 05 00 fc 11 00    	add    BYTE PTR ds:0x11fc00,al
     5c4:	00 05 00 71 16 00    	add    BYTE PTR ds:0x167100,al
     5ca:	00 05 00 90 1c 00    	add    BYTE PTR ds:0x1c9000,al
     5d0:	00 05 00 af 2b 00    	add    BYTE PTR ds:0x2baf00,al
     5d6:	00 05 00 b0 05 00    	add    BYTE PTR ds:0x5b000,al
     5dc:	00 05 00 a5 2c 00    	add    BYTE PTR ds:0x2ca500,al
     5e2:	00 05 00 b1 38 00    	add    BYTE PTR ds:0x38b100,al
     5e8:	00 05 00 21 18 00    	add    BYTE PTR ds:0x182100,al
     5ee:	00 05 00 be 10 00    	add    BYTE PTR ds:0x10be00,al
     5f4:	00 05 00 5d 00 00    	add    BYTE PTR ds:0x5d00,al
     5fa:	00 05 00 9b 0c 00    	add    BYTE PTR ds:0xc9b00,al
     600:	00 05 00 66 03 00    	add    BYTE PTR ds:0x36600,al
     606:	00 05 00 e5 14 00    	add    BYTE PTR ds:0x14e500,al
     60c:	00 05 00 47 0e 00    	add    BYTE PTR ds:0xe4700,al
     612:	00 05 00 c0 22 00    	add    BYTE PTR ds:0x22c000,al
     618:	00 05 00 ba 0f 00    	add    BYTE PTR ds:0xfba00,al
     61e:	00 05 00 cf 13 00    	add    BYTE PTR ds:0x13cf00,al
     624:	00 05 00 26 32 00    	add    BYTE PTR ds:0x322600,al
     62a:	00 05 00 56 04 00    	add    BYTE PTR ds:0x45600,al
     630:	00 05 00 a9 04 00    	add    BYTE PTR ds:0x4a900,al
     636:	00 05 00 ea 13 00    	add    BYTE PTR ds:0x13ea00,al
     63c:	00 05 00 97 2a 00    	add    BYTE PTR ds:0x2a9700,al
     642:	00 05 00 ea 35 00    	add    BYTE PTR ds:0x35ea00,al
     648:	00 05 00 1e 3a 00    	add    BYTE PTR ds:0x3a1e00,al
     64e:	00 05 00 c0 17 00    	add    BYTE PTR ds:0x17c000,al
     654:	00 05 00 d2 0b 00    	add    BYTE PTR ds:0xbd200,al
     65a:	00 05 00 17 33 00    	add    BYTE PTR ds:0x331700,al
     660:	00 05 00 93 1b 00    	add    BYTE PTR ds:0x1b9300,al
     666:	00 05 00 5a 1b 00    	add    BYTE PTR ds:0x1b5a00,al
     66c:	00 05 00 7f 28 00    	add    BYTE PTR ds:0x287f00,al
     672:	00 05 00 6e 27 00    	add    BYTE PTR ds:0x276e00,al
     678:	00 05 00 62 01 00    	add    BYTE PTR ds:0x16200,al
     67e:	00 05 00 7e 37 00    	add    BYTE PTR ds:0x377e00,al
     684:	00 05 00 dd 03 00    	add    BYTE PTR ds:0x3dd00,al
     68a:	00 05 00 18 04 00    	add    BYTE PTR ds:0x41800,al
     690:	00 05 00 e0 37 00    	add    BYTE PTR ds:0x37e000,al
     696:	00 05 00 9c 1d 00    	add    BYTE PTR ds:0x1d9c00,al
     69c:	00 05 00 d7 15 00    	add    BYTE PTR ds:0x15d700,al
     6a2:	00 05 00 64 2f 00    	add    BYTE PTR ds:0x2f6400,al
     6a8:	00 05 00 86 18 00    	add    BYTE PTR ds:0x188600,al
     6ae:	00 05 00 68 0b 00    	add    BYTE PTR ds:0xb6800,al
     6b4:	00 05 00 3a 35 00    	add    BYTE PTR ds:0x353a00,al
     6ba:	00 05 00 c3 32 00    	add    BYTE PTR ds:0x32c300,al
     6c0:	00 05 00 e4 2c 00    	add    BYTE PTR ds:0x2ce400,al
     6c6:	00 05 00 b9 11 00    	add    BYTE PTR ds:0x11b900,al
     6cc:	00 05 00 19 0d 00    	add    BYTE PTR ds:0xd1900,al
     6d2:	00 05 00 91 13 00    	add    BYTE PTR ds:0x139100,al
     6d8:	00 05 00 69 08 00    	add    BYTE PTR ds:0x86900,al
     6de:	00 05 00 e0 1b 00    	add    BYTE PTR ds:0x1be000,al
     6e4:	00 05 00 86 32 00    	add    BYTE PTR ds:0x328600,al
     6ea:	00 05 00 c7 18 00    	add    BYTE PTR ds:0x18c700,al
     6f0:	00 05 00 42 18 00    	add    BYTE PTR ds:0x184200,al
     6f6:	00 05 00 0b 26 00    	add    BYTE PTR ds:0x260b00,al
     6fc:	00 05 00 21 01 00    	add    BYTE PTR ds:0x12100,al
     702:	00 05 00 d8 39 00    	add    BYTE PTR ds:0x39d800,al
     708:	00 05 00 08 13 00    	add    BYTE PTR ds:0x130800,al
     70e:	00 05 00 36 28 00    	add    BYTE PTR ds:0x283600,al
     714:	00 05 00 85 1e 00    	add    BYTE PTR ds:0x1e8500,al
     71a:	00 05 00 59 10 00    	add    BYTE PTR ds:0x105900,al
     720:	00 05 00 4d 25 00    	add    BYTE PTR ds:0x254d00,al
     726:	00 05 00 13 0b 00    	add    BYTE PTR ds:0xb1300,al
     72c:	00 05 00 65 38 00    	add    BYTE PTR ds:0x386500,al
     732:	00 05 00 71 2c 00    	add    BYTE PTR ds:0x2c7100,al
     738:	00 05 00 f8 28 00    	add    BYTE PTR ds:0x28f800,al
     73e:	00 05 00 5a 3a 00    	add    BYTE PTR ds:0x3a5a00,al
     744:	00 05 00 28 10 00    	add    BYTE PTR ds:0x102800,al
     74a:	00 05 00 c4 0d 00    	add    BYTE PTR ds:0xdc400,al
     750:	00 05 00 60 20 00    	add    BYTE PTR ds:0x206000,al
     756:	00 05 00 f9 27 00    	add    BYTE PTR ds:0x27f900,al
     75c:	00 05 00 4e 1f 00    	add    BYTE PTR ds:0x1f4e00,al
     762:	00 05 00 e9 1d 00    	add    BYTE PTR ds:0x1de900,al
     768:	00 05 00 4b 15 00    	add    BYTE PTR ds:0x154b00,al
     76e:	00 05 00 8b 27 00    	add    BYTE PTR ds:0x278b00,al
     774:	00 05 00 f2 2d 00    	add    BYTE PTR ds:0x2df200,al
     77a:	00 05 00 a0 0f 00    	add    BYTE PTR ds:0xfa000,al
     780:	00 05 00 42 23 00    	add    BYTE PTR ds:0x234200,al
     786:	00 05 00 6c 30 00    	add    BYTE PTR ds:0x306c00,al
     78c:	00 05 00 20 13 00    	add    BYTE PTR ds:0x132000,al
     792:	00 05 00 01 0e 00    	add    BYTE PTR ds:0xe0100,al
     798:	00 05 00 22 1a 00    	add    BYTE PTR ds:0x1a2200,al
     79e:	00 05 00 16 08 00    	add    BYTE PTR ds:0x81600,al
     7a4:	00 05 00 65 09 00    	add    BYTE PTR ds:0x96500,al
     7aa:	00 05 00 fc 3a 00    	add    BYTE PTR ds:0x3afc00,al
     7b0:	00 05 00 a4 23 00    	add    BYTE PTR ds:0x23a400,al
     7b6:	00 05 00 4f 27 00    	add    BYTE PTR ds:0x274f00,al
     7bc:	00 05 00 0d 39 00    	add    BYTE PTR ds:0x390d00,al
     7c2:	00 05 00 2f 11 00    	add    BYTE PTR ds:0x112f00,al
     7c8:	00 05 00 77 02 00    	add    BYTE PTR ds:0x27700,al
     7ce:	00 05 00 77 00 00    	add    BYTE PTR ds:0x7700,al
     7d4:	00 05 00 98 12 00    	add    BYTE PTR ds:0x129800,al
     7da:	00 05 00 30 0f 00    	add    BYTE PTR ds:0xf3000,al
     7e0:	00 05 00 7a 1d 00    	add    BYTE PTR ds:0x1d7a00,al
     7e6:	00 05 00 66 28 00    	add    BYTE PTR ds:0x286600,al
     7ec:	00 05 00 9d 36 00    	add    BYTE PTR ds:0x369d00,al
     7f2:	00 05 00 85 0f 00    	add    BYTE PTR ds:0xf8500,al
     7f8:	00 05 00 45 34 00    	add    BYTE PTR ds:0x344500,al
     7fe:	00 05 00 97 26 00    	add    BYTE PTR ds:0x269700,al
     804:	00 05 00 73 29 00    	add    BYTE PTR ds:0x297300,al
     80a:	00 05 00 91 35 00    	add    BYTE PTR ds:0x359100,al
     810:	00 05 00 f4 0c 00    	add    BYTE PTR ds:0xcf400,al
     816:	00 05 00 0b 23 00    	add    BYTE PTR ds:0x230b00,al
     81c:	00 05 00 8a 16 00    	add    BYTE PTR ds:0x168a00,al
     822:	00 05 00 03 06 00    	add    BYTE PTR ds:0x60300,al
     828:	00 05 00 5b 1c 00    	add    BYTE PTR ds:0x1c5b00,al
     82e:	00 05 00 2d 15 00    	add    BYTE PTR ds:0x152d00,al
     834:	00 05 00 c9 09 00    	add    BYTE PTR ds:0x9c900,al
     83a:	00 05 00 cb 1a 00    	add    BYTE PTR ds:0x1acb00,al
     840:	00 05 00 27 2e 00    	add    BYTE PTR ds:0x2e2700,al
     846:	00 05 00 06 19 00    	add    BYTE PTR ds:0x190600,al
     84c:	00 05 00 67 32 00    	add    BYTE PTR ds:0x326700,al
     852:	00 05 00 5f 11 00    	add    BYTE PTR ds:0x115f00,al
     858:	00 05 00 3c 1b 00    	add    BYTE PTR ds:0x1b3c00,al
     85e:	00 05 00 03 30 00    	add    BYTE PTR ds:0x300300,al
     864:	00 05 00 92 01 00    	add    BYTE PTR ds:0x19200,al
     86a:	00 05 00 de 28 00    	add    BYTE PTR ds:0x28de00,al
     870:	00 05 00 d3 06 00    	add    BYTE PTR ds:0x6d300,al
     876:	00 05 00 83 2d 00    	add    BYTE PTR ds:0x2d8300,al
     87c:	00 05 00 af 13 00    	add    BYTE PTR ds:0x13af00,al
     882:	00 05 00 6b 05 00    	add    BYTE PTR ds:0x56b00,al
     888:	00 05 00 a4 39 00    	add    BYTE PTR ds:0x39a400,al
     88e:	00 05 00 ab 22 00    	add    BYTE PTR ds:0x22ab00,al
     894:	00 05 00 95 04 00    	add    BYTE PTR ds:0x49500,al
     89a:	00 05 00 32 12 00    	add    BYTE PTR ds:0x123200,al
     8a0:	00 05 00 65 27 00    	add    BYTE PTR ds:0x276500,al
     8a6:	00 05 00 86 35 00    	add    BYTE PTR ds:0x358600,al
     8ac:	00 05 00 67 27 00    	add    BYTE PTR ds:0x276700,al
     8b2:	00 05 00 bb 03 00    	add    BYTE PTR ds:0x3bb00,al
     8b8:	00 05 00 b8 0d 00    	add    BYTE PTR ds:0xdb800,al
     8be:	00 05 00 dc 34 00    	add    BYTE PTR ds:0x34dc00,al
     8c4:	00 05 00 5f 36 00    	add    BYTE PTR ds:0x365f00,al
     8ca:	00 05 00 d7 36 00    	add    BYTE PTR ds:0x36d700,al
     8d0:	00 05 00 ef 10 00    	add    BYTE PTR ds:0x10ef00,al
     8d6:	00 05 00 51 1d 00    	add    BYTE PTR ds:0x1d5100,al
     8dc:	00 05 00 c1 1e 00    	add    BYTE PTR ds:0x1ec100,al
     8e2:	00 05 00 f7 03 00    	add    BYTE PTR ds:0x3f700,al
     8e8:	00 05 00 cb 25 00    	add    BYTE PTR ds:0x25cb00,al
     8ee:	00 05 00 f0 2e 00    	add    BYTE PTR ds:0x2ef000,al
     8f4:	00 05 00 b7 1e 00    	add    BYTE PTR ds:0x1eb700,al
     8fa:	00 05 00 82 0b 00    	add    BYTE PTR ds:0xb8200,al
     900:	00 05 00 2e 31 00    	add    BYTE PTR ds:0x312e00,al
     906:	00 05 00 49 12 00    	add    BYTE PTR ds:0x124900,al
     90c:	00 05 00 da 2d 00    	add    BYTE PTR ds:0x2dda00,al
     912:	00 05 00 5c 24 00    	add    BYTE PTR ds:0x245c00,al
     918:	00 05 00 8a 1a 00    	add    BYTE PTR ds:0x1a8a00,al
     91e:	00 05 00 b3 29 00    	add    BYTE PTR ds:0x29b300,al
     924:	00 05 00 c7 31 00    	add    BYTE PTR ds:0x31c700,al
     92a:	00 05 00 b5 29 00    	add    BYTE PTR ds:0x29b500,al
     930:	00 05 00 7d 2e 00    	add    BYTE PTR ds:0x2e7d00,al
     936:	00 05 00 e9 0c 00    	add    BYTE PTR ds:0xce900,al
     93c:	00 05 00 7f 2e 00    	add    BYTE PTR ds:0x2e7f00,al
     942:	00 05 00 92 1d 00    	add    BYTE PTR ds:0x1d9200,al
     948:	00 05 00 c4 03 00    	add    BYTE PTR ds:0x3c400,al
     94e:	00 00                	add    BYTE PTR [eax],al
     950:	05 00 00 05 1d       	add    eax,0x1d050000
     955:	fb                   	sti
     956:	17                   	pop    ss
     957:	00 00                	add    BYTE PTR [eax],al
     959:	06                   	push   es
     95a:	64 39 18             	cmp    DWORD PTR fs:[eax],ebx
     95d:	00 00                	add    BYTE PTR [eax],al
     95f:	05 65 fd 34 00       	add    eax,0x34fd65
     964:	00 06                	add    BYTE PTR [esi],al
     966:	66 ad                	lods   ax,WORD PTR ds:[esi]
     968:	07                   	pop    es
     969:	00 00                	add    BYTE PTR [eax],al
     96b:	05 67 4b 0f 00       	add    eax,0xf4b67
     970:	00 06                	add    BYTE PTR [esi],al
     972:	6a 38                	push   0x38
     974:	18 00                	sbb    BYTE PTR [eax],al
     976:	00 05 6b 0a 03 00    	add    BYTE PTR ds:0x30a6b,al
     97c:	00 06                	add    BYTE PTR [esi],al
     97e:	6e                   	outs   dx,BYTE PTR ds:[esi]
     97f:	61                   	popa
     980:	05 00 00 05 6f       	add    eax,0x6f050000
     985:	30 36                	xor    BYTE PTR [esi],dh
     987:	00 00                	add    BYTE PTR [eax],al
     989:	06                   	push   es
     98a:	70 73                	jo     9ff <code-0x7636>
     98c:	10 00                	adc    BYTE PTR [eax],al
     98e:	00 05 71 cc 1c 00    	add    BYTE PTR ds:0x1ccc71,al
     994:	00 06                	add    BYTE PTR [esi],al
     996:	74 60                	je     9f8 <code-0x763d>
     998:	05 00 00 05 75       	add    eax,0x75050000
     99d:	0f 27                	(bad)
     99f:	00 00                	add    BYTE PTR [eax],al
     9a1:	06                   	push   es
     9a2:	78 8d                	js     931 <code-0x7704>
     9a4:	2b 00                	sub    eax,DWORD PTR [eax]
     9a6:	00 05 79 97 2b 00    	add    BYTE PTR ds:0x2b9779,al
     9ac:	00 06                	add    BYTE PTR [esi],al
     9ae:	7a 84                	jp     934 <code-0x7701>
     9b0:	30 00                	xor    BYTE PTR [eax],al
     9b2:	00 05 7b d2 3a 00    	add    BYTE PTR ds:0x3ad27b,al
     9b8:	00 06                	add    BYTE PTR [esi],al
     9ba:	7e 8c                	jle    948 <code-0x76ed>
     9bc:	2b 00                	sub    eax,DWORD PTR [eax]
     9be:	00 05 7f 6c 35 00    	add    BYTE PTR ds:0x356c7f,al
     9c4:	00 06                	add    BYTE PTR [esi],al
     9c6:	82 01 bd             	add    BYTE PTR [ecx],0xbd
     9c9:	31 00                	xor    DWORD PTR [eax],eax
     9cb:	00 05 83 01 e1 21    	add    BYTE PTR ds:0x21e10183,al
     9d1:	00 00                	add    BYTE PTR [eax],al
     9d3:	06                   	push   es
     9d4:	84 01                	test   BYTE PTR [ecx],al
     9d6:	45                   	inc    ebp
     9d7:	37                   	aaa
     9d8:	00 00                	add    BYTE PTR [eax],al
     9da:	05 85 01 41 24       	add    eax,0x24410185
     9df:	00 00                	add    BYTE PTR [eax],al
     9e1:	06                   	push   es
     9e2:	88 01                	mov    BYTE PTR [ecx],al
     9e4:	bc 31 00 00 05       	mov    esp,0x5000031
     9e9:	89 01                	mov    DWORD PTR [ecx],eax
     9eb:	0d 2e 00 00 06       	or     eax,0x600002e
     9f0:	8c 01                	mov    WORD PTR [ecx],es
     9f2:	e1 2e                	loope  a22 <code-0x7613>
     9f4:	00 00                	add    BYTE PTR [eax],al
     9f6:	05 8d 01 8f 19       	add    eax,0x198f018d
     9fb:	00 00                	add    BYTE PTR [eax],al
     9fd:	06                   	push   es
     9fe:	8e 01                	mov    es,WORD PTR [ecx]
     a00:	a6                   	cmps   BYTE PTR ds:[esi],BYTE PTR es:[edi]
     a01:	25 00 00 05 8f       	and    eax,0x8f050000
     a06:	01 14 2f             	add    DWORD PTR [edi+ebp*1],edx
     a09:	00 00                	add    BYTE PTR [eax],al
     a0b:	06                   	push   es
     a0c:	90                   	nop
     a0d:	01 e0                	add    eax,esp
     a0f:	2e 00 00             	add    BYTE PTR cs:[eax],al
     a12:	05 91 01 87 24       	add    eax,0x24870191
     a17:	00 00                	add    BYTE PTR [eax],al
     a19:	06                   	push   es
     a1a:	92                   	xchg   edx,eax
     a1b:	01 d9                	add    ecx,ebx
     a1d:	2a 00                	sub    al,BYTE PTR [eax]
     a1f:	00 05 93 01 da 02    	add    BYTE PTR ds:0x2da0193,al
     a25:	00 00                	add    BYTE PTR [eax],al
     a27:	06                   	push   es
     a28:	94                   	xchg   esp,eax
     a29:	01 81 13 00 00 05    	add    DWORD PTR [ecx+0x5000013],eax
     a2f:	95                   	xchg   ebp,eax
     a30:	01 2a                	add    DWORD PTR [edx],ebp
     a32:	1d 00 00 06 96       	sbb    eax,0x96060000
     a37:	01 d8                	add    eax,ebx
     a39:	2a 00                	sub    al,BYTE PTR [eax]
     a3b:	00 05 97 01 a0 3a    	add    BYTE PTR ds:0x3aa00197,al
     a41:	00 00                	add    BYTE PTR [eax],al
     a43:	06                   	push   es
     a44:	98                   	cwde
     a45:	01 5a 12             	add    DWORD PTR [edx+0x12],ebx
     a48:	00 00                	add    BYTE PTR [eax],al
     a4a:	05 99 01 36 3a       	add    eax,0x3a360199
     a4f:	00 00                	add    BYTE PTR [eax],al
     a51:	06                   	push   es
     a52:	9a 01 23 22 00 00 05 	call   0x500:0x222301
     a59:	9b                   	fwait
     a5a:	01 13                	add    DWORD PTR [ebx],edx
     a5c:	2c 00                	sub    al,0x0
     a5e:	00 06                	add    BYTE PTR [esi],al
     a60:	9c                   	pushf
     a61:	01 59 12             	add    DWORD PTR [ecx+0x12],ebx
     a64:	00 00                	add    BYTE PTR [eax],al
     a66:	05 9d 01 5f 06       	add    eax,0x65f019d
     a6b:	00 00                	add    BYTE PTR [eax],al
     a6d:	06                   	push   es
     a6e:	9e                   	sahf
     a6f:	01 db                	add    ebx,ebx
     a71:	17                   	pop    ss
     a72:	00 00                	add    BYTE PTR [eax],al
     a74:	05 9f 01 aa 28       	add    eax,0x28aa019f
     a79:	00 00                	add    BYTE PTR [eax],al
     a7b:	06                   	push   es
     a7c:	a0 01 ce 28 00       	mov    al,ds:0x28ce01
     a81:	00 05 a1 01 4a 26    	add    BYTE PTR ds:0x264a01a1,al
     a87:	00 00                	add    BYTE PTR [eax],al
     a89:	06                   	push   es
     a8a:	a2 01 da 17 00       	mov    ds:0x17da01,al
     a8f:	00 05 a3 01 cc 20    	add    BYTE PTR ds:0x20cc01a3,al
     a95:	00 00                	add    BYTE PTR [eax],al
     a97:	06                   	push   es
     a98:	a5                   	movs   DWORD PTR es:[edi],DWORD PTR ds:[esi]
     a99:	01 72 26             	add    DWORD PTR [edx+0x26],esi
     a9c:	00 00                	add    BYTE PTR [eax],al
     a9e:	05 a6 01 17 0e       	add    eax,0xe1701a6
     aa3:	00 00                	add    BYTE PTR [eax],al
     aa5:	06                   	push   es
     aa6:	a7                   	cmps   DWORD PTR ds:[esi],DWORD PTR es:[edi]
     aa7:	01 6c 1d 00          	add    DWORD PTR [ebp+ebx*1+0x0],ebp
     aab:	00 05 a8 01 9a 1a    	add    BYTE PTR ds:0x1a9a01a8,al
     ab1:	00 00                	add    BYTE PTR [eax],al
     ab3:	06                   	push   es
     ab4:	a9 01 71 26 00       	test   eax,0x267101
     ab9:	00 05 aa 01 c5 30    	add    BYTE PTR ds:0x30c501aa,al
     abf:	00 00                	add    BYTE PTR [eax],al
     ac1:	06                   	push   es
     ac2:	ab                   	stos   DWORD PTR es:[edi],eax
     ac3:	01 56 38             	add    DWORD PTR [esi+0x38],edx
     ac6:	00 00                	add    BYTE PTR [eax],al
     ac8:	05 ac 01 ed 04       	add    eax,0x4ed01ac
     acd:	00 00                	add    BYTE PTR [eax],al
     acf:	06                   	push   es
     ad0:	ad                   	lods   eax,DWORD PTR ds:[esi]
     ad1:	01 65 0c             	add    DWORD PTR [ebp+0xc],esp
     ad4:	00 00                	add    BYTE PTR [eax],al
     ad6:	05 ae 01 e7 1c       	add    eax,0x1ce701ae
     adb:	00 00                	add    BYTE PTR [eax],al
     add:	06                   	push   es
     ade:	af                   	scas   eax,DWORD PTR es:[edi]
     adf:	01 55 38             	add    DWORD PTR [ebp+0x38],edx
     ae2:	00 00                	add    BYTE PTR [eax],al
     ae4:	05 b0 01 b8 34       	add    eax,0x34b801b0
     ae9:	00 00                	add    BYTE PTR [eax],al
     aeb:	06                   	push   es
     aec:	b1 01                	mov    cl,0x1
     aee:	fa                   	cli
     aef:	21 00                	and    DWORD PTR [eax],eax
     af1:	00 05 b2 01 9e 17    	add    BYTE PTR ds:0x179e01b2,al
     af7:	00 00                	add    BYTE PTR [eax],al
     af9:	06                   	push   es
     afa:	b3 01                	mov    bl,0x1
     afc:	48                   	dec    eax
     afd:	21 00                	and    DWORD PTR [eax],eax
     aff:	00 05 b4 01 8a 34    	add    BYTE PTR ds:0x348a01b4,al
     b05:	00 00                	add    BYTE PTR [eax],al
     b07:	06                   	push   es
     b08:	b5 01                	mov    ch,0x1
     b0a:	f9                   	stc
     b0b:	21 00                	and    DWORD PTR [eax],eax
     b0d:	00 05 b6 01 aa 1b    	add    BYTE PTR ds:0x1baa01b6,al
     b13:	00 00                	add    BYTE PTR [eax],al
     b15:	06                   	push   es
     b16:	b7 01                	mov    bh,0x1
     b18:	9b                   	fwait
     b19:	28 00                	sub    BYTE PTR [eax],al
     b1b:	00 05 b8 01 d3 24    	add    BYTE PTR ds:0x24d301b8,al
     b21:	00 00                	add    BYTE PTR [eax],al
     b23:	06                   	push   es
     b24:	b9 01 6a 12 00       	mov    ecx,0x126a01
     b29:	00 05 ba 01 ea 26    	add    BYTE PTR ds:0x26ea01ba,al
     b2f:	00 00                	add    BYTE PTR [eax],al
     b31:	06                   	push   es
     b32:	bb 01 9a 28 00       	mov    ebx,0x289a01
     b37:	00 05 bc 01 4d 16    	add    BYTE PTR ds:0x164d01bc,al
     b3d:	00 00                	add    BYTE PTR [eax],al
     b3f:	06                   	push   es
     b40:	bf 01 c7 3a 00       	mov    edi,0x3ac701
     b45:	00 05 c0 01 24 0b    	add    BYTE PTR ds:0xb2401c0,al
     b4b:	00 00                	add    BYTE PTR [eax],al
     b4d:	06                   	push   es
     b4e:	c1 01 57             	rol    DWORD PTR [ecx],0x57
     b51:	23 00                	and    eax,DWORD PTR [eax]
     b53:	00 05 c2 01 11 31    	add    BYTE PTR ds:0x311101c2,al
     b59:	00 00                	add    BYTE PTR [eax],al
     b5b:	06                   	push   es
     b5c:	c5 01                	lds    eax,FWORD PTR [ecx]
     b5e:	c6                   	(bad)
     b5f:	3a 00                	cmp    al,BYTE PTR [eax]
     b61:	00 05 c6 01 a6 1f    	add    BYTE PTR ds:0x1fa601c6,al
     b67:	00 00                	add    BYTE PTR [eax],al
     b69:	06                   	push   es
     b6a:	c9                   	leave
     b6b:	01 a8 29 00 00 05    	add    DWORD PTR [eax+0x5000029],ebp
     b71:	ca 01 d3             	retf   0xd301
     b74:	2f                   	das
     b75:	00 00                	add    BYTE PTR [eax],al
     b77:	06                   	push   es
     b78:	cb                   	retf
     b79:	01 35 13 00 00 05    	add    DWORD PTR ds:0x5000013,esi
     b7f:	cc                   	int3
     b80:	01 0d 0a 00 00 06    	add    DWORD PTR ds:0x600000a,ecx
     b86:	cd 01                	int    0x1
     b88:	a7                   	cmps   DWORD PTR ds:[esi],DWORD PTR es:[edi]
     b89:	29 00                	sub    DWORD PTR [eax],eax
     b8b:	00 05 ce 01 94 05    	add    BYTE PTR ds:0x59401ce,al
     b91:	00 00                	add    BYTE PTR [eax],al
     b93:	06                   	push   es
     b94:	d2 01                	rol    BYTE PTR [ecx],cl
     b96:	00 1b                	add    BYTE PTR [ebx],bl
     b98:	00 00                	add    BYTE PTR [eax],al
     b9a:	05 d3 01 a1 0a       	add    eax,0xaa101d3
     b9f:	00 00                	add    BYTE PTR [eax],al
     ba1:	06                   	push   es
     ba2:	d4 01                	aam    0x1
     ba4:	e9 12 00 00 05       	jmp    5000bbb <end+0x4ff86e3>
     ba9:	d5 01                	aad    0x1
     bab:	79 12                	jns    bbf <code-0x7476>
     bad:	00 00                	add    BYTE PTR [eax],al
     baf:	06                   	push   es
     bb0:	d7                   	xlat   BYTE PTR ds:[ebx]
     bb1:	01 67 0d             	add    DWORD PTR [edi+0xd],esp
     bb4:	00 00                	add    BYTE PTR [eax],al
     bb6:	05 d8 01 7c 33       	add    eax,0x337c01d8
     bbb:	00 00                	add    BYTE PTR [eax],al
     bbd:	06                   	push   es
     bbe:	d9 01                	fld    DWORD PTR [ecx]
     bc0:	64 0f 00 00          	sldt   WORD PTR fs:[eax]
     bc4:	05 da 01 a7 09       	add    eax,0x9a701da
     bc9:	00 00                	add    BYTE PTR [eax],al
     bcb:	06                   	push   es
     bcc:	dc 01                	fadd   QWORD PTR [ecx]
     bce:	33 1b                	xor    ebx,DWORD PTR [ebx]
     bd0:	00 00                	add    BYTE PTR [eax],al
     bd2:	05 dd 01 0e 09       	add    eax,0x90e01dd
     bd7:	00 00                	add    BYTE PTR [eax],al
     bd9:	06                   	push   es
     bda:	df 01                	fild   WORD PTR [ecx]
     bdc:	55                   	push   ebp
     bdd:	11 00                	adc    DWORD PTR [eax],eax
     bdf:	00 05 e0 01 8d 2c    	add    BYTE PTR ds:0x2c8d01e0,al
     be5:	00 00                	add    BYTE PTR [eax],al
     be7:	06                   	push   es
     be8:	e1 01                	loope  beb <code-0x744a>
     bea:	fb                   	sti
     beb:	1b 00                	sbb    eax,DWORD PTR [eax]
     bed:	00 05 e2 01 0e 32    	add    BYTE PTR ds:0x320e01e2,al
     bf3:	00 00                	add    BYTE PTR [eax],al
     bf5:	06                   	push   es
     bf6:	e4 01                	in     al,0x1
     bf8:	af                   	scas   eax,DWORD PTR es:[edi]
     bf9:	16                   	push   ss
     bfa:	00 00                	add    BYTE PTR [eax],al
     bfc:	05 e5 01 c6 27       	add    eax,0x27c601e5
     c01:	00 00                	add    BYTE PTR [eax],al
     c03:	06                   	push   es
     c04:	e6 01                	out    0x1,al
     c06:	af                   	scas   eax,DWORD PTR es:[edi]
     c07:	34 00                	xor    al,0x0
     c09:	00 05 e7 01 d4 35    	add    BYTE PTR ds:0x35d401e7,al
     c0f:	00 00                	add    BYTE PTR [eax],al
     c11:	06                   	push   es
     c12:	ef                   	out    dx,eax
     c13:	01 3d 33 00 00 05    	add    DWORD PTR ds:0x5000033,edi
     c19:	f0 01 ed             	lock add ebp,ebp
     c1c:	2f                   	das
     c1d:	00 00                	add    BYTE PTR [eax],al
     c1f:	06                   	push   es
     c20:	f1                   	int1
     c21:	01 23                	add    DWORD PTR [ebx],esp
     c23:	03 00                	add    eax,DWORD PTR [eax]
     c25:	00 05 f2 01 a3 03    	add    BYTE PTR ds:0x3a301f2,al
     c2b:	00 00                	add    BYTE PTR [eax],al
     c2d:	06                   	push   es
     c2e:	f3 01 eb             	repz add ebx,ebp
     c31:	23 00                	and    eax,DWORD PTR [eax]
     c33:	00 05 f4 01 e4 11    	add    BYTE PTR ds:0x11e401f4,al
     c39:	00 00                	add    BYTE PTR [eax],al
     c3b:	06                   	push   es
     c3c:	f5                   	cmc
     c3d:	01 be 27 00 00 05    	add    DWORD PTR [esi+0x5000027],edi
     c43:	f6 01 a5             	test   BYTE PTR [ecx],0xa5
     c46:	27                   	daa
     c47:	00 00                	add    BYTE PTR [eax],al
     c49:	06                   	push   es
     c4a:	f7 01 3c 33 00 00    	test   DWORD PTR [ecx],0x333c
     c50:	05 f8 01 9d 14       	add    eax,0x149d01f8
     c55:	00 00                	add    BYTE PTR [eax],al
     c57:	06                   	push   es
     c58:	f9                   	stc
     c59:	01 22                	add    DWORD PTR [edx],esp
     c5b:	03 00                	add    eax,DWORD PTR [eax]
     c5d:	00 05 fa 01 23 38    	add    BYTE PTR ds:0x382301fa,al
     c63:	00 00                	add    BYTE PTR [eax],al
     c65:	06                   	push   es
     c66:	fb                   	sti
     c67:	01 ea                	add    edx,ebp
     c69:	23 00                	and    eax,DWORD PTR [eax]
     c6b:	00 05 fc 01 09 22    	add    BYTE PTR ds:0x220901fc,al
     c71:	00 00                	add    BYTE PTR [eax],al
     c73:	06                   	push   es
     c74:	fd                   	std
     c75:	01 bd 27 00 00 05    	add    DWORD PTR [ebp+0x5000027],edi
     c7b:	fe 01                	inc    BYTE PTR [ecx]
     c7d:	0d 25 00 00 06       	or     eax,0x6000025
     c82:	ff 01                	inc    DWORD PTR [ecx]
     c84:	36 0d 00 00 05 80    	ss or  eax,0x80050000
     c8a:	02 63 15             	add    ah,BYTE PTR [ebx+0x15]
     c8d:	00 00                	add    BYTE PTR [eax],al
     c8f:	06                   	push   es
     c90:	81 02 35 0d 00 00    	add    DWORD PTR [edx],0xd35
     c96:	05 82 02 49 2e       	add    eax,0x2e490282
     c9b:	00 00                	add    BYTE PTR [eax],al
     c9d:	06                   	push   es
     c9e:	8c 02                	mov    WORD PTR [edx],es
     ca0:	2e 16                	cs push ss
     ca2:	00 00                	add    BYTE PTR [eax],al
     ca4:	05 8d 02 c7 07       	add    eax,0x7c7028d
     ca9:	00 00                	add    BYTE PTR [eax],al
     cab:	06                   	push   es
     cac:	90                   	nop
     cad:	02 2d 16 00 00 05    	add    ch,BYTE PTR ds:0x5000016
     cb3:	91                   	xchg   ecx,eax
     cb4:	02 c6                	add    al,dh
     cb6:	07                   	pop    es
     cb7:	00 00                	add    BYTE PTR [eax],al
     cb9:	06                   	push   es
     cba:	94                   	xchg   esp,eax
     cbb:	02 e6                	add    ah,dh
     cbd:	2d 00 00 05 95       	sub    eax,0x95050000
     cc2:	02 d5                	add    dl,ch
     cc4:	07                   	pop    es
     cc5:	00 00                	add    BYTE PTR [eax],al
     cc7:	06                   	push   es
     cc8:	98                   	cwde
     cc9:	02 e5                	add    ah,ch
     ccb:	2d 00 00 05 99       	sub    eax,0x99050000
     cd0:	02 d4                	add    dl,ah
     cd2:	07                   	pop    es
     cd3:	00 00                	add    BYTE PTR [eax],al
     cd5:	06                   	push   es
     cd6:	9c                   	pushf
     cd7:	02 0c 11             	add    cl,BYTE PTR [ecx+edx*1]
     cda:	00 00                	add    BYTE PTR [eax],al
     cdc:	05 9d 02 c4 2f       	add    eax,0x2fc4029d
     ce1:	00 00                	add    BYTE PTR [eax],al
     ce3:	06                   	push   es
     ce4:	a0 02 0b 11 00       	mov    al,ds:0x110b02
     ce9:	00 05 a1 02 c3 2f    	add    BYTE PTR ds:0x2fc302a1,al
     cef:	00 00                	add    BYTE PTR [eax],al
     cf1:	06                   	push   es
     cf2:	a4                   	movs   BYTE PTR es:[edi],BYTE PTR ds:[esi]
     cf3:	02 88 05 00 00 05    	add    cl,BYTE PTR [eax+0x5000005]
     cf9:	a5                   	movs   DWORD PTR es:[edi],DWORD PTR ds:[esi]
     cfa:	02 fc                	add    bh,ah
     cfc:	36 00 00             	add    BYTE PTR ss:[eax],al
     cff:	06                   	push   es
     d00:	a8 02                	test   al,0x2
     d02:	87 05 00 00 05 a9    	xchg   DWORD PTR ds:0xa9050000,eax
     d08:	02 fb                	add    bh,bl
     d0a:	36 00 00             	add    BYTE PTR ss:[eax],al
     d0d:	06                   	push   es
     d0e:	ac                   	lods   al,BYTE PTR ds:[esi]
     d0f:	02 28                	add    ch,BYTE PTR [eax]
     d11:	25 00 00 05 ad       	and    eax,0xad050000
     d16:	02 0d 1b 00 00 06    	add    cl,BYTE PTR ds:0x600001b
     d1c:	ae                   	scas   al,BYTE PTR es:[edi]
     d1d:	02 27                	add    ah,BYTE PTR [edi]
     d1f:	25 00 00 05 af       	and    eax,0xaf050000
     d24:	02 0c 1b             	add    cl,BYTE PTR [ebx+ebx*1]
     d27:	00 00                	add    BYTE PTR [eax],al
     d29:	06                   	push   es
     d2a:	b0 02                	mov    al,0x2
     d2c:	ee                   	out    dx,al
     d2d:	1a 00                	sbb    al,BYTE PTR [eax]
     d2f:	00 05 b1 02 66 0a    	add    BYTE PTR ds:0xa6602b1,al
     d35:	00 00                	add    BYTE PTR [eax],al
     d37:	06                   	push   es
     d38:	b2 02                	mov    dl,0x2
     d3a:	ed                   	in     eax,dx
     d3b:	1a 00                	sbb    al,BYTE PTR [eax]
     d3d:	00 05 b3 02 65 0a    	add    BYTE PTR ds:0xa6502b3,al
     d43:	00 00                	add    BYTE PTR [eax],al
     d45:	06                   	push   es
     d46:	b4 02                	mov    ah,0x2
     d48:	9f                   	lahf
     d49:	38 00                	cmp    BYTE PTR [eax],al
     d4b:	00 05 b5 02 be 29    	add    BYTE PTR ds:0x29be02b5,al
     d51:	00 00                	add    BYTE PTR [eax],al
     d53:	06                   	push   es
     d54:	b6 02                	mov    dh,0x2
     d56:	9e                   	sahf
     d57:	38 00                	cmp    BYTE PTR [eax],al
     d59:	00 05 b7 02 bd 29    	add    BYTE PTR ds:0x29bd02b7,al
     d5f:	00 00                	add    BYTE PTR [eax],al
     d61:	06                   	push   es
     d62:	b8 02 47 08 00       	mov    eax,0x84702
     d67:	00 05 b9 02 20 0c    	add    BYTE PTR ds:0xc2002b9,al
     d6d:	00 00                	add    BYTE PTR [eax],al
     d6f:	06                   	push   es
     d70:	ba 02 46 08 00       	mov    edx,0x84602
     d75:	00 05 bb 02 1f 0c    	add    BYTE PTR ds:0xc1f02bb,al
     d7b:	00 00                	add    BYTE PTR [eax],al
     d7d:	06                   	push   es
     d7e:	bd 02 58 0b 00       	mov    ebp,0xb5802
     d83:	00 05 be 02 42 03    	add    BYTE PTR ds:0x34202be,al
     d89:	00 00                	add    BYTE PTR [eax],al
     d8b:	06                   	push   es
     d8c:	bf 02 57 0b 00       	mov    edi,0xb5702
     d91:	00 05 c0 02 41 03    	add    BYTE PTR ds:0x34102c0,al
     d97:	00 00                	add    BYTE PTR [eax],al
     d99:	06                   	push   es
     d9a:	c1 02 c3             	rol    DWORD PTR [edx],0xc3
     d9d:	1f                   	pop    ds
     d9e:	00 00                	add    BYTE PTR [eax],al
     da0:	05 c2 02 6d 1b       	add    eax,0x1b6d02c2
     da5:	00 00                	add    BYTE PTR [eax],al
     da7:	06                   	push   es
     da8:	c3                   	ret
     da9:	02 c2                	add    al,dl
     dab:	1f                   	pop    ds
     dac:	00 00                	add    BYTE PTR [eax],al
     dae:	05 c4 02 6c 1b       	add    eax,0x1b6c02c4
     db3:	00 00                	add    BYTE PTR [eax],al
     db5:	06                   	push   es
     db6:	c5 02                	lds    eax,FWORD PTR [edx]
     db8:	cf                   	iret
     db9:	1b 00                	sbb    eax,DWORD PTR [eax]
     dbb:	00 05 c6 02 75 0c    	add    BYTE PTR ds:0xc7502c6,al
     dc1:	00 00                	add    BYTE PTR [eax],al
     dc3:	06                   	push   es
     dc4:	c7 02 ce 1b 00 00    	mov    DWORD PTR [edx],0x1bce
     dca:	05 c8 02 74 0c       	add    eax,0xc7402c8
     dcf:	00 00                	add    BYTE PTR [eax],al
     dd1:	06                   	push   es
     dd2:	c9                   	leave
     dd3:	02 9a 22 00 00 05    	add    bl,BYTE PTR [edx+0x5000022]
     dd9:	ca 02 77             	retf   0x7702
     ddc:	36 00 00             	add    BYTE PTR ss:[eax],al
     ddf:	06                   	push   es
     de0:	cb                   	retf
     de1:	02 99 22 00 00 05    	add    bl,BYTE PTR [ecx+0x5000022]
     de7:	cc                   	int3
     de8:	02 76 36             	add    dh,BYTE PTR [esi+0x36]
     deb:	00 00                	add    BYTE PTR [eax],al
     ded:	06                   	push   es
     dee:	cf                   	iret
     def:	02 e2                	add    ah,dl
     df1:	1e                   	push   ds
     df2:	00 00                	add    BYTE PTR [eax],al
     df4:	05 d0 02 ea 2a       	add    eax,0x2aea02d0
     df9:	00 00                	add    BYTE PTR [eax],al
     dfb:	06                   	push   es
     dfc:	d3 02                	rol    DWORD PTR [edx],cl
     dfe:	e1 1e                	loope  e1e <code-0x7217>
     e00:	00 00                	add    BYTE PTR [eax],al
     e02:	05 d4 02 e9 2a       	add    eax,0x2ae902d4
     e07:	00 00                	add    BYTE PTR [eax],al
     e09:	06                   	push   es
     e0a:	d7                   	xlat   BYTE PTR ds:[ebx]
     e0b:	02 2b                	add    ch,BYTE PTR [ebx]
     e0d:	0a 00                	or     al,BYTE PTR [eax]
     e0f:	00 05 d8 02 bc 2d    	add    BYTE PTR ds:0x2dbc02d8,al
     e15:	00 00                	add    BYTE PTR [eax],al
     e17:	06                   	push   es
     e18:	d9 02                	fld    DWORD PTR [edx]
     e1a:	2a 0a                	sub    cl,BYTE PTR [edx]
     e1c:	00 00                	add    BYTE PTR [eax],al
     e1e:	05 da 02 bb 2d       	add    eax,0x2dbb02da
     e23:	00 00                	add    BYTE PTR [eax],al
     e25:	06                   	push   es
     e26:	dc 02                	fadd   QWORD PTR [edx]
     e28:	70 37                	jo     e61 <code-0x71d4>
     e2a:	00 00                	add    BYTE PTR [eax],al
     e2c:	05 dd 02 d3 31       	add    eax,0x31d302dd
     e31:	00 00                	add    BYTE PTR [eax],al
     e33:	06                   	push   es
     e34:	df 02                	fild   WORD PTR [edx]
     e36:	39 2f                	cmp    DWORD PTR [edi],ebp
     e38:	00 00                	add    BYTE PTR [eax],al
     e3a:	05 e0 02 29 27       	add    eax,0x272902e0
     e3f:	00 00                	add    BYTE PTR [eax],al
     e41:	06                   	push   es
     e42:	e2 02                	loop   e46 <code-0x71ef>
     e44:	f2 34 00             	repnz xor al,0x0
     e47:	00 05 e3 02 a2 31    	add    BYTE PTR ds:0x31a202e3,al
     e4d:	00 00                	add    BYTE PTR [eax],al
     e4f:	06                   	push   es
     e50:	e5 02                	in     eax,0x2
     e52:	97                   	xchg   edi,eax
     e53:	03 00                	add    eax,DWORD PTR [eax]
     e55:	00 05 e6 02 85 06    	add    BYTE PTR ds:0x68502e6,al
     e5b:	00 00                	add    BYTE PTR [eax],al
     e5d:	06                   	push   es
     e5e:	e8 02 31 33 00       	call   333f65 <end+0x32ba8d>
     e63:	00 05 e9 02 a9 2f    	add    BYTE PTR ds:0x2fa902e9,al
     e69:	00 00                	add    BYTE PTR [eax],al
     e6b:	05 ee 02 16 2a       	add    eax,0x2a1602ee
     e70:	00 00                	add    BYTE PTR [eax],al
     e72:	00 05 00 02 ab 00    	add    BYTE PTR ds:0xab0200,al
     e78:	00 00                	add    BYTE PTR [eax],al
     e7a:	07                   	pop    es
     e7b:	34 00                	xor    al,0x0
     e7d:	00 00                	add    BYTE PTR [eax],al
     e7f:	03 00                	add    eax,DWORD PTR [eax]
     e81:	01 03                	add    DWORD PTR [ebx],eax
     e83:	01 03                	add    DWORD PTR [ebx],eax
     e85:	07                   	pop    es
     e86:	b0 0e                	mov    al,0xe
     e88:	00 00                	add    BYTE PTR [eax],al
     e8a:	04 03                	add    al,0x3
     e8c:	02 04 03             	add    al,BYTE PTR [ebx+eax*1]
     e8f:	0b 02                	or     eax,DWORD PTR [edx]
     e91:	07                   	pop    es
     e92:	50                   	push   eax
     e93:	09 00                	or     DWORD PTR [eax],eax
     e95:	00 04 05 0d 51 0c 00 	add    BYTE PTR [eax*1+0xc510d],al
     e9c:	00 04 03             	add    BYTE PTR [ebx+eax*1],al
     e9f:	04 05                	add    al,0x5
     ea1:	05 02 7e 3b 00       	add    eax,0x3b7e02
     ea6:	00 04 05 06 82 3c 00 	add    BYTE PTR [eax*1+0x3c8206],al
     ead:	00 04 00             	add    BYTE PTR [eax+eax*1],al
     eb0:	05 00 00 05 27       	add    eax,0x27050000
     eb5:	cd 3e                	int    0x3e
     eb7:	00 00                	add    BYTE PTR [eax],al
     eb9:	05 28 8c 3e 00       	add    eax,0x3e8c28
     ebe:	00 05 2a c8 3e 00    	add    BYTE PTR ds:0x3ec82a,al
     ec4:	00 05 84 01 08 3e    	add    BYTE PTR ds:0x3e080184,al
     eca:	00 00                	add    BYTE PTR [eax],al
     ecc:	05 85 01 7f 3e       	add    eax,0x3e7f0185
     ed1:	00 00                	add    BYTE PTR [eax],al
     ed3:	05 86 01 aa 3e       	add    eax,0x3eaa0186
     ed8:	00 00                	add    BYTE PTR [eax],al
     eda:	05 87 01 33 3c       	add    eax,0x3c330187
     edf:	00 00                	add    BYTE PTR [eax],al
     ee1:	05 88 01 41 3d       	add    eax,0x3d410188
     ee6:	00 00                	add    BYTE PTR [eax],al
     ee8:	05 89 01 3d 3d       	add    eax,0x3d3d0189
     eed:	00 00                	add    BYTE PTR [eax],al
     eef:	05 8a 01 9b 3c       	add    eax,0x3c9b018a
     ef4:	00 00                	add    BYTE PTR [eax],al
     ef6:	05 8b 01 04 3e       	add    eax,0x3e04018b
     efb:	00 00                	add    BYTE PTR [eax],al
     efd:	05 8c 01 1d 3d       	add    eax,0x3d1d018c
     f02:	00 00                	add    BYTE PTR [eax],al
     f04:	05 8d 01 cd 3b       	add    eax,0x3bcd018d
     f09:	00 00                	add    BYTE PTR [eax],al
     f0b:	06                   	push   es
     f0c:	9e                   	sahf
     f0d:	01 65 3c             	add    DWORD PTR [ebp+0x3c],esp
     f10:	00 00                	add    BYTE PTR [eax],al
     f12:	05 b9 01 d8 3e       	add    eax,0x3ed801b9
     f17:	00 00                	add    BYTE PTR [eax],al
     f19:	05 ba 01 76 3c       	add    eax,0x3c7601ba
     f1e:	00 00                	add    BYTE PTR [eax],al
     f20:	05 bb 01 08 3c       	add    eax,0x3c0801bb
     f25:	00 00                	add    BYTE PTR [eax],al
     f27:	05 bc 01 f5 3d       	add    eax,0x3df501bc
     f2c:	00 00                	add    BYTE PTR [eax],al
     f2e:	05 bd 01 94 3b       	add    eax,0x3b9401bd
     f33:	00 00                	add    BYTE PTR [eax],al
     f35:	05 be 01 8b 3b       	add    eax,0x3b8b01be
     f3a:	00 00                	add    BYTE PTR [eax],al
     f3c:	05 bf 01 66 3b       	add    eax,0x3b6601bf
     f41:	00 00                	add    BYTE PTR [eax],al
     f43:	05 c0 01 b5 3b       	add    eax,0x3bb501c0
     f48:	00 00                	add    BYTE PTR [eax],al
     f4a:	05 c1 01 b1 3b       	add    eax,0x3bb101c1
     f4f:	00 00                	add    BYTE PTR [eax],al
     f51:	05 c2 01 e6 3b       	add    eax,0x3be601c2
     f56:	00 00                	add    BYTE PTR [eax],al
     f58:	05 c3 01 54 3c       	add    eax,0x3c5401c3
     f5d:	00 00                	add    BYTE PTR [eax],al
     f5f:	05 c4 01 e2 3b       	add    eax,0x3be201c4
     f64:	00 00                	add    BYTE PTR [eax],al
     f66:	05 c5 01 98 3e       	add    eax,0x3e9801c5
     f6b:	00 00                	add    BYTE PTR [eax],al
     f6d:	05 c6 01 e3 3d       	add    eax,0x3de301c6
     f72:	00 00                	add    BYTE PTR [eax],al
     f74:	05 c7 01 4e 3d       	add    eax,0x3d4e01c7
     f79:	00 00                	add    BYTE PTR [eax],al
     f7b:	05 c8 01 04 3c       	add    eax,0x3c0401c8
     f80:	00 00                	add    BYTE PTR [eax],al
     f82:	05 c9 01 92 3c       	add    eax,0x3c9201c9
     f87:	00 00                	add    BYTE PTR [eax],al
     f89:	05 d0 01 e9 3c       	add    eax,0x3ce901d0
     f8e:	00 00                	add    BYTE PTR [eax],al
     f90:	06                   	push   es
     f91:	ed                   	in     eax,dx
     f92:	01 6b 3d             	add    DWORD PTR [ebx+0x3d],ebp
     f95:	00 00                	add    BYTE PTR [eax],al
     f97:	05 8b 02 47 3c       	add    eax,0x3c47028b
     f9c:	00 00                	add    BYTE PTR [eax],al
     f9e:	05 8c 02 d1 3c       	add    eax,0x3cd1028c
     fa3:	00 00                	add    BYTE PTR [eax],al
     fa5:	05 8d 02 c3 3b       	add    eax,0x3bc3028d
     faa:	00 00                	add    BYTE PTR [eax],al
     fac:	05 8e 02 8b 3d       	add    eax,0x3d8b028e
     fb1:	00 00                	add    BYTE PTR [eax],al
     fb3:	05 8f 02 55 3e       	add    eax,0x3e55028f
     fb8:	00 00                	add    BYTE PTR [eax],al
     fba:	05 90 02 de 3c       	add    eax,0x3cde0290
     fbf:	00 00                	add    BYTE PTR [eax],al
     fc1:	05 91 02 74 3e       	add    eax,0x3e740291
     fc6:	00 00                	add    BYTE PTR [eax],al
     fc8:	05 92 02 70 3e       	add    eax,0x3e700292
     fcd:	00 00                	add    BYTE PTR [eax],al
     fcf:	05 93 02 9e 3b       	add    eax,0x3b9e0293
     fd4:	00 00                	add    BYTE PTR [eax],al
     fd6:	05 94 02 0b 3d       	add    eax,0x3d0b0294
     fdb:	00 00                	add    BYTE PTR [eax],al
     fdd:	05 95 02 9b 3d       	add    eax,0x3d9b0295
     fe2:	00 00                	add    BYTE PTR [eax],al
     fe4:	05 96 02 79 3d       	add    eax,0x3d790296
     fe9:	00 00                	add    BYTE PTR [eax],al
     feb:	05 97 02 96 3d       	add    eax,0x3d960297
     ff0:	00 00                	add    BYTE PTR [eax],al
     ff2:	05 98 02 bf 3b       	add    eax,0x3bbf0298
     ff7:	00 00                	add    BYTE PTR [eax],al
     ff9:	05 99 02 a7 3d       	add    eax,0x3da70299
     ffe:	00 00                	add    BYTE PTR [eax],al
    1000:	05 9a 02 be 3c       	add    eax,0x3cbe029a
    1005:	00 00                	add    BYTE PTR [eax],al
    1007:	06                   	push   es
    1008:	a7                   	cmps   DWORD PTR ds:[esi],DWORD PTR es:[edi]
    1009:	02 70 3b             	add    dh,BYTE PTR [eax+0x3b]
    100c:	00 00                	add    BYTE PTR [eax],al
    100e:	06                   	push   es
    100f:	dd 02                	fld    QWORD PTR [edx]
    1011:	af                   	scas   eax,DWORD PTR es:[edi]
    1012:	3c 00                	cmp    al,0x0
    1014:	00 06                	add    BYTE PTR [esi],al
    1016:	8f 03                	pop    DWORD PTR [ebx]
    1018:	ff                   	(bad)
    1019:	3b 00                	cmp    eax,DWORD PTR [eax]
    101b:	00 05 94 03 5f 3e    	add    BYTE PTR ds:0x3e5f0394,al
    1021:	00 00                	add    BYTE PTR [eax],al
    1023:	06                   	push   es
    1024:	9a 03 f8 3b 00 00 06 	call   0x600:0x3bf803
    102b:	9f                   	lahf
    102c:	03 14 3e             	add    edx,DWORD PTR [esi+edi*1]
    102f:	00 00                	add    BYTE PTR [eax],al
    1031:	05 a0 03 1d 3e       	add    eax,0x3e1d03a0
    1036:	00 00                	add    BYTE PTR [eax],al
    1038:	05 a5 03 b6 3e       	add    eax,0x3eb603a5
    103d:	00 00                	add    BYTE PTR [eax],al
    103f:	05 c1 03 f3 3c       	add    eax,0x3cf303c1
    1044:	00 00                	add    BYTE PTR [eax],al
    1046:	05 c8 03 ba 3d       	add    eax,0x3dba03c8
    104b:	00 00                	add    BYTE PTR [eax],al
    104d:	05 c9 03 11 3c       	add    eax,0x3c1103c9
    1052:	00 00                	add    BYTE PTR [eax],al
    1054:	00 05 00 02 5a 02    	add    BYTE PTR ds:0x25a0200,al
    105a:	00 00                	add    BYTE PTR [eax],al
    105c:	07                   	pop    es
    105d:	34 00                	xor    al,0x0
    105f:	00 00                	add    BYTE PTR [eax],al
    1061:	03 00                	add    eax,DWORD PTR [eax]
    1063:	01 03                	add    DWORD PTR [ebx],eax
    1065:	01 05 03 0b 02 07    	add    DWORD PTR ds:0x7020b03,eax
    106b:	50                   	push   eax
    106c:	09 00                	or     DWORD PTR [eax],eax
    106e:	00 04 05 0d 51 0c 00 	add    BYTE PTR [eax*1+0xc510d],al
    1075:	00 04 03             	add    BYTE PTR [ebx+eax*1],al
    1078:	02 06                	add    al,BYTE PTR [esi]
    107a:	07                   	pop    es
    107b:	b0 0e                	mov    al,0xe
    107d:	00 00                	add    BYTE PTR [eax],al
    107f:	04 03                	add    al,0x3
    1081:	04 04                	add    al,0x4
    1083:	05 02 7e 3b 00       	add    eax,0x3b7e02
    1088:	00 04 03             	add    BYTE PTR [ebx+eax*1],al
    108b:	05 03 05 02 fe       	add    eax,0xfe020503
    1090:	02 00                	add    al,BYTE PTR [eax]
    1092:	00 04 04             	add    BYTE PTR [esp+eax*1],al
	...

Disassembly of section .debug_line:

00000000 <.debug_line>:
   0:	a7                   	cmps   DWORD PTR ds:[esi],DWORD PTR es:[edi]
   1:	00 00                	add    BYTE PTR [eax],al
   3:	00 05 00 04 00 3d    	add    BYTE PTR ds:0x3d000400,al
   9:	00 00                	add    BYTE PTR [eax],al
   b:	00 01                	add    BYTE PTR [ecx],al
   d:	01 01                	add    DWORD PTR [ecx],eax
   f:	fb                   	sti
  10:	0e                   	push   cs
  11:	0d 00 01 01 01       	or     eax,0x1010100
  16:	01 00                	add    DWORD PTR [eax],eax
  18:	00 00                	add    BYTE PTR [eax],al
  1a:	01 00                	add    DWORD PTR [eax],eax
  1c:	00 01                	add    BYTE PTR [ecx],al
  1e:	01 01                	add    DWORD PTR [ecx],eax
  20:	1f                   	pop    ds
  21:	02 00                	add    al,BYTE PTR [eax]
  23:	00 00                	add    BYTE PTR [eax],al
  25:	00 31                	add    BYTE PTR [ecx],dh
  27:	00 00                	add    BYTE PTR [eax],al
  29:	00 02                	add    BYTE PTR [edx],al
  2b:	01 1f                	add    DWORD PTR [edi],ebx
  2d:	02 0f                	add    cl,BYTE PTR [edi]
  2f:	05 2b 00 00 00       	add    eax,0x2b
  34:	00 2b                	add    BYTE PTR [ebx],ch
  36:	00 00                	add    BYTE PTR [eax],al
  38:	00 00                	add    BYTE PTR [eax],al
  3a:	61                   	popa
  3b:	00 00                	add    BYTE PTR [eax],al
  3d:	00 01                	add    BYTE PTR [ecx],al
  3f:	6e                   	outs   dx,BYTE PTR ds:[esi]
  40:	00 00                	add    BYTE PTR [eax],al
  42:	00 00                	add    BYTE PTR [eax],al
  44:	74 00                	je     46 <code-0x7fef>
  46:	00 00                	add    BYTE PTR [eax],al
  48:	01 05 26 00 05 02    	add    DWORD PTR ds:0x2050026,eax
  4e:	70 80                	jo     ffffffd0 <end+0xffff7af8>
  50:	00 00                	add    BYTE PTR [eax],al
  52:	17                   	pop    ss
  53:	05 03 13 05 26       	add    eax,0x26051303
  58:	06                   	push   es
  59:	11 05 21 3d 05 26    	adc    DWORD PTR ds:0x26053d21,eax
  5f:	49                   	dec    ecx
  60:	05 03 4f 05 21       	add    eax,0x21054f03
  65:	46                   	inc    esi
  66:	05 15 74 05 03       	add    eax,0x3057415
  6b:	06                   	push   es
  6c:	4b                   	dec    ebx
  6d:	14 05                	adc    al,0x5
  6f:	0f 06                	clts
  71:	10 05 03 06 f5 05    	adc    BYTE PTR ds:0x5f50603,al
  77:	0f 06                	clts
  79:	0f 05                	syscall
  7b:	03 3f                	add    edi,DWORD PTR [edi]
  7d:	05 10 03 09 ac       	add    eax,0xac090310
  82:	05 0e 65 05 03       	add    eax,0x305650e
  87:	03 78 58             	add    edi,DWORD PTR [eax+0x58]
  8a:	05 10 03 09 3c       	add    eax,0x3c090310
  8f:	05 03 03 77 2e       	add    eax,0x2e770303
  94:	06                   	push   es
  95:	52                   	push   edx
  96:	05 0e 06 01 05       	add    eax,0x501060e
  9b:	03 06                	add    eax,DWORD PTR [esi]
  9d:	4b                   	dec    ebx
  9e:	13 05 10 06 11 05    	adc    eax,DWORD PTR ds:0x5110610
  a4:	01 3e                	add    DWORD PTR [esi],edi
  a6:	02 04 00             	add    al,BYTE PTR [eax+eax*1]
  a9:	01 01                	add    DWORD PTR [ecx],eax
  ab:	ab                   	stos   DWORD PTR es:[edi],eax
  ac:	01 00                	add    DWORD PTR [eax],eax
  ae:	00 05 00 04 00 42    	add    BYTE PTR ds:0x42000400,al
  b4:	00 00                	add    BYTE PTR [eax],al
  b6:	00 01                	add    BYTE PTR [ecx],al
  b8:	01 01                	add    DWORD PTR [ecx],eax
  ba:	fb                   	sti
  bb:	0e                   	push   cs
  bc:	0d 00 01 01 01       	or     eax,0x1010100
  c1:	01 00                	add    DWORD PTR [eax],eax
  c3:	00 00                	add    BYTE PTR [eax],al
  c5:	01 00                	add    DWORD PTR [eax],eax
  c7:	00 01                	add    BYTE PTR [ecx],al
  c9:	01 01                	add    DWORD PTR [ecx],eax
  cb:	1f                   	pop    ds
  cc:	02 00                	add    al,BYTE PTR [eax]
  ce:	00 00                	add    BYTE PTR [eax],al
  d0:	00 31                	add    BYTE PTR [ecx],dh
  d2:	00 00                	add    BYTE PTR [eax],al
  d4:	00 02                	add    BYTE PTR [edx],al
  d6:	01 1f                	add    DWORD PTR [edi],ebx
  d8:	02 0f                	add    cl,BYTE PTR [edi]
  da:	06                   	push   es
  db:	7d 00                	jge    dd <code-0x7f58>
  dd:	00 00                	add    BYTE PTR [eax],al
  df:	00 7d 00             	add    BYTE PTR [ebp+0x0],bh
  e2:	00 00                	add    BYTE PTR [eax],al
  e4:	00 61 00             	add    BYTE PTR [ecx+0x0],ah
  e7:	00 00                	add    BYTE PTR [eax],al
  e9:	01 84 00 00 00 01 74 	add    DWORD PTR [eax+eax*1+0x74010000],eax
  f0:	00 00                	add    BYTE PTR [eax],al
  f2:	00 01                	add    BYTE PTR [ecx],al
  f4:	8d 00                	lea    eax,[eax]
  f6:	00 00                	add    BYTE PTR [eax],al
  f8:	00 05 32 00 05 02    	add    BYTE PTR ds:0x2050032,al
  fe:	d0 80 00 00 03 09    	rol    BYTE PTR [eax+0x9030000],1
 104:	01 06                	add    DWORD PTR [esi],eax
 106:	01 05 03 06 3d 05    	add    DWORD PTR ds:0x53d0603,eax
 10c:	32 06                	xor    al,BYTE PTR [esi]
 10e:	11 05 20 4b 05 06    	adc    DWORD PTR ds:0x6054b20,eax
 114:	4c                   	dec    esp
 115:	05 20 3a 05 15       	add    eax,0x15053a20
 11a:	3c 05                	cmp    al,0x5
 11c:	03 06                	add    eax,DWORD PTR [esi]
 11e:	4c                   	dec    esp
 11f:	05 06 06 01 05       	add    eax,0x5010606
 124:	05 06 2f 05 12       	add    eax,0x12052f06
 129:	06                   	push   es
 12a:	01 08                	add    DWORD PTR [eax],ecx
 12c:	2e 05 0a 06 15 05    	cs add eax,0x515060a
 132:	03 03                	add    eax,DWORD PTR [ebx]
 134:	10 01                	adc    BYTE PTR [ecx],al
 136:	05 0a 06 01 05       	add    eax,0x501060a
 13b:	01 4b 05             	add    DWORD PTR [ebx+0x5],ecx
 13e:	05 06 03 70 9e       	add    eax,0x9e700306
 143:	05 20 06 01 05       	add    eax,0x5010620
 148:	13 ac 05 05 06 4b 05 	adc    ebp,DWORD PTR [ebp+eax*1+0x54b0605]
 14f:	0c 06                	or     al,0x6
 151:	01 05 10 4a 05 05    	add    DWORD PTR ds:0x5054a10,eax
 157:	06                   	push   es
 158:	ae                   	scas   al,BYTE PTR es:[edi]
 159:	08 42 05             	or     BYTE PTR [edx+0x5],al
 15c:	07                   	pop    es
 15d:	06                   	push   es
 15e:	01 05 08 4d 05 07    	add    DWORD PTR ds:0x7054d08,eax
 164:	39 05 0a 03 76 3c    	cmp    DWORD PTR ds:0x3c76030a,eax
 16a:	05 07 03 0a 3c       	add    eax,0x3c0a0307
 16f:	05 05 06 4d 06       	add    eax,0x64d0605
 174:	01 05 0a 06 03 73    	add    DWORD PTR ds:0x7303060a,eax
 17a:	01 02                	add    DWORD PTR [edx],eax
 17c:	04 00                	add    al,0x0
 17e:	01 01                	add    DWORD PTR [ecx],eax
 180:	05 2d 00 05 02       	add    eax,0x205002d
 185:	50                   	push   eax
 186:	81 00 00 03 23 01    	add    DWORD PTR [eax],0x1230300
 18c:	05 03 13 13 05       	add    eax,0x5131303
 191:	2d 06 10 66 05       	sub    eax,0x5661006
 196:	03 4c 06 89          	add    ecx,DWORD PTR [esi+eax*1-0x77]
 19a:	13 05 0a 01 05 0c    	adc    eax,DWORD PTR ds:0xc05010a
 1a0:	06                   	push   es
 1a1:	81 05 10 30 05 05 06 	add    DWORD PTR ds:0x5053010,0x143c0806
 1a8:	08 3c 14 
 1ab:	05 10 06 10 05       	add    eax,0x5100610
 1b0:	15 f2 05 05 3e       	adc    eax,0x3e0505f2
 1b5:	06                   	push   es
 1b6:	03 09                	add    ecx,DWORD PTR [ecx]
 1b8:	d6                   	(bad)
 1b9:	05 07 06 4a 05       	add    eax,0x54a0607
 1be:	05 06 2f 05 06       	add    eax,0x6052f06
 1c3:	06                   	push   es
 1c4:	01 3c 05 0a 06 03 73 	add    DWORD PTR [eax*1+0x7303060a],edi
 1cb:	01 05 04 06 03 10    	add    DWORD PTR ds:0x10030604,eax
 1d1:	58                   	pop    eax
 1d2:	05 03 06 3c 13       	add    eax,0x133c0603
 1d7:	4f                   	dec    edi
 1d8:	05 05 03 46 01       	add    eax,0x1460305
 1dd:	05 03 13 05 20       	add    eax,0x20051303
 1e2:	06                   	push   es
 1e3:	01 05 06 4c 05 20    	add    DWORD PTR ds:0x20054c06,eax
 1e9:	3a 05 15 3c 05 03    	cmp    al,BYTE PTR ds:0x3053c15
 1ef:	06                   	push   es
 1f0:	4c                   	dec    esp
 1f1:	05 06 06 01 05       	add    eax,0x5010606
 1f6:	05 06 2f 05 12       	add    eax,0x12052f06
 1fb:	06                   	push   es
 1fc:	01 08                	add    DWORD PTR [eax],ecx
 1fe:	2e 05 0a 06 15 05    	cs add eax,0x515060a
 204:	03 03                	add    eax,DWORD PTR [ebx]
 206:	10 01                	adc    BYTE PTR [ecx],al
 208:	05 0a 06 01 4a       	add    eax,0x4a01060a
 20d:	05 01 03 24 01       	add    eax,0x1240301
 212:	05 05 06 03 4d       	add    eax,0x4d030605
 217:	ac                   	lods   al,BYTE PTR ds:[esi]
 218:	05 20 06 01 05       	add    eax,0x5010620
 21d:	13 ac 05 05 06 4b 05 	adc    ebp,DWORD PTR [ebp+eax*1+0x54b0605]
 224:	0c 06                	or     al,0x6
 226:	01 05 10 4a 05 05    	add    DWORD PTR ds:0x5054a10,eax
 22c:	06                   	push   es
 22d:	ae                   	scas   al,BYTE PTR es:[edi]
 22e:	08 42 05             	or     BYTE PTR [edx+0x5],al
 231:	07                   	pop    es
 232:	06                   	push   es
 233:	01 05 08 4d 05 07    	add    DWORD PTR ds:0x7054d08,eax
 239:	39 05 0a 03 76 3c    	cmp    DWORD PTR ds:0x3c76030a,eax
 23f:	05 07 03 0a 3c       	add    eax,0x3c0a0307
 244:	05 05 06 4d 06       	add    eax,0x64d0605
 249:	01 05 0a 06 03 73    	add    DWORD PTR ds:0x7303060a,eax
 24f:	01 06                	add    DWORD PTR [esi],eax
 251:	58                   	pop    eax
 252:	03 1d 01 02 0a 00    	add    ebx,DWORD PTR ds:0xa0201
 258:	01 01                	add    DWORD PTR [ecx],eax
 25a:	b4 00                	mov    ah,0x0
 25c:	00 00                	add    BYTE PTR [eax],al
 25e:	05 00 04 00 47       	add    eax,0x47000400
 263:	00 00                	add    BYTE PTR [eax],al
 265:	00 01                	add    BYTE PTR [ecx],al
 267:	01 01                	add    DWORD PTR [ecx],eax
 269:	fb                   	sti
 26a:	0e                   	push   cs
 26b:	0d 00 01 01 01       	or     eax,0x1010100
 270:	01 00                	add    DWORD PTR [eax],eax
 272:	00 00                	add    BYTE PTR [eax],al
 274:	01 00                	add    DWORD PTR [eax],eax
 276:	00 01                	add    BYTE PTR [ecx],al
 278:	01 01                	add    DWORD PTR [ecx],eax
 27a:	1f                   	pop    ds
 27b:	02 00                	add    al,BYTE PTR [eax]
 27d:	00 00                	add    BYTE PTR [eax],al
 27f:	00 31                	add    BYTE PTR [ecx],dh
 281:	00 00                	add    BYTE PTR [eax],al
 283:	00 02                	add    BYTE PTR [edx],al
 285:	01 1f                	add    DWORD PTR [edi],ebx
 287:	02 0f                	add    cl,BYTE PTR [edi]
 289:	07                   	pop    es
 28a:	94                   	xchg   esp,eax
 28b:	00 00                	add    BYTE PTR [eax],al
 28d:	00 00                	add    BYTE PTR [eax],al
 28f:	94                   	xchg   esp,eax
 290:	00 00                	add    BYTE PTR [eax],al
 292:	00 00                	add    BYTE PTR [eax],al
 294:	61                   	popa
 295:	00 00                	add    BYTE PTR [eax],al
 297:	00 01                	add    BYTE PTR [ecx],al
 299:	6e                   	outs   dx,BYTE PTR ds:[esi]
 29a:	00 00                	add    BYTE PTR [eax],al
 29c:	00 00                	add    BYTE PTR [eax],al
 29e:	8d 00                	lea    eax,[eax]
 2a0:	00 00                	add    BYTE PTR [eax],al
 2a2:	00 74 00 00          	add    BYTE PTR [eax+eax*1+0x0],dh
 2a6:	00 01                	add    BYTE PTR [ecx],al
 2a8:	84 00                	test   BYTE PTR [eax],al
 2aa:	00 00                	add    BYTE PTR [eax],al
 2ac:	01 05 35 00 05 02    	add    DWORD PTR ds:0x2050035,eax
 2b2:	40                   	inc    eax
 2b3:	82 00 00             	add    BYTE PTR [eax],0x0
 2b6:	03 0c 01             	add    ecx,DWORD PTR [ecx+eax*1]
 2b9:	05 03 13 05 35       	add    eax,0x35051303
 2be:	06                   	push   es
 2bf:	11 05 03 3d 06 bb    	adc    DWORD PTR ds:0xbb063d03,eax
 2c5:	5b                   	pop    ebx
 2c6:	01 01                	add    DWORD PTR [ecx],eax
 2c8:	01 02                	add    DWORD PTR [edx],eax
 2ca:	02 00                	add    al,BYTE PTR [eax]
 2cc:	01 01                	add    DWORD PTR [ecx],eax
 2ce:	05 15 00 05 02       	add    eax,0x2050015
 2d3:	60                   	pusha
 2d4:	82 00 00             	add    BYTE PTR [eax],0x0
 2d7:	03 15 01 05 03 13    	add    edx,DWORD PTR ds:0x13030501
 2dd:	05 15 06 11 05       	add    eax,0x5110615
 2e2:	03 3d 06 08 2f 75    	add    edi,DWORD PTR ds:0x752f0806
 2e8:	05 01 06 21 02       	add    eax,0x2210601
 2ed:	04 00                	add    al,0x0
 2ef:	01 01                	add    DWORD PTR [ecx],eax
 2f1:	05 10 00 05 02       	add    eax,0x2050010
 2f6:	40                   	inc    eax
 2f7:	80 00 00             	add    BYTE PTR [eax],0x0
 2fa:	03 1b                	add    ebx,DWORD PTR [ebx]
 2fc:	01 05 03 16 05 10    	add    DWORD PTR ds:0x10051603,eax
 302:	06                   	push   es
 303:	0e                   	push   cs
 304:	05 03 08 16 06       	add    eax,0x6160803
 309:	e5 01                	in     eax,0x1
 30b:	01 01                	add    DWORD PTR [ecx],eax
 30d:	02 02                	add    al,BYTE PTR [edx]
 30f:	00 01                	add    BYTE PTR [ecx],al
 311:	01                   	.byte 0x1

Disassembly of section .debug_str:

00000000 <.debug_str>:
       0:	5f                   	pop    edi
       1:	5f                   	pop    edi
       2:	46                   	inc    esi
       3:	4c                   	dec    esp
       4:	54                   	push   esp
       5:	31 36                	xor    DWORD PTR [esi],esi
       7:	5f                   	pop    edi
       8:	4e                   	dec    esi
       9:	4f                   	dec    edi
       a:	52                   	push   edx
       b:	4d                   	dec    ebp
       c:	5f                   	pop    edi
       d:	4d                   	dec    ebp
       e:	41                   	inc    ecx
       f:	58                   	pop    eax
      10:	5f                   	pop    edi
      11:	5f                   	pop    edi
      12:	20 36                	and    BYTE PTR [esi],dh
      14:	2e 35 35 30 34 30    	cs xor eax,0x30343035
      1a:	30 30                	xor    BYTE PTR [eax],dh
      1c:	30 30                	xor    BYTE PTR [eax],dh
      1e:	30 30                	xor    BYTE PTR [eax],dh
      20:	30 30                	xor    BYTE PTR [eax],dh
      22:	30 30                	xor    BYTE PTR [eax],dh
      24:	30 30                	xor    BYTE PTR [eax],dh
      26:	30 30                	xor    BYTE PTR [eax],dh
      28:	30 30                	xor    BYTE PTR [eax],dh
      2a:	30 30                	xor    BYTE PTR [eax],dh
      2c:	30 30                	xor    BYTE PTR [eax],dh
      2e:	30 30                	xor    BYTE PTR [eax],dh
      30:	30 30                	xor    BYTE PTR [eax],dh
      32:	30 30                	xor    BYTE PTR [eax],dh
      34:	30 30                	xor    BYTE PTR [eax],dh
      36:	30 30                	xor    BYTE PTR [eax],dh
      38:	65 2b 34 46          	sub    esi,DWORD PTR gs:[esi+eax*2]
      3c:	31 36                	xor    DWORD PTR [esi],esi
      3e:	00 5f 5f             	add    BYTE PTR [edi+0x5f],bl
      41:	53                   	push   ebx
      42:	49                   	dec    ecx
      43:	47                   	inc    edi
      44:	5f                   	pop    edi
      45:	41                   	inc    ecx
      46:	54                   	push   esp
      47:	4f                   	dec    edi
      48:	4d                   	dec    ebp
      49:	49                   	dec    ecx
      4a:	43                   	inc    ebx
      4b:	5f                   	pop    edi
      4c:	4d                   	dec    ebp
      4d:	41                   	inc    ecx
      4e:	58                   	pop    eax
      4f:	5f                   	pop    edi
      50:	5f                   	pop    edi
      51:	20 30                	and    BYTE PTR [eax],dh
      53:	78 37                	js     8c <code-0x7fa9>
      55:	66 66 66 66 66 66 66 	data16 data16 data16 data16 data16 data16 data16 add BYTE PTR [edi+0x5f],bl
      5c:	00 5f 5f 
      5f:	46                   	inc    esi
      60:	4c                   	dec    esp
      61:	54                   	push   esp
      62:	36 34 5f             	ss xor al,0x5f
      65:	48                   	dec    eax
      66:	41                   	inc    ecx
      67:	53                   	push   ebx
      68:	5f                   	pop    edi
      69:	51                   	push   ecx
      6a:	55                   	push   ebp
      6b:	49                   	dec    ecx
      6c:	45                   	inc    ebp
      6d:	54                   	push   esp
      6e:	5f                   	pop    edi
      6f:	4e                   	dec    esi
      70:	41                   	inc    ecx
      71:	4e                   	dec    esi
      72:	5f                   	pop    edi
      73:	5f                   	pop    edi
      74:	20 31                	and    BYTE PTR [ecx],dh
      76:	00 5f 5f             	add    BYTE PTR [edi+0x5f],bl
      79:	44                   	inc    esp
      7a:	45                   	inc    ebp
      7b:	43                   	inc    ebx
      7c:	36 34 5f             	ss xor al,0x5f
      7f:	53                   	push   ebx
      80:	55                   	push   ebp
      81:	42                   	inc    edx
      82:	4e                   	dec    esi
      83:	4f                   	dec    edi
      84:	52                   	push   edx
      85:	4d                   	dec    ebp
      86:	41                   	inc    ecx
      87:	4c                   	dec    esp
      88:	5f                   	pop    edi
      89:	4d                   	dec    ebp
      8a:	49                   	dec    ecx
      8b:	4e                   	dec    esi
      8c:	5f                   	pop    edi
      8d:	5f                   	pop    edi
      8e:	20 30                	and    BYTE PTR [eax],dh
      90:	2e 30 30             	xor    BYTE PTR cs:[eax],dh
      93:	30 30                	xor    BYTE PTR [eax],dh
      95:	30 30                	xor    BYTE PTR [eax],dh
      97:	30 30                	xor    BYTE PTR [eax],dh
      99:	30 30                	xor    BYTE PTR [eax],dh
      9b:	30 30                	xor    BYTE PTR [eax],dh
      9d:	30 30                	xor    BYTE PTR [eax],dh
      9f:	31 45 2d             	xor    DWORD PTR [ebp+0x2d],eax
      a2:	33 38                	xor    edi,DWORD PTR [eax]
      a4:	33 44 44 00          	xor    eax,DWORD PTR [esp+eax*2+0x0]
      a8:	5f                   	pop    edi
      a9:	5f                   	pop    edi
      aa:	46                   	inc    esi
      ab:	4c                   	dec    esp
      ac:	54                   	push   esp
      ad:	31 36                	xor    DWORD PTR [esi],esi
      af:	5f                   	pop    edi
      b0:	4d                   	dec    ebp
      b1:	49                   	dec    ecx
      b2:	4e                   	dec    esi
      b3:	5f                   	pop    edi
      b4:	31 30                	xor    DWORD PTR [eax],esi
      b6:	5f                   	pop    edi
      b7:	45                   	inc    ebp
      b8:	58                   	pop    eax
      b9:	50                   	push   eax
      ba:	5f                   	pop    edi
      bb:	5f                   	pop    edi
      bc:	20 28                	and    BYTE PTR [eax],ch
      be:	2d 34 29 00 5f       	sub    eax,0x5f002934
      c3:	5f                   	pop    edi
      c4:	46                   	inc    esi
      c5:	4c                   	dec    esp
      c6:	54                   	push   esp
      c7:	33 32                	xor    esi,DWORD PTR [edx]
      c9:	5f                   	pop    edi
      ca:	48                   	dec    eax
      cb:	41                   	inc    ecx
      cc:	53                   	push   ebx
      cd:	5f                   	pop    edi
      ce:	49                   	dec    ecx
      cf:	4e                   	dec    esi
      d0:	46                   	inc    esi
      d1:	49                   	dec    ecx
      d2:	4e                   	dec    esi
      d3:	49                   	dec    ecx
      d4:	54                   	push   esp
      d5:	59                   	pop    ecx
      d6:	5f                   	pop    edi
      d7:	5f                   	pop    edi
      d8:	20 31                	and    BYTE PTR [ecx],dh
      da:	00 5f 5f             	add    BYTE PTR [edi+0x5f],bl
      dd:	46                   	inc    esi
      de:	4c                   	dec    esp
      df:	54                   	push   esp
      e0:	5f                   	pop    edi
      e1:	45                   	inc    ebp
      e2:	56                   	push   esi
      e3:	41                   	inc    ecx
      e4:	4c                   	dec    esp
      e5:	5f                   	pop    edi
      e6:	4d                   	dec    ebp
      e7:	45                   	inc    ebp
      e8:	54                   	push   esp
      e9:	48                   	dec    eax
      ea:	4f                   	dec    edi
      eb:	44                   	inc    esp
      ec:	5f                   	pop    edi
      ed:	5f                   	pop    edi
      ee:	20 32                	and    BYTE PTR [edx],dh
      f0:	00 5f 5f             	add    BYTE PTR [edi+0x5f],bl
      f3:	46                   	inc    esi
      f4:	4c                   	dec    esp
      f5:	54                   	push   esp
      f6:	36 34 5f             	ss xor al,0x5f
      f9:	4d                   	dec    ebp
      fa:	41                   	inc    ecx
      fb:	58                   	pop    eax
      fc:	5f                   	pop    edi
      fd:	45                   	inc    ebp
      fe:	58                   	pop    eax
      ff:	50                   	push   eax
     100:	5f                   	pop    edi
     101:	5f                   	pop    edi
     102:	20 31                	and    BYTE PTR [ecx],dh
     104:	30 32                	xor    BYTE PTR [edx],dh
     106:	34 00                	xor    al,0x0
     108:	5f                   	pop    edi
     109:	5f                   	pop    edi
     10a:	46                   	inc    esi
     10b:	4c                   	dec    esp
     10c:	54                   	push   esp
     10d:	5f                   	pop    edi
     10e:	4d                   	dec    ebp
     10f:	49                   	dec    ecx
     110:	4e                   	dec    esi
     111:	5f                   	pop    edi
     112:	31 30                	xor    DWORD PTR [eax],esi
     114:	5f                   	pop    edi
     115:	45                   	inc    ebp
     116:	58                   	pop    eax
     117:	50                   	push   eax
     118:	5f                   	pop    edi
     119:	5f                   	pop    edi
     11a:	20 28                	and    BYTE PTR [eax],ch
     11c:	2d 33 37 29 00       	sub    eax,0x293733
     121:	5f                   	pop    edi
     122:	5f                   	pop    edi
     123:	46                   	inc    esi
     124:	4c                   	dec    esp
     125:	54                   	push   esp
     126:	36 34 58             	ss xor al,0x58
     129:	5f                   	pop    edi
     12a:	45                   	inc    ebp
     12b:	50                   	push   eax
     12c:	53                   	push   ebx
     12d:	49                   	dec    ecx
     12e:	4c                   	dec    esp
     12f:	4f                   	dec    edi
     130:	4e                   	dec    esi
     131:	5f                   	pop    edi
     132:	5f                   	pop    edi
     133:	20 31                	and    BYTE PTR [ecx],dh
     135:	2e 30 38             	xor    BYTE PTR cs:[eax],bh
     138:	34 32                	xor    al,0x32
     13a:	30 32                	xor    BYTE PTR [edx],dh
     13c:	31 37                	xor    DWORD PTR [edi],esi
     13e:	32 34 38             	xor    dh,BYTE PTR [eax+edi*1]
     141:	35 35 30 34 34       	xor    eax,0x34343035
     146:	33 34 30             	xor    esi,DWORD PTR [eax+esi*1]
     149:	30 37                	xor    BYTE PTR [edi],dh
     14b:	34 35                	xor    al,0x35
     14d:	32 38                	xor    bh,BYTE PTR [eax]
     14f:	30 30                	xor    BYTE PTR [eax],dh
     151:	38 36                	cmp    BYTE PTR [esi],dh
     153:	39 39                	cmp    DWORD PTR [ecx],edi
     155:	34 31                	xor    al,0x31
     157:	37                   	aaa
     158:	31 65 2d             	xor    DWORD PTR [ebp+0x2d],esp
     15b:	31 39                	xor    DWORD PTR [ecx],edi
     15d:	46                   	inc    esi
     15e:	36 34 78             	ss xor al,0x78
     161:	00 5f 5f             	add    BYTE PTR [edi+0x5f],bl
     164:	46                   	inc    esi
     165:	4c                   	dec    esp
     166:	54                   	push   esp
     167:	33 32                	xor    esi,DWORD PTR [edx]
     169:	58                   	pop    eax
     16a:	5f                   	pop    edi
     16b:	4d                   	dec    ebp
     16c:	41                   	inc    ecx
     16d:	58                   	pop    eax
     16e:	5f                   	pop    edi
     16f:	45                   	inc    ebp
     170:	58                   	pop    eax
     171:	50                   	push   eax
     172:	5f                   	pop    edi
     173:	5f                   	pop    edi
     174:	20 31                	and    BYTE PTR [ecx],dh
     176:	30 32                	xor    BYTE PTR [edx],dh
     178:	34 00                	xor    al,0x0
     17a:	5f                   	pop    edi
     17b:	5f                   	pop    edi
     17c:	49                   	dec    ecx
     17d:	4e                   	dec    esi
     17e:	54                   	push   esp
     17f:	5f                   	pop    edi
     180:	46                   	inc    esi
     181:	41                   	inc    ecx
     182:	53                   	push   ebx
     183:	54                   	push   esp
     184:	31 36                	xor    DWORD PTR [esi],esi
     186:	5f                   	pop    edi
     187:	57                   	push   edi
     188:	49                   	dec    ecx
     189:	44                   	inc    esp
     18a:	54                   	push   esp
     18b:	48                   	dec    eax
     18c:	5f                   	pop    edi
     18d:	5f                   	pop    edi
     18e:	20 33                	and    BYTE PTR [ebx],dh
     190:	32 00                	xor    al,BYTE PTR [eax]
     192:	5f                   	pop    edi
     193:	5f                   	pop    edi
     194:	47                   	inc    edi
     195:	43                   	inc    ebx
     196:	43                   	inc    ebx
     197:	5f                   	pop    edi
     198:	41                   	inc    ecx
     199:	54                   	push   esp
     19a:	4f                   	dec    edi
     19b:	4d                   	dec    ebp
     19c:	49                   	dec    ecx
     19d:	43                   	inc    ebx
     19e:	5f                   	pop    edi
     19f:	54                   	push   esp
     1a0:	45                   	inc    ebp
     1a1:	53                   	push   ebx
     1a2:	54                   	push   esp
     1a3:	5f                   	pop    edi
     1a4:	41                   	inc    ecx
     1a5:	4e                   	dec    esi
     1a6:	44                   	inc    esp
     1a7:	5f                   	pop    edi
     1a8:	53                   	push   ebx
     1a9:	45                   	inc    ebp
     1aa:	54                   	push   esp
     1ab:	5f                   	pop    edi
     1ac:	54                   	push   esp
     1ad:	52                   	push   edx
     1ae:	55                   	push   ebp
     1af:	45                   	inc    ebp
     1b0:	56                   	push   esi
     1b1:	41                   	inc    ecx
     1b2:	4c                   	dec    esp
     1b3:	20 31                	and    BYTE PTR [ecx],dh
     1b5:	00 47 4e             	add    BYTE PTR [edi+0x4e],al
     1b8:	55                   	push   ebp
     1b9:	20 43 32             	and    BYTE PTR [ebx+0x32],al
     1bc:	33 20                	xor    esp,DWORD PTR [eax]
     1be:	31 34 2e             	xor    DWORD PTR [esi+ebp*1],esi
     1c1:	32 2e                	xor    ch,BYTE PTR [esi]
     1c3:	31 20                	xor    DWORD PTR [eax],esp
     1c5:	32 30                	xor    dh,BYTE PTR [eax]
     1c7:	32 35 30 32 30 37    	xor    dh,BYTE PTR ds:0x37303230
     1cd:	20 2d 6d 33 32 20    	and    BYTE PTR ds:0x2032336d,ch
     1d3:	2d 6d 61 73 6d       	sub    eax,0x6d73616d
     1d8:	3d 69 6e 74 65       	cmp    eax,0x65746e69
     1dd:	6c                   	ins    BYTE PTR es:[edi],dx
     1de:	20 2d 6d 6e 6f 2d    	and    BYTE PTR ds:0x2d6f6e6d,ch
     1e4:	72 65                	jb     24b <code-0x7dea>
     1e6:	64 2d 7a 6f 6e 65    	fs sub eax,0x656e6f7a
     1ec:	20 2d 6d 74 75 6e    	and    BYTE PTR ds:0x6e75746d,ch
     1f2:	65 3d 67 65 6e 65    	gs cmp eax,0x656e6567
     1f8:	72 69                	jb     263 <code-0x7dd2>
     1fa:	63 20                	arpl   WORD PTR [eax],esp
     1fc:	2d 6d 61 72 63       	sub    eax,0x6372616d
     201:	68 3d 78 38 36       	push   0x3638783d
     206:	2d 36 34 20 2d       	sub    eax,0x2d203436
     20b:	67 67 64 62 33       	addr16 bound esi,QWORD PTR fs:[bp+di]
     210:	20 2d 67 67 64 62    	and    BYTE PTR ds:0x62646767,ch
     216:	33 20                	xor    esp,DWORD PTR [eax]
     218:	2d 4f 30 20 2d       	sub    eax,0x2d20304f
     21d:	4f                   	dec    edi
     21e:	33 20                	xor    esp,DWORD PTR [eax]
     220:	2d 73 74 64 3d       	sub    eax,0x3d647473
     225:	67 6e                	outs   dx,BYTE PTR ds:[si]
     227:	75 32                	jne    25b <code-0x7dda>
     229:	33 20                	xor    esp,DWORD PTR [eax]
     22b:	2d 73 74 64 3d       	sub    eax,0x3d647473
     230:	67 6e                	outs   dx,BYTE PTR ds:[si]
     232:	75 32                	jne    266 <code-0x7dcf>
     234:	33 20                	xor    esp,DWORD PTR [eax]
     236:	2d 66 66 72 65       	sub    eax,0x65726666
     23b:	65 73 74             	gs jae 2b2 <code-0x7d83>
     23e:	61                   	popa
     23f:	6e                   	outs   dx,BYTE PTR ds:[esi]
     240:	64 69 6e 67 20 2d 66 	imul   ebp,DWORD PTR fs:[esi+0x67],0x6e662d20
     247:	6e 
     248:	6f                   	outs   dx,DWORD PTR ds:[esi]
     249:	2d 70 69 65 20       	sub    eax,0x20656970
     24e:	2d 66 66 75 6e       	sub    eax,0x6e756666
     253:	63 74 69 6f          	arpl   WORD PTR [ecx+ebp*2+0x6f],esi
     257:	6e                   	outs   dx,BYTE PTR ds:[esi]
     258:	2d 73 65 63 74       	sub    eax,0x74636573
     25d:	69 6f 6e 73 20 2d 66 	imul   ebp,DWORD PTR [edi+0x6e],0x662d2073
     264:	6e                   	outs   dx,BYTE PTR ds:[esi]
     265:	6f                   	outs   dx,DWORD PTR ds:[esi]
     266:	2d 73 74 61 63       	sub    eax,0x63617473
     26b:	6b 2d 70 72 6f 74 65 	imul   ebp,DWORD PTR ds:0x746f7270,0x65
     272:	63 74 6f 72          	arpl   WORD PTR [edi+ebp*2+0x72],esi
     276:	00 5f 5f             	add    BYTE PTR [edi+0x5f],bl
     279:	44                   	inc    esp
     27a:	45                   	inc    ebp
     27b:	43                   	inc    ebx
     27c:	36 34 5f             	ss xor al,0x5f
     27f:	45                   	inc    ebp
     280:	50                   	push   eax
     281:	53                   	push   ebx
     282:	49                   	dec    ecx
     283:	4c                   	dec    esp
     284:	4f                   	dec    edi
     285:	4e                   	dec    esi
     286:	5f                   	pop    edi
     287:	5f                   	pop    edi
     288:	20 31                	and    BYTE PTR [ecx],dh
     28a:	45                   	inc    ebp
     28b:	2d 31 35 44 44       	sub    eax,0x44443531
     290:	00 5f 5f             	add    BYTE PTR [edi+0x5f],bl
     293:	44                   	inc    esp
     294:	42                   	inc    edx
     295:	4c                   	dec    esp
     296:	5f                   	pop    edi
     297:	44                   	inc    esp
     298:	45                   	inc    ebp
     299:	4e                   	dec    esi
     29a:	4f                   	dec    edi
     29b:	52                   	push   edx
     29c:	4d                   	dec    ebp
     29d:	5f                   	pop    edi
     29e:	4d                   	dec    ebp
     29f:	49                   	dec    ecx
     2a0:	4e                   	dec    esi
     2a1:	5f                   	pop    edi
     2a2:	5f                   	pop    edi
     2a3:	20 28                	and    BYTE PTR [eax],ch
     2a5:	28 64 6f 75          	sub    BYTE PTR [edi+ebp*2+0x75],ah
     2a9:	62 6c 65 29          	bound  ebp,QWORD PTR [ebp+eiz*2+0x29]
     2ad:	34 2e                	xor    al,0x2e
     2af:	39 34 30             	cmp    DWORD PTR [eax+esi*1],esi
     2b2:	36 35 36 34 35 38    	ss xor eax,0x38353436
     2b8:	34 31                	xor    al,0x31
     2ba:	32 34 36             	xor    dh,BYTE PTR [esi+esi*1]
     2bd:	35 34 34 31 37       	xor    eax,0x37313434
     2c2:	36 35 36 38 37 39    	ss xor eax,0x39373836
     2c8:	32 38                	xor    bh,BYTE PTR [eax]
     2ca:	36 38 32             	cmp    BYTE PTR ss:[edx],dh
     2cd:	32 31                	xor    dh,BYTE PTR [ecx]
     2cf:	33 37                	xor    esi,DWORD PTR [edi]
     2d1:	32 65 2d             	xor    ah,BYTE PTR [ebp+0x2d]
     2d4:	33 32                	xor    esi,DWORD PTR [edx]
     2d6:	34 4c                	xor    al,0x4c
     2d8:	29 00                	sub    DWORD PTR [eax],eax
     2da:	49                   	dec    ecx
     2db:	4e                   	dec    esi
     2dc:	54                   	push   esp
     2dd:	5f                   	pop    edi
     2de:	4c                   	dec    esp
     2df:	45                   	inc    ebp
     2e0:	41                   	inc    ecx
     2e1:	53                   	push   ebx
     2e2:	54                   	push   esp
     2e3:	31 36                	xor    DWORD PTR [esi],esi
     2e5:	5f                   	pop    edi
     2e6:	4d                   	dec    ebp
     2e7:	41                   	inc    ecx
     2e8:	58                   	pop    eax
     2e9:	20 5f 5f             	and    BYTE PTR [edi+0x5f],bl
     2ec:	49                   	dec    ecx
     2ed:	4e                   	dec    esi
     2ee:	54                   	push   esp
     2ef:	5f                   	pop    edi
     2f0:	4c                   	dec    esp
     2f1:	45                   	inc    ebp
     2f2:	41                   	inc    ecx
     2f3:	53                   	push   ebx
     2f4:	54                   	push   esp
     2f5:	31 36                	xor    DWORD PTR [esi],esi
     2f7:	5f                   	pop    edi
     2f8:	4d                   	dec    ebp
     2f9:	41                   	inc    ecx
     2fa:	58                   	pop    eax
     2fb:	5f                   	pop    edi
     2fc:	5f                   	pop    edi
     2fd:	00 42 4f             	add    BYTE PTR [edx+0x4f],al
     300:	4f                   	dec    edi
     301:	54                   	push   esp
     302:	5f                   	pop    edi
     303:	49                   	dec    ecx
     304:	44                   	inc    esp
     305:	54                   	push   esp
     306:	5f                   	pop    edi
     307:	48                   	dec    eax
     308:	20 00                	and    BYTE PTR [eax],al
     30a:	55                   	push   ebp
     30b:	49                   	dec    ecx
     30c:	4e                   	dec    esi
     30d:	54                   	push   esp
     30e:	38 5f 4d             	cmp    BYTE PTR [edi+0x4d],bl
     311:	41                   	inc    ecx
     312:	58                   	pop    eax
     313:	20 5f 5f             	and    BYTE PTR [edi+0x5f],bl
     316:	55                   	push   ebp
     317:	49                   	dec    ecx
     318:	4e                   	dec    esi
     319:	54                   	push   esp
     31a:	38 5f 4d             	cmp    BYTE PTR [edi+0x4d],bl
     31d:	41                   	inc    ecx
     31e:	58                   	pop    eax
     31f:	5f                   	pop    edi
     320:	5f                   	pop    edi
     321:	00 55 49             	add    BYTE PTR [ebp+0x49],dl
     324:	4e                   	dec    esi
     325:	54                   	push   esp
     326:	31 36                	xor    DWORD PTR [esi],esi
     328:	5f                   	pop    edi
     329:	43                   	inc    ebx
     32a:	00 5f 5f             	add    BYTE PTR [edi+0x5f],bl
     32d:	46                   	inc    esi
     32e:	4c                   	dec    esp
     32f:	54                   	push   esp
     330:	33 32                	xor    esi,DWORD PTR [edx]
     332:	5f                   	pop    edi
     333:	4d                   	dec    ebp
     334:	41                   	inc    ecx
     335:	4e                   	dec    esi
     336:	54                   	push   esp
     337:	5f                   	pop    edi
     338:	44                   	inc    esp
     339:	49                   	dec    ecx
     33a:	47                   	inc    edi
     33b:	5f                   	pop    edi
     33c:	5f                   	pop    edi
     33d:	20 32                	and    BYTE PTR [edx],dh
     33f:	34 00                	xor    al,0x0
     341:	55                   	push   ebp
     342:	49                   	dec    ecx
     343:	4e                   	dec    esi
     344:	54                   	push   esp
     345:	5f                   	pop    edi
     346:	46                   	inc    esi
     347:	41                   	inc    ecx
     348:	53                   	push   ebx
     349:	54                   	push   esp
     34a:	38 5f 57             	cmp    BYTE PTR [edi+0x57],bl
     34d:	49                   	dec    ecx
     34e:	44                   	inc    esp
     34f:	54                   	push   esp
     350:	48                   	dec    eax
     351:	20 5f 5f             	and    BYTE PTR [edi+0x5f],bl
     354:	49                   	dec    ecx
     355:	4e                   	dec    esi
     356:	54                   	push   esp
     357:	5f                   	pop    edi
     358:	46                   	inc    esi
     359:	41                   	inc    ecx
     35a:	53                   	push   ebx
     35b:	54                   	push   esp
     35c:	38 5f 57             	cmp    BYTE PTR [edi+0x57],bl
     35f:	49                   	dec    ecx
     360:	44                   	inc    esp
     361:	54                   	push   esp
     362:	48                   	dec    eax
     363:	5f                   	pop    edi
     364:	5f                   	pop    edi
     365:	00 5f 5f             	add    BYTE PTR [edi+0x5f],bl
     368:	46                   	inc    esi
     369:	4c                   	dec    esp
     36a:	54                   	push   esp
     36b:	31 32                	xor    DWORD PTR [edx],esi
     36d:	38 5f 4d             	cmp    BYTE PTR [edi+0x4d],bl
     370:	41                   	inc    ecx
     371:	4e                   	dec    esi
     372:	54                   	push   esp
     373:	5f                   	pop    edi
     374:	44                   	inc    esp
     375:	49                   	dec    ecx
     376:	47                   	inc    edi
     377:	5f                   	pop    edi
     378:	5f                   	pop    edi
     379:	20 31                	and    BYTE PTR [ecx],dh
     37b:	31 33                	xor    DWORD PTR [ebx],esi
     37d:	00 5f 5f             	add    BYTE PTR [edi+0x5f],bl
     380:	53                   	push   ebx
     381:	54                   	push   esp
     382:	44                   	inc    esp
     383:	43                   	inc    ebx
     384:	5f                   	pop    edi
     385:	56                   	push   esi
     386:	45                   	inc    ebp
     387:	52                   	push   edx
     388:	53                   	push   ebx
     389:	49                   	dec    ecx
     38a:	4f                   	dec    edi
     38b:	4e                   	dec    esi
     38c:	5f                   	pop    edi
     38d:	5f                   	pop    edi
     38e:	20 32                	and    BYTE PTR [edx],dh
     390:	30 32                	xor    BYTE PTR [edx],dh
     392:	30 30                	xor    BYTE PTR [eax],dh
     394:	30 4c 00 57          	xor    BYTE PTR [eax+eax*1+0x57],cl
     398:	43                   	inc    ebx
     399:	48                   	dec    eax
     39a:	41                   	inc    ecx
     39b:	52                   	push   edx
     39c:	5f                   	pop    edi
     39d:	57                   	push   edi
     39e:	49                   	dec    ecx
     39f:	44                   	inc    esp
     3a0:	54                   	push   esp
     3a1:	48                   	dec    eax
     3a2:	00 49 4e             	add    BYTE PTR [ecx+0x4e],cl
     3a5:	54                   	push   esp
     3a6:	31 36                	xor    DWORD PTR [esi],esi
     3a8:	5f                   	pop    edi
     3a9:	43                   	inc    ebx
     3aa:	28 63 29             	sub    BYTE PTR [ebx+0x29],ah
     3ad:	20 5f 5f             	and    BYTE PTR [edi+0x5f],bl
     3b0:	49                   	dec    ecx
     3b1:	4e                   	dec    esi
     3b2:	54                   	push   esp
     3b3:	31 36                	xor    DWORD PTR [esi],esi
     3b5:	5f                   	pop    edi
     3b6:	43                   	inc    ebx
     3b7:	28 63 29             	sub    BYTE PTR [ebx+0x29],ah
     3ba:	00 5f 49             	add    BYTE PTR [edi+0x49],bl
     3bd:	4c                   	dec    esp
     3be:	50                   	push   eax
     3bf:	33 32                	xor    esi,DWORD PTR [edx]
     3c1:	20 31                	and    BYTE PTR [ecx],dh
     3c3:	00 5f 5f             	add    BYTE PTR [edi+0x5f],bl
     3c6:	44                   	inc    esp
     3c7:	45                   	inc    ebp
     3c8:	43                   	inc    ebx
     3c9:	49                   	dec    ecx
     3ca:	4d                   	dec    ebp
     3cb:	41                   	inc    ecx
     3cc:	4c                   	dec    esp
     3cd:	5f                   	pop    edi
     3ce:	42                   	inc    edx
     3cf:	49                   	dec    ecx
     3d0:	44                   	inc    esp
     3d1:	5f                   	pop    edi
     3d2:	46                   	inc    esi
     3d3:	4f                   	dec    edi
     3d4:	52                   	push   edx
     3d5:	4d                   	dec    ebp
     3d6:	41                   	inc    ecx
     3d7:	54                   	push   esp
     3d8:	5f                   	pop    edi
     3d9:	5f                   	pop    edi
     3da:	20 31                	and    BYTE PTR [ecx],dh
     3dc:	00 5f 5f             	add    BYTE PTR [edi+0x5f],bl
     3df:	46                   	inc    esi
     3e0:	4c                   	dec    esp
     3e1:	54                   	push   esp
     3e2:	33 32                	xor    esi,DWORD PTR [edx]
     3e4:	58                   	pop    eax
     3e5:	5f                   	pop    edi
     3e6:	44                   	inc    esp
     3e7:	45                   	inc    ebp
     3e8:	43                   	inc    ebx
     3e9:	49                   	dec    ecx
     3ea:	4d                   	dec    ebp
     3eb:	41                   	inc    ecx
     3ec:	4c                   	dec    esp
     3ed:	5f                   	pop    edi
     3ee:	44                   	inc    esp
     3ef:	49                   	dec    ecx
     3f0:	47                   	inc    edi
     3f1:	5f                   	pop    edi
     3f2:	5f                   	pop    edi
     3f3:	20 31                	and    BYTE PTR [ecx],dh
     3f5:	37                   	aaa
     3f6:	00 5f 5f             	add    BYTE PTR [edi+0x5f],bl
     3f9:	6b 38 5f             	imul   edi,DWORD PTR [eax],0x5f
     3fc:	5f                   	pop    edi
     3fd:	20 31                	and    BYTE PTR [ecx],dh
     3ff:	00 5f 5f             	add    BYTE PTR [edi+0x5f],bl
     402:	44                   	inc    esp
     403:	42                   	inc    edx
     404:	4c                   	dec    esp
     405:	5f                   	pop    edi
     406:	4d                   	dec    ebp
     407:	49                   	dec    ecx
     408:	4e                   	dec    esi
     409:	5f                   	pop    edi
     40a:	45                   	inc    ebp
     40b:	58                   	pop    eax
     40c:	50                   	push   eax
     40d:	5f                   	pop    edi
     40e:	5f                   	pop    edi
     40f:	20 28                	and    BYTE PTR [eax],ch
     411:	2d 31 30 32 31       	sub    eax,0x31323031
     416:	29 00                	sub    DWORD PTR [eax],eax
     418:	5f                   	pop    edi
     419:	5f                   	pop    edi
     41a:	46                   	inc    esi
     41b:	4c                   	dec    esp
     41c:	54                   	push   esp
     41d:	33 32                	xor    esi,DWORD PTR [edx]
     41f:	58                   	pop    eax
     420:	5f                   	pop    edi
     421:	4d                   	dec    ebp
     422:	41                   	inc    ecx
     423:	58                   	pop    eax
     424:	5f                   	pop    edi
     425:	5f                   	pop    edi
     426:	20 31                	and    BYTE PTR [ecx],dh
     428:	2e 37                	cs aaa
     42a:	39 37                	cmp    DWORD PTR [edi],esi
     42c:	36 39 33             	cmp    DWORD PTR ss:[ebx],esi
     42f:	31 33                	xor    DWORD PTR [ebx],esi
     431:	34 38                	xor    al,0x38
     433:	36 32 33             	xor    dh,BYTE PTR ss:[ebx]
     436:	31 35 37 30 38 31    	xor    DWORD PTR ds:0x31383037,esi
     43c:	34 35                	xor    al,0x35
     43e:	32 37                	xor    dh,BYTE PTR [edi]
     440:	34 32                	xor    al,0x32
     442:	33 37                	xor    esi,DWORD PTR [edi]
     444:	33 31                	xor    esi,DWORD PTR [ecx]
     446:	37                   	aaa
     447:	30 34 33             	xor    BYTE PTR [ebx+esi*1],dh
     44a:	35 37 65 2b 33       	xor    eax,0x332b6537
     44f:	30 38                	xor    BYTE PTR [eax],bh
     451:	46                   	inc    esi
     452:	33 32                	xor    esi,DWORD PTR [edx]
     454:	78 00                	js     456 <code-0x7bdf>
     456:	5f                   	pop    edi
     457:	5f                   	pop    edi
     458:	46                   	inc    esi
     459:	4c                   	dec    esp
     45a:	54                   	push   esp
     45b:	31 32                	xor    DWORD PTR [edx],esi
     45d:	38 5f 4d             	cmp    BYTE PTR [edi+0x4d],bl
     460:	41                   	inc    ecx
     461:	58                   	pop    eax
     462:	5f                   	pop    edi
     463:	5f                   	pop    edi
     464:	20 31                	and    BYTE PTR [ecx],dh
     466:	2e 31 38             	xor    DWORD PTR cs:[eax],edi
     469:	39 37                	cmp    DWORD PTR [edi],esi
     46b:	33 31                	xor    esi,DWORD PTR [ecx]
     46d:	34 39                	xor    al,0x39
     46f:	35 33 35 37 32       	xor    eax,0x32373533
     474:	33 31                	xor    esi,DWORD PTR [ecx]
     476:	37                   	aaa
     477:	36 35 30 38 35 37    	ss xor eax,0x37353830
     47d:	35 39 33 32 36       	xor    eax,0x36323339
     482:	36 32 38             	xor    bh,BYTE PTR ss:[eax]
     485:	30 30                	xor    BYTE PTR [eax],dh
     487:	37                   	aaa
     488:	30 32                	xor    BYTE PTR [edx],dh
     48a:	65 2b 34 39          	sub    esi,DWORD PTR gs:[ecx+edi*1]
     48e:	33 32                	xor    esi,DWORD PTR [edx]
     490:	46                   	inc    esi
     491:	31 32                	xor    DWORD PTR [edx],esi
     493:	38 00                	cmp    BYTE PTR [eax],al
     495:	5f                   	pop    edi
     496:	5f                   	pop    edi
     497:	53                   	push   ebx
     498:	49                   	dec    ecx
     499:	5a                   	pop    edx
     49a:	45                   	inc    ebp
     49b:	4f                   	dec    edi
     49c:	46                   	inc    esi
     49d:	5f                   	pop    edi
     49e:	57                   	push   edi
     49f:	49                   	dec    ecx
     4a0:	4e                   	dec    esi
     4a1:	54                   	push   esp
     4a2:	5f                   	pop    edi
     4a3:	54                   	push   esp
     4a4:	5f                   	pop    edi
     4a5:	5f                   	pop    edi
     4a6:	20 34 00             	and    BYTE PTR [eax+eax*1],dh
     4a9:	5f                   	pop    edi
     4aa:	5f                   	pop    edi
     4ab:	46                   	inc    esi
     4ac:	4c                   	dec    esp
     4ad:	54                   	push   esp
     4ae:	31 32                	xor    DWORD PTR [edx],esi
     4b0:	38 5f 4e             	cmp    BYTE PTR [edi+0x4e],bl
     4b3:	4f                   	dec    edi
     4b4:	52                   	push   edx
     4b5:	4d                   	dec    ebp
     4b6:	5f                   	pop    edi
     4b7:	4d                   	dec    ebp
     4b8:	41                   	inc    ecx
     4b9:	58                   	pop    eax
     4ba:	5f                   	pop    edi
     4bb:	5f                   	pop    edi
     4bc:	20 31                	and    BYTE PTR [ecx],dh
     4be:	2e 31 38             	xor    DWORD PTR cs:[eax],edi
     4c1:	39 37                	cmp    DWORD PTR [edi],esi
     4c3:	33 31                	xor    esi,DWORD PTR [ecx]
     4c5:	34 39                	xor    al,0x39
     4c7:	35 33 35 37 32       	xor    eax,0x32373533
     4cc:	33 31                	xor    esi,DWORD PTR [ecx]
     4ce:	37                   	aaa
     4cf:	36 35 30 38 35 37    	ss xor eax,0x37353830
     4d5:	35 39 33 32 36       	xor    eax,0x36323339
     4da:	36 32 38             	xor    bh,BYTE PTR ss:[eax]
     4dd:	30 30                	xor    BYTE PTR [eax],dh
     4df:	37                   	aaa
     4e0:	30 32                	xor    BYTE PTR [edx],dh
     4e2:	65 2b 34 39          	sub    esi,DWORD PTR gs:[ecx+edi*1]
     4e6:	33 32                	xor    esi,DWORD PTR [edx]
     4e8:	46                   	inc    esi
     4e9:	31 32                	xor    DWORD PTR [edx],esi
     4eb:	38 00                	cmp    BYTE PTR [eax],al
     4ed:	49                   	dec    ecx
     4ee:	4e                   	dec    esi
     4ef:	54                   	push   esp
     4f0:	5f                   	pop    edi
     4f1:	46                   	inc    esi
     4f2:	41                   	inc    ecx
     4f3:	53                   	push   ebx
     4f4:	54                   	push   esp
     4f5:	31 36                	xor    DWORD PTR [esi],esi
     4f7:	5f                   	pop    edi
     4f8:	4d                   	dec    ebp
     4f9:	41                   	inc    ecx
     4fa:	58                   	pop    eax
     4fb:	20 5f 5f             	and    BYTE PTR [edi+0x5f],bl
     4fe:	49                   	dec    ecx
     4ff:	4e                   	dec    esi
     500:	54                   	push   esp
     501:	5f                   	pop    edi
     502:	46                   	inc    esi
     503:	41                   	inc    ecx
     504:	53                   	push   ebx
     505:	54                   	push   esp
     506:	31 36                	xor    DWORD PTR [esi],esi
     508:	5f                   	pop    edi
     509:	4d                   	dec    ebp
     50a:	41                   	inc    ecx
     50b:	58                   	pop    eax
     50c:	5f                   	pop    edi
     50d:	5f                   	pop    edi
     50e:	00 5f 5f             	add    BYTE PTR [edi+0x5f],bl
     511:	47                   	inc    edi
     512:	4e                   	dec    esi
     513:	55                   	push   ebp
     514:	43                   	inc    ebx
     515:	5f                   	pop    edi
     516:	4d                   	dec    ebp
     517:	49                   	dec    ecx
     518:	4e                   	dec    esi
     519:	4f                   	dec    edi
     51a:	52                   	push   edx
     51b:	5f                   	pop    edi
     51c:	5f                   	pop    edi
     51d:	20 32                	and    BYTE PTR [edx],dh
     51f:	00 5f 5f             	add    BYTE PTR [edi+0x5f],bl
     522:	46                   	inc    esi
     523:	4c                   	dec    esp
     524:	54                   	push   esp
     525:	33 32                	xor    esi,DWORD PTR [edx]
     527:	5f                   	pop    edi
     528:	4e                   	dec    esi
     529:	4f                   	dec    edi
     52a:	52                   	push   edx
     52b:	4d                   	dec    ebp
     52c:	5f                   	pop    edi
     52d:	4d                   	dec    ebp
     52e:	41                   	inc    ecx
     52f:	58                   	pop    eax
     530:	5f                   	pop    edi
     531:	5f                   	pop    edi
     532:	20 33                	and    BYTE PTR [ebx],dh
     534:	2e 34 30             	cs xor al,0x30
     537:	32 38                	xor    bh,BYTE PTR [eax]
     539:	32 33                	xor    dh,BYTE PTR [ebx]
     53b:	34 36                	xor    al,0x36
     53d:	36 33 38             	xor    edi,DWORD PTR ss:[eax]
     540:	35 32 38 38 35       	xor    eax,0x35383832
     545:	39 38                	cmp    DWORD PTR [eax],edi
     547:	31 31                	xor    DWORD PTR [ecx],esi
     549:	37                   	aaa
     54a:	30 34 31             	xor    BYTE PTR [ecx+esi*1],dh
     54d:	38 33                	cmp    BYTE PTR [ebx],dh
     54f:	34 38                	xor    al,0x38
     551:	34 35                	xor    al,0x35
     553:	31 36                	xor    DWORD PTR [esi],esi
     555:	39 32                	cmp    DWORD PTR [edx],esi
     557:	35 65 2b 33 38       	xor    eax,0x38332b65
     55c:	46                   	inc    esi
     55d:	33 32                	xor    esi,DWORD PTR [edx]
     55f:	00 55 49             	add    BYTE PTR [ebp+0x49],dl
     562:	4e                   	dec    esi
     563:	54                   	push   esp
     564:	31 36                	xor    DWORD PTR [esi],esi
     566:	5f                   	pop    edi
     567:	4d                   	dec    ebp
     568:	41                   	inc    ecx
     569:	58                   	pop    eax
     56a:	00 5f 5f             	add    BYTE PTR [edi+0x5f],bl
     56d:	47                   	inc    edi
     56e:	43                   	inc    ebx
     56f:	43                   	inc    ebx
     570:	5f                   	pop    edi
     571:	48                   	dec    eax
     572:	41                   	inc    ecx
     573:	56                   	push   esi
     574:	45                   	inc    ebp
     575:	5f                   	pop    edi
     576:	44                   	inc    esp
     577:	57                   	push   edi
     578:	41                   	inc    ecx
     579:	52                   	push   edx
     57a:	46                   	inc    esi
     57b:	32 5f 43             	xor    bl,BYTE PTR [edi+0x43]
     57e:	46                   	inc    esi
     57f:	49                   	dec    ecx
     580:	5f                   	pop    edi
     581:	41                   	inc    ecx
     582:	53                   	push   ebx
     583:	4d                   	dec    ebp
     584:	20 31                	and    BYTE PTR [ecx],dh
     586:	00 55 49             	add    BYTE PTR [ebp+0x49],dl
     589:	4e                   	dec    esi
     58a:	54                   	push   esp
     58b:	36 34 5f             	ss xor al,0x5f
     58e:	57                   	push   edi
     58f:	49                   	dec    ecx
     590:	44                   	inc    esp
     591:	54                   	push   esp
     592:	48                   	dec    eax
     593:	00 55 49             	add    BYTE PTR [ebp+0x49],dl
     596:	4e                   	dec    esi
     597:	54                   	push   esp
     598:	4d                   	dec    ebp
     599:	41                   	inc    ecx
     59a:	58                   	pop    eax
     59b:	5f                   	pop    edi
     59c:	4d                   	dec    ebp
     59d:	41                   	inc    ecx
     59e:	58                   	pop    eax
     59f:	20 5f 5f             	and    BYTE PTR [edi+0x5f],bl
     5a2:	55                   	push   ebp
     5a3:	49                   	dec    ecx
     5a4:	4e                   	dec    esi
     5a5:	54                   	push   esp
     5a6:	4d                   	dec    ebp
     5a7:	41                   	inc    ecx
     5a8:	58                   	pop    eax
     5a9:	5f                   	pop    edi
     5aa:	4d                   	dec    ebp
     5ab:	41                   	inc    ecx
     5ac:	58                   	pop    eax
     5ad:	5f                   	pop    edi
     5ae:	5f                   	pop    edi
     5af:	00 5f 5f             	add    BYTE PTR [edi+0x5f],bl
     5b2:	46                   	inc    esi
     5b3:	4c                   	dec    esp
     5b4:	54                   	push   esp
     5b5:	36 34 5f             	ss xor al,0x5f
     5b8:	4d                   	dec    ebp
     5b9:	49                   	dec    ecx
     5ba:	4e                   	dec    esi
     5bb:	5f                   	pop    edi
     5bc:	5f                   	pop    edi
     5bd:	20 32                	and    BYTE PTR [edx],dh
     5bf:	2e 32 32             	xor    dh,BYTE PTR cs:[edx]
     5c2:	35 30 37 33 38       	xor    eax,0x38333730
     5c7:	35 38 35 30 37       	xor    eax,0x37303538
     5cc:	32 30                	xor    dh,BYTE PTR [eax]
     5ce:	31 33                	xor    DWORD PTR [ebx],esi
     5d0:	38 33                	cmp    BYTE PTR [ebx],dh
     5d2:	30 39                	xor    BYTE PTR [ecx],bh
     5d4:	30 32                	xor    BYTE PTR [edx],dh
     5d6:	33 32                	xor    esi,DWORD PTR [edx]
     5d8:	37                   	aaa
     5d9:	31 37                	xor    DWORD PTR [edi],esi
     5db:	33 33                	xor    esi,DWORD PTR [ebx]
     5dd:	32 34 30             	xor    dh,BYTE PTR [eax+esi*1]
     5e0:	34 30                	xor    al,0x30
     5e2:	36 65 2d 33 30 38 46 	ss gs sub eax,0x46383033
     5e9:	36 34 00             	ss xor al,0x0
     5ec:	5f                   	pop    edi
     5ed:	5f                   	pop    edi
     5ee:	4c                   	dec    esp
     5ef:	4f                   	dec    edi
     5f0:	4e                   	dec    esi
     5f1:	47                   	inc    edi
     5f2:	5f                   	pop    edi
     5f3:	4c                   	dec    esp
     5f4:	4f                   	dec    edi
     5f5:	4e                   	dec    esi
     5f6:	47                   	inc    edi
     5f7:	5f                   	pop    edi
     5f8:	57                   	push   edi
     5f9:	49                   	dec    ecx
     5fa:	44                   	inc    esp
     5fb:	54                   	push   esp
     5fc:	48                   	dec    eax
     5fd:	5f                   	pop    edi
     5fe:	5f                   	pop    edi
     5ff:	20 36                	and    BYTE PTR [esi],dh
     601:	34 00                	xor    al,0x0
     603:	5f                   	pop    edi
     604:	5f                   	pop    edi
     605:	47                   	inc    edi
     606:	43                   	inc    ebx
     607:	43                   	inc    ebx
     608:	5f                   	pop    edi
     609:	48                   	dec    eax
     60a:	41                   	inc    ecx
     60b:	56                   	push   esi
     60c:	45                   	inc    ebp
     60d:	5f                   	pop    edi
     60e:	53                   	push   ebx
     60f:	59                   	pop    ecx
     610:	4e                   	dec    esi
     611:	43                   	inc    ebx
     612:	5f                   	pop    edi
     613:	43                   	inc    ebx
     614:	4f                   	dec    edi
     615:	4d                   	dec    ebp
     616:	50                   	push   eax
     617:	41                   	inc    ecx
     618:	52                   	push   edx
     619:	45                   	inc    ebp
     61a:	5f                   	pop    edi
     61b:	41                   	inc    ecx
     61c:	4e                   	dec    esi
     61d:	44                   	inc    esp
     61e:	5f                   	pop    edi
     61f:	53                   	push   ebx
     620:	57                   	push   edi
     621:	41                   	inc    ecx
     622:	50                   	push   eax
     623:	5f                   	pop    edi
     624:	38 20                	cmp    BYTE PTR [eax],ah
     626:	31 00                	xor    DWORD PTR [eax],eax
     628:	5f                   	pop    edi
     629:	5f                   	pop    edi
     62a:	53                   	push   ebx
     62b:	49                   	dec    ecx
     62c:	5a                   	pop    edx
     62d:	45                   	inc    ebp
     62e:	4f                   	dec    edi
     62f:	46                   	inc    esi
     630:	5f                   	pop    edi
     631:	53                   	push   ebx
     632:	49                   	dec    ecx
     633:	5a                   	pop    edx
     634:	45                   	inc    ebp
     635:	5f                   	pop    edi
     636:	54                   	push   esp
     637:	5f                   	pop    edi
     638:	5f                   	pop    edi
     639:	20 34 00             	and    BYTE PTR [eax+eax*1],dh
     63c:	5f                   	pop    edi
     63d:	5f                   	pop    edi
     63e:	43                   	inc    ebx
     63f:	48                   	dec    eax
     640:	41                   	inc    ecx
     641:	52                   	push   edx
     642:	31 36                	xor    DWORD PTR [esi],esi
     644:	5f                   	pop    edi
     645:	54                   	push   esp
     646:	59                   	pop    ecx
     647:	50                   	push   eax
     648:	45                   	inc    ebp
     649:	5f                   	pop    edi
     64a:	5f                   	pop    edi
     64b:	20 73 68             	and    BYTE PTR [ebx+0x68],dh
     64e:	6f                   	outs   dx,DWORD PTR ds:[esi]
     64f:	72 74                	jb     6c5 <code-0x7970>
     651:	20 75 6e             	and    BYTE PTR [ebp+0x6e],dh
     654:	73 69                	jae    6bf <code-0x7976>
     656:	67 6e                	outs   dx,BYTE PTR ds:[si]
     658:	65 64 20 69 6e       	gs and BYTE PTR fs:[ecx+0x6e],ch
     65d:	74 00                	je     65f <code-0x79d6>
     65f:	55                   	push   ebp
     660:	49                   	dec    ecx
     661:	4e                   	dec    esi
     662:	54                   	push   esp
     663:	5f                   	pop    edi
     664:	4c                   	dec    esp
     665:	45                   	inc    ebp
     666:	41                   	inc    ecx
     667:	53                   	push   ebx
     668:	54                   	push   esp
     669:	33 32                	xor    esi,DWORD PTR [edx]
     66b:	5f                   	pop    edi
     66c:	4d                   	dec    ebp
     66d:	41                   	inc    ecx
     66e:	58                   	pop    eax
     66f:	20 5f 5f             	and    BYTE PTR [edi+0x5f],bl
     672:	55                   	push   ebp
     673:	49                   	dec    ecx
     674:	4e                   	dec    esi
     675:	54                   	push   esp
     676:	5f                   	pop    edi
     677:	4c                   	dec    esp
     678:	45                   	inc    ebp
     679:	41                   	inc    ecx
     67a:	53                   	push   ebx
     67b:	54                   	push   esp
     67c:	33 32                	xor    esi,DWORD PTR [edx]
     67e:	5f                   	pop    edi
     67f:	4d                   	dec    ebp
     680:	41                   	inc    ecx
     681:	58                   	pop    eax
     682:	5f                   	pop    edi
     683:	5f                   	pop    edi
     684:	00 57 43             	add    BYTE PTR [edi+0x43],dl
     687:	48                   	dec    eax
     688:	41                   	inc    ecx
     689:	52                   	push   edx
     68a:	5f                   	pop    edi
     68b:	57                   	push   edi
     68c:	49                   	dec    ecx
     68d:	44                   	inc    esp
     68e:	54                   	push   esp
     68f:	48                   	dec    eax
     690:	20 5f 5f             	and    BYTE PTR [edi+0x5f],bl
     693:	57                   	push   edi
     694:	43                   	inc    ebx
     695:	48                   	dec    eax
     696:	41                   	inc    ecx
     697:	52                   	push   edx
     698:	5f                   	pop    edi
     699:	57                   	push   edi
     69a:	49                   	dec    ecx
     69b:	44                   	inc    esp
     69c:	54                   	push   esp
     69d:	48                   	dec    eax
     69e:	5f                   	pop    edi
     69f:	5f                   	pop    edi
     6a0:	00 5f 5f             	add    BYTE PTR [edi+0x5f],bl
     6a3:	4c                   	dec    esp
     6a4:	44                   	inc    esp
     6a5:	42                   	inc    edx
     6a6:	4c                   	dec    esp
     6a7:	5f                   	pop    edi
     6a8:	49                   	dec    ecx
     6a9:	53                   	push   ebx
     6aa:	5f                   	pop    edi
     6ab:	49                   	dec    ecx
     6ac:	45                   	inc    ebp
     6ad:	43                   	inc    ebx
     6ae:	5f                   	pop    edi
     6af:	36 30 35 35 39 5f 5f 	xor    BYTE PTR ss:0x5f5f3935,dh
     6b6:	20 31                	and    BYTE PTR [ecx],dh
     6b8:	00 5f 5f             	add    BYTE PTR [edi+0x5f],bl
     6bb:	4f                   	dec    edi
     6bc:	52                   	push   edx
     6bd:	44                   	inc    esp
     6be:	45                   	inc    ebp
     6bf:	52                   	push   edx
     6c0:	5f                   	pop    edi
     6c1:	42                   	inc    edx
     6c2:	49                   	dec    ecx
     6c3:	47                   	inc    edi
     6c4:	5f                   	pop    edi
     6c5:	45                   	inc    ebp
     6c6:	4e                   	dec    esi
     6c7:	44                   	inc    esp
     6c8:	49                   	dec    ecx
     6c9:	41                   	inc    ecx
     6ca:	4e                   	dec    esi
     6cb:	5f                   	pop    edi
     6cc:	5f                   	pop    edi
     6cd:	20 34 33             	and    BYTE PTR [ebx+esi*1],dh
     6d0:	32 31                	xor    dh,BYTE PTR [ecx]
     6d2:	00 5f 5f             	add    BYTE PTR [edi+0x5f],bl
     6d5:	47                   	inc    edi
     6d6:	43                   	inc    ebx
     6d7:	43                   	inc    ebx
     6d8:	5f                   	pop    edi
     6d9:	43                   	inc    ebx
     6da:	4f                   	dec    edi
     6db:	4e                   	dec    esi
     6dc:	53                   	push   ebx
     6dd:	54                   	push   esp
     6de:	52                   	push   edx
     6df:	55                   	push   ebp
     6e0:	43                   	inc    ebx
     6e1:	54                   	push   esp
     6e2:	49                   	dec    ecx
     6e3:	56                   	push   esi
     6e4:	45                   	inc    ebp
     6e5:	5f                   	pop    edi
     6e6:	53                   	push   ebx
     6e7:	49                   	dec    ecx
     6e8:	5a                   	pop    edx
     6e9:	45                   	inc    ebp
     6ea:	20 36                	and    BYTE PTR [esi],dh
     6ec:	34 00                	xor    al,0x0
     6ee:	70 72                	jo     762 <code-0x78d3>
     6f0:	69 76 69 6c 65 67 65 	imul   esi,DWORD PTR [esi+0x69],0x6567656c
     6f7:	00 5f 5f             	add    BYTE PTR [edi+0x5f],bl
     6fa:	55                   	push   ebp
     6fb:	49                   	dec    ecx
     6fc:	4e                   	dec    esi
     6fd:	54                   	push   esp
     6fe:	38 5f 43             	cmp    BYTE PTR [edi+0x43],bl
     701:	28 63 29             	sub    BYTE PTR [ebx+0x29],ah
     704:	20 63 00             	and    BYTE PTR [ebx+0x0],ah
     707:	5f                   	pop    edi
     708:	5f                   	pop    edi
     709:	44                   	inc    esp
     70a:	42                   	inc    edx
     70b:	4c                   	dec    esp
     70c:	5f                   	pop    edi
     70d:	4d                   	dec    ebp
     70e:	41                   	inc    ecx
     70f:	4e                   	dec    esi
     710:	54                   	push   esp
     711:	5f                   	pop    edi
     712:	44                   	inc    esp
     713:	49                   	dec    ecx
     714:	47                   	inc    edi
     715:	5f                   	pop    edi
     716:	5f                   	pop    edi
     717:	20 35 33 00 5f 5f    	and    BYTE PTR ds:0x5f5f0033,dh
     71d:	55                   	push   ebp
     71e:	49                   	dec    ecx
     71f:	4e                   	dec    esi
     720:	54                   	push   esp
     721:	5f                   	pop    edi
     722:	4c                   	dec    esp
     723:	45                   	inc    ebp
     724:	41                   	inc    ecx
     725:	53                   	push   ebx
     726:	54                   	push   esp
     727:	36 34 5f             	ss xor al,0x5f
     72a:	54                   	push   esp
     72b:	59                   	pop    ecx
     72c:	50                   	push   eax
     72d:	45                   	inc    ebp
     72e:	5f                   	pop    edi
     72f:	5f                   	pop    edi
     730:	20 6c 6f 6e          	and    BYTE PTR [edi+ebp*2+0x6e],ch
     734:	67 20 6c 6f          	and    BYTE PTR [si+0x6f],ch
     738:	6e                   	outs   dx,BYTE PTR ds:[esi]
     739:	67 20 75 6e          	and    BYTE PTR [di+0x6e],dh
     73d:	73 69                	jae    7a8 <code-0x788d>
     73f:	67 6e                	outs   dx,BYTE PTR ds:[si]
     741:	65 64 20 69 6e       	gs and BYTE PTR fs:[ecx+0x6e],ch
     746:	74 00                	je     748 <code-0x78ed>
     748:	5f                   	pop    edi
     749:	5f                   	pop    edi
     74a:	46                   	inc    esi
     74b:	4c                   	dec    esp
     74c:	54                   	push   esp
     74d:	33 32                	xor    esi,DWORD PTR [edx]
     74f:	5f                   	pop    edi
     750:	4d                   	dec    ebp
     751:	41                   	inc    ecx
     752:	58                   	pop    eax
     753:	5f                   	pop    edi
     754:	5f                   	pop    edi
     755:	20 33                	and    BYTE PTR [ebx],dh
     757:	2e 34 30             	cs xor al,0x30
     75a:	32 38                	xor    bh,BYTE PTR [eax]
     75c:	32 33                	xor    dh,BYTE PTR [ebx]
     75e:	34 36                	xor    al,0x36
     760:	36 33 38             	xor    edi,DWORD PTR ss:[eax]
     763:	35 32 38 38 35       	xor    eax,0x35383832
     768:	39 38                	cmp    DWORD PTR [eax],edi
     76a:	31 31                	xor    DWORD PTR [ecx],esi
     76c:	37                   	aaa
     76d:	30 34 31             	xor    BYTE PTR [ecx+esi*1],dh
     770:	38 33                	cmp    BYTE PTR [ebx],dh
     772:	34 38                	xor    al,0x38
     774:	34 35                	xor    al,0x35
     776:	31 36                	xor    DWORD PTR [esi],esi
     778:	39 32                	cmp    DWORD PTR [edx],esi
     77a:	35 65 2b 33 38       	xor    eax,0x38332b65
     77f:	46                   	inc    esi
     780:	33 32                	xor    esi,DWORD PTR [edx]
     782:	00 5f 5f             	add    BYTE PTR [edi+0x5f],bl
     785:	49                   	dec    ecx
     786:	4e                   	dec    esi
     787:	54                   	push   esp
     788:	5f                   	pop    edi
     789:	4d                   	dec    ebp
     78a:	41                   	inc    ecx
     78b:	58                   	pop    eax
     78c:	5f                   	pop    edi
     78d:	5f                   	pop    edi
     78e:	20 30                	and    BYTE PTR [eax],dh
     790:	78 37                	js     7c9 <code-0x786c>
     792:	66 66 66 66 66 66 66 	data16 data16 data16 data16 data16 data16 data16 add BYTE PTR [edi+0x5f],bl
     799:	00 5f 5f 
     79c:	41                   	inc    ecx
     79d:	54                   	push   esp
     79e:	4f                   	dec    edi
     79f:	4d                   	dec    ebp
     7a0:	49                   	dec    ecx
     7a1:	43                   	inc    ebx
     7a2:	5f                   	pop    edi
     7a3:	52                   	push   edx
     7a4:	45                   	inc    ebp
     7a5:	4c                   	dec    esp
     7a6:	45                   	inc    ebp
     7a7:	41                   	inc    ecx
     7a8:	53                   	push   ebx
     7a9:	45                   	inc    ebp
     7aa:	20 33                	and    BYTE PTR [ebx],dh
     7ac:	00 49 4e             	add    BYTE PTR [ecx+0x4e],cl
     7af:	54                   	push   esp
     7b0:	38 5f 4d             	cmp    BYTE PTR [edi+0x4d],bl
     7b3:	49                   	dec    ecx
     7b4:	4e                   	dec    esi
     7b5:	00 5f 5f             	add    BYTE PTR [edi+0x5f],bl
     7b8:	46                   	inc    esi
     7b9:	4c                   	dec    esp
     7ba:	54                   	push   esp
     7bb:	31 36                	xor    DWORD PTR [esi],esi
     7bd:	5f                   	pop    edi
     7be:	44                   	inc    esp
     7bf:	49                   	dec    ecx
     7c0:	47                   	inc    edi
     7c1:	5f                   	pop    edi
     7c2:	5f                   	pop    edi
     7c3:	20 33                	and    BYTE PTR [ebx],dh
     7c5:	00 55 49             	add    BYTE PTR [ebp+0x49],dl
     7c8:	4e                   	dec    esi
     7c9:	54                   	push   esp
     7ca:	38 5f 57             	cmp    BYTE PTR [edi+0x57],bl
     7cd:	49                   	dec    ecx
     7ce:	44                   	inc    esp
     7cf:	54                   	push   esp
     7d0:	48                   	dec    eax
     7d1:	20 38                	and    BYTE PTR [eax],bh
     7d3:	00 55 49             	add    BYTE PTR [ebp+0x49],dl
     7d6:	4e                   	dec    esi
     7d7:	54                   	push   esp
     7d8:	31 36                	xor    DWORD PTR [esi],esi
     7da:	5f                   	pop    edi
     7db:	57                   	push   edi
     7dc:	49                   	dec    ecx
     7dd:	44                   	inc    esp
     7de:	54                   	push   esp
     7df:	48                   	dec    eax
     7e0:	20 31                	and    BYTE PTR [ecx],dh
     7e2:	36 00 5f 5f          	add    BYTE PTR ss:[edi+0x5f],bl
     7e6:	49                   	dec    ecx
     7e7:	4e                   	dec    esi
     7e8:	54                   	push   esp
     7e9:	31 36                	xor    DWORD PTR [esi],esi
     7eb:	5f                   	pop    edi
     7ec:	54                   	push   esp
     7ed:	59                   	pop    ecx
     7ee:	50                   	push   eax
     7ef:	45                   	inc    ebp
     7f0:	5f                   	pop    edi
     7f1:	5f                   	pop    edi
     7f2:	20 73 68             	and    BYTE PTR [ebx+0x68],dh
     7f5:	6f                   	outs   dx,DWORD PTR ds:[esi]
     7f6:	72 74                	jb     86c <code-0x77c9>
     7f8:	20 69 6e             	and    BYTE PTR [ecx+0x6e],ch
     7fb:	74 00                	je     7fd <code-0x7838>
     7fd:	5f                   	pop    edi
     7fe:	5f                   	pop    edi
     7ff:	46                   	inc    esi
     800:	4c                   	dec    esp
     801:	54                   	push   esp
     802:	31 36                	xor    DWORD PTR [esi],esi
     804:	5f                   	pop    edi
     805:	49                   	dec    ecx
     806:	53                   	push   ebx
     807:	5f                   	pop    edi
     808:	49                   	dec    ecx
     809:	45                   	inc    ebp
     80a:	43                   	inc    ebx
     80b:	5f                   	pop    edi
     80c:	36 30 35 35 39 5f 5f 	xor    BYTE PTR ss:0x5f5f3935,dh
     813:	20 31                	and    BYTE PTR [ecx],dh
     815:	00 5f 5f             	add    BYTE PTR [edi+0x5f],bl
     818:	44                   	inc    esp
     819:	45                   	inc    ebp
     81a:	43                   	inc    ebx
     81b:	33 32                	xor    esi,DWORD PTR [edx]
     81d:	5f                   	pop    edi
     81e:	45                   	inc    ebp
     81f:	50                   	push   eax
     820:	53                   	push   ebx
     821:	49                   	dec    ecx
     822:	4c                   	dec    esp
     823:	4f                   	dec    edi
     824:	4e                   	dec    esi
     825:	5f                   	pop    edi
     826:	5f                   	pop    edi
     827:	20 31                	and    BYTE PTR [ecx],dh
     829:	45                   	inc    ebp
     82a:	2d 36 44 46 00       	sub    eax,0x464436
     82f:	73 65                	jae    896 <code-0x779f>
     831:	67 6d                	ins    DWORD PTR es:[di],dx
     833:	65 6e                	outs   dx,BYTE PTR gs:[esi]
     835:	74 00                	je     837 <code-0x77fe>
     837:	5f                   	pop    edi
     838:	5f                   	pop    edi
     839:	4f                   	dec    edi
     83a:	50                   	push   eax
     83b:	54                   	push   esp
     83c:	49                   	dec    ecx
     83d:	4d                   	dec    ebp
     83e:	49                   	dec    ecx
     83f:	5a                   	pop    edx
     840:	45                   	inc    ebp
     841:	5f                   	pop    edi
     842:	5f                   	pop    edi
     843:	20 31                	and    BYTE PTR [ecx],dh
     845:	00 55 49             	add    BYTE PTR [ebp+0x49],dl
     848:	4e                   	dec    esi
     849:	54                   	push   esp
     84a:	5f                   	pop    edi
     84b:	4c                   	dec    esp
     84c:	45                   	inc    ebp
     84d:	41                   	inc    ecx
     84e:	53                   	push   ebx
     84f:	54                   	push   esp
     850:	36 34 5f             	ss xor al,0x5f
     853:	57                   	push   edi
     854:	49                   	dec    ecx
     855:	44                   	inc    esp
     856:	54                   	push   esp
     857:	48                   	dec    eax
     858:	00 5f 5f             	add    BYTE PTR [edi+0x5f],bl
     85b:	4c                   	dec    esp
     85c:	44                   	inc    esp
     85d:	42                   	inc    edx
     85e:	4c                   	dec    esp
     85f:	5f                   	pop    edi
     860:	44                   	inc    esp
     861:	49                   	dec    ecx
     862:	47                   	inc    edi
     863:	5f                   	pop    edi
     864:	5f                   	pop    edi
     865:	20 31                	and    BYTE PTR [ecx],dh
     867:	38 00                	cmp    BYTE PTR [eax],al
     869:	5f                   	pop    edi
     86a:	5f                   	pop    edi
     86b:	46                   	inc    esi
     86c:	4c                   	dec    esp
     86d:	54                   	push   esp
     86e:	36 34 58             	ss xor al,0x58
     871:	5f                   	pop    edi
     872:	4d                   	dec    ebp
     873:	41                   	inc    ecx
     874:	58                   	pop    eax
     875:	5f                   	pop    edi
     876:	45                   	inc    ebp
     877:	58                   	pop    eax
     878:	50                   	push   eax
     879:	5f                   	pop    edi
     87a:	5f                   	pop    edi
     87b:	20 31                	and    BYTE PTR [ecx],dh
     87d:	36 33 38             	xor    edi,DWORD PTR ss:[eax]
     880:	34 00                	xor    al,0x0
     882:	5f                   	pop    edi
     883:	5f                   	pop    edi
     884:	41                   	inc    ecx
     885:	54                   	push   esp
     886:	4f                   	dec    edi
     887:	4d                   	dec    ebp
     888:	49                   	dec    ecx
     889:	43                   	inc    ebx
     88a:	5f                   	pop    edi
     88b:	53                   	push   ebx
     88c:	45                   	inc    ebp
     88d:	51                   	push   ecx
     88e:	5f                   	pop    edi
     88f:	43                   	inc    ebx
     890:	53                   	push   ebx
     891:	54                   	push   esp
     892:	20 35 00 5f 5f 53    	and    BYTE PTR ds:0x535f5f00,dh
     898:	49                   	dec    ecx
     899:	5a                   	pop    edx
     89a:	45                   	inc    ebp
     89b:	4f                   	dec    edi
     89c:	46                   	inc    esi
     89d:	5f                   	pop    edi
     89e:	53                   	push   ebx
     89f:	48                   	dec    eax
     8a0:	4f                   	dec    edi
     8a1:	52                   	push   edx
     8a2:	54                   	push   esp
     8a3:	5f                   	pop    edi
     8a4:	5f                   	pop    edi
     8a5:	20 32                	and    BYTE PTR [edx],dh
     8a7:	00 5f 5f             	add    BYTE PTR [edi+0x5f],bl
     8aa:	49                   	dec    ecx
     8ab:	4e                   	dec    esi
     8ac:	54                   	push   esp
     8ad:	5f                   	pop    edi
     8ae:	4c                   	dec    esp
     8af:	45                   	inc    ebp
     8b0:	41                   	inc    ecx
     8b1:	53                   	push   ebx
     8b2:	54                   	push   esp
     8b3:	38 5f 4d             	cmp    BYTE PTR [edi+0x4d],bl
     8b6:	41                   	inc    ecx
     8b7:	58                   	pop    eax
     8b8:	5f                   	pop    edi
     8b9:	5f                   	pop    edi
     8ba:	20 30                	and    BYTE PTR [eax],dh
     8bc:	78 37                	js     8f5 <code-0x7740>
     8be:	66 00 5f 5f          	data16 add BYTE PTR [edi+0x5f],bl
     8c2:	49                   	dec    ecx
     8c3:	4e                   	dec    esi
     8c4:	54                   	push   esp
     8c5:	5f                   	pop    edi
     8c6:	4c                   	dec    esp
     8c7:	45                   	inc    ebp
     8c8:	41                   	inc    ecx
     8c9:	53                   	push   ebx
     8ca:	54                   	push   esp
     8cb:	38 5f 54             	cmp    BYTE PTR [edi+0x54],bl
     8ce:	59                   	pop    ecx
     8cf:	50                   	push   eax
     8d0:	45                   	inc    ebp
     8d1:	5f                   	pop    edi
     8d2:	5f                   	pop    edi
     8d3:	20 73 69             	and    BYTE PTR [ebx+0x69],dh
     8d6:	67 6e                	outs   dx,BYTE PTR ds:[si]
     8d8:	65 64 20 63 68       	gs and BYTE PTR fs:[ebx+0x68],ah
     8dd:	61                   	popa
     8de:	72 00                	jb     8e0 <code-0x7755>
     8e0:	5f                   	pop    edi
     8e1:	5f                   	pop    edi
     8e2:	46                   	inc    esi
     8e3:	4c                   	dec    esp
     8e4:	54                   	push   esp
     8e5:	36 34 5f             	ss xor al,0x5f
     8e8:	4d                   	dec    ebp
     8e9:	41                   	inc    ecx
     8ea:	4e                   	dec    esi
     8eb:	54                   	push   esp
     8ec:	5f                   	pop    edi
     8ed:	44                   	inc    esp
     8ee:	49                   	dec    ecx
     8ef:	47                   	inc    edi
     8f0:	5f                   	pop    edi
     8f1:	5f                   	pop    edi
     8f2:	20 35 33 00 5f 5f    	and    BYTE PTR ds:0x5f5f0033,dh
     8f8:	55                   	push   ebp
     8f9:	49                   	dec    ecx
     8fa:	4e                   	dec    esi
     8fb:	54                   	push   esp
     8fc:	4d                   	dec    ebp
     8fd:	41                   	inc    ecx
     8fe:	58                   	pop    eax
     8ff:	5f                   	pop    edi
     900:	43                   	inc    ebx
     901:	28 63 29             	sub    BYTE PTR [ebx+0x29],ah
     904:	20 63 20             	and    BYTE PTR [ebx+0x20],ah
     907:	23 23                	and    esp,DWORD PTR [ebx]
     909:	20 55 4c             	and    BYTE PTR [ebp+0x4c],dl
     90c:	4c                   	dec    esp
     90d:	00 53 49             	add    BYTE PTR [ebx+0x49],dl
     910:	5a                   	pop    edx
     911:	45                   	inc    ebp
     912:	5f                   	pop    edi
     913:	4d                   	dec    ebp
     914:	41                   	inc    ecx
     915:	58                   	pop    eax
     916:	20 5f 5f             	and    BYTE PTR [edi+0x5f],bl
     919:	53                   	push   ebx
     91a:	49                   	dec    ecx
     91b:	5a                   	pop    edx
     91c:	45                   	inc    ebp
     91d:	5f                   	pop    edi
     91e:	4d                   	dec    ebp
     91f:	41                   	inc    ecx
     920:	58                   	pop    eax
     921:	5f                   	pop    edi
     922:	5f                   	pop    edi
     923:	00 5f 5f             	add    BYTE PTR [edi+0x5f],bl
     926:	57                   	push   edi
     927:	43                   	inc    ebx
     928:	48                   	dec    eax
     929:	41                   	inc    ecx
     92a:	52                   	push   edx
     92b:	5f                   	pop    edi
     92c:	4d                   	dec    ebp
     92d:	41                   	inc    ecx
     92e:	58                   	pop    eax
     92f:	5f                   	pop    edi
     930:	5f                   	pop    edi
     931:	20 30                	and    BYTE PTR [eax],dh
     933:	78 37                	js     96c <code-0x76c9>
     935:	66 66 66 66 66 66 66 	data16 data16 data16 data16 data16 data16 dec sp
     93c:	4c 
     93d:	00 5f 5f             	add    BYTE PTR [edi+0x5f],bl
     940:	42                   	inc    edx
     941:	59                   	pop    ecx
     942:	54                   	push   esp
     943:	45                   	inc    ebp
     944:	5f                   	pop    edi
     945:	4f                   	dec    edi
     946:	52                   	push   edx
     947:	44                   	inc    esp
     948:	45                   	inc    ebp
     949:	52                   	push   edx
     94a:	5f                   	pop    edi
     94b:	5f                   	pop    edi
     94c:	20 5f 5f             	and    BYTE PTR [edi+0x5f],bl
     94f:	4f                   	dec    edi
     950:	52                   	push   edx
     951:	44                   	inc    esp
     952:	45                   	inc    ebp
     953:	52                   	push   edx
     954:	5f                   	pop    edi
     955:	4c                   	dec    esp
     956:	49                   	dec    ecx
     957:	54                   	push   esp
     958:	54                   	push   esp
     959:	4c                   	dec    esp
     95a:	45                   	inc    ebp
     95b:	5f                   	pop    edi
     95c:	45                   	inc    ebp
     95d:	4e                   	dec    esi
     95e:	44                   	inc    esp
     95f:	49                   	dec    ecx
     960:	41                   	inc    ecx
     961:	4e                   	dec    esi
     962:	5f                   	pop    edi
     963:	5f                   	pop    edi
     964:	00 5f 5f             	add    BYTE PTR [edi+0x5f],bl
     967:	44                   	inc    esp
     968:	45                   	inc    ebp
     969:	43                   	inc    ebx
     96a:	33 32                	xor    esi,DWORD PTR [edx]
     96c:	5f                   	pop    edi
     96d:	53                   	push   ebx
     96e:	55                   	push   ebp
     96f:	42                   	inc    edx
     970:	4e                   	dec    esi
     971:	4f                   	dec    edi
     972:	52                   	push   edx
     973:	4d                   	dec    ebp
     974:	41                   	inc    ecx
     975:	4c                   	dec    esp
     976:	5f                   	pop    edi
     977:	4d                   	dec    ebp
     978:	49                   	dec    ecx
     979:	4e                   	dec    esi
     97a:	5f                   	pop    edi
     97b:	5f                   	pop    edi
     97c:	20 30                	and    BYTE PTR [eax],dh
     97e:	2e 30 30             	xor    BYTE PTR cs:[eax],dh
     981:	30 30                	xor    BYTE PTR [eax],dh
     983:	30 31                	xor    BYTE PTR [ecx],dh
     985:	45                   	inc    ebp
     986:	2d 39 35 44 46       	sub    eax,0x46443539
     98b:	00 5f 5f             	add    BYTE PTR [edi+0x5f],bl
     98e:	46                   	inc    esi
     98f:	4c                   	dec    esp
     990:	54                   	push   esp
     991:	33 32                	xor    esi,DWORD PTR [edx]
     993:	5f                   	pop    edi
     994:	4d                   	dec    ebp
     995:	49                   	dec    ecx
     996:	4e                   	dec    esi
     997:	5f                   	pop    edi
     998:	31 30                	xor    DWORD PTR [eax],esi
     99a:	5f                   	pop    edi
     99b:	45                   	inc    ebp
     99c:	58                   	pop    eax
     99d:	50                   	push   eax
     99e:	5f                   	pop    edi
     99f:	5f                   	pop    edi
     9a0:	20 28                	and    BYTE PTR [eax],ch
     9a2:	2d 33 37 29 00       	sub    eax,0x293733
     9a7:	53                   	push   ebx
     9a8:	49                   	dec    ecx
     9a9:	47                   	inc    edi
     9aa:	5f                   	pop    edi
     9ab:	41                   	inc    ecx
     9ac:	54                   	push   esp
     9ad:	4f                   	dec    edi
     9ae:	4d                   	dec    ebp
     9af:	49                   	dec    ecx
     9b0:	43                   	inc    ebx
     9b1:	5f                   	pop    edi
     9b2:	4d                   	dec    ebp
     9b3:	49                   	dec    ecx
     9b4:	4e                   	dec    esi
     9b5:	20 5f 5f             	and    BYTE PTR [edi+0x5f],bl
     9b8:	53                   	push   ebx
     9b9:	49                   	dec    ecx
     9ba:	47                   	inc    edi
     9bb:	5f                   	pop    edi
     9bc:	41                   	inc    ecx
     9bd:	54                   	push   esp
     9be:	4f                   	dec    edi
     9bf:	4d                   	dec    ebp
     9c0:	49                   	dec    ecx
     9c1:	43                   	inc    ebx
     9c2:	5f                   	pop    edi
     9c3:	4d                   	dec    ebp
     9c4:	49                   	dec    ecx
     9c5:	4e                   	dec    esi
     9c6:	5f                   	pop    edi
     9c7:	5f                   	pop    edi
     9c8:	00 5f 5f             	add    BYTE PTR [edi+0x5f],bl
     9cb:	47                   	inc    edi
     9cc:	43                   	inc    ebx
     9cd:	43                   	inc    ebx
     9ce:	5f                   	pop    edi
     9cf:	41                   	inc    ecx
     9d0:	54                   	push   esp
     9d1:	4f                   	dec    edi
     9d2:	4d                   	dec    ebp
     9d3:	49                   	dec    ecx
     9d4:	43                   	inc    ebx
     9d5:	5f                   	pop    edi
     9d6:	43                   	inc    ebx
     9d7:	48                   	dec    eax
     9d8:	41                   	inc    ecx
     9d9:	52                   	push   edx
     9da:	38 5f 54             	cmp    BYTE PTR [edi+0x54],bl
     9dd:	5f                   	pop    edi
     9de:	4c                   	dec    esp
     9df:	4f                   	dec    edi
     9e0:	43                   	inc    ebx
     9e1:	4b                   	dec    ebx
     9e2:	5f                   	pop    edi
     9e3:	46                   	inc    esi
     9e4:	52                   	push   edx
     9e5:	45                   	inc    ebp
     9e6:	45                   	inc    ebp
     9e7:	20 32                	and    BYTE PTR [edx],dh
     9e9:	00 5f 5f             	add    BYTE PTR [edi+0x5f],bl
     9ec:	57                   	push   edi
     9ed:	43                   	inc    ebx
     9ee:	48                   	dec    eax
     9ef:	41                   	inc    ecx
     9f0:	52                   	push   edx
     9f1:	5f                   	pop    edi
     9f2:	4d                   	dec    ebp
     9f3:	49                   	dec    ecx
     9f4:	4e                   	dec    esi
     9f5:	5f                   	pop    edi
     9f6:	5f                   	pop    edi
     9f7:	20 28                	and    BYTE PTR [eax],ch
     9f9:	2d 5f 5f 57 43       	sub    eax,0x43575f5f
     9fe:	48                   	dec    eax
     9ff:	41                   	inc    ecx
     a00:	52                   	push   edx
     a01:	5f                   	pop    edi
     a02:	4d                   	dec    ebp
     a03:	41                   	inc    ecx
     a04:	58                   	pop    eax
     a05:	5f                   	pop    edi
     a06:	5f                   	pop    edi
     a07:	20 2d 20 31 29 00    	and    BYTE PTR ds:0x293120,ch
     a0d:	49                   	dec    ecx
     a0e:	4e                   	dec    esi
     a0f:	54                   	push   esp
     a10:	4d                   	dec    ebp
     a11:	41                   	inc    ecx
     a12:	58                   	pop    eax
     a13:	5f                   	pop    edi
     a14:	4d                   	dec    ebp
     a15:	49                   	dec    ecx
     a16:	4e                   	dec    esi
     a17:	20 28                	and    BYTE PTR [eax],ch
     a19:	2d 49 4e 54 4d       	sub    eax,0x4d544e49
     a1e:	41                   	inc    ecx
     a1f:	58                   	pop    eax
     a20:	5f                   	pop    edi
     a21:	4d                   	dec    ebp
     a22:	41                   	inc    ecx
     a23:	58                   	pop    eax
     a24:	20 2d 20 31 29 00    	and    BYTE PTR ds:0x293120,ch
     a2a:	55                   	push   ebp
     a2b:	49                   	dec    ecx
     a2c:	4e                   	dec    esi
     a2d:	54                   	push   esp
     a2e:	4d                   	dec    ebp
     a2f:	41                   	inc    ecx
     a30:	58                   	pop    eax
     a31:	5f                   	pop    edi
     a32:	57                   	push   edi
     a33:	49                   	dec    ecx
     a34:	44                   	inc    esp
     a35:	54                   	push   esp
     a36:	48                   	dec    eax
     a37:	00 5f 5f             	add    BYTE PTR [edi+0x5f],bl
     a3a:	53                   	push   ebx
     a3b:	54                   	push   esp
     a3c:	44                   	inc    esp
     a3d:	43                   	inc    ebx
     a3e:	5f                   	pop    edi
     a3f:	55                   	push   ebp
     a40:	54                   	push   esp
     a41:	46                   	inc    esi
     a42:	5f                   	pop    edi
     a43:	33 32                	xor    esi,DWORD PTR [edx]
     a45:	5f                   	pop    edi
     a46:	5f                   	pop    edi
     a47:	20 31                	and    BYTE PTR [ecx],dh
     a49:	00 5f 5f             	add    BYTE PTR [edi+0x5f],bl
     a4c:	49                   	dec    ecx
     a4d:	4e                   	dec    esi
     a4e:	54                   	push   esp
     a4f:	5f                   	pop    edi
     a50:	4c                   	dec    esp
     a51:	45                   	inc    ebp
     a52:	41                   	inc    ecx
     a53:	53                   	push   ebx
     a54:	54                   	push   esp
     a55:	31 36                	xor    DWORD PTR [esi],esi
     a57:	5f                   	pop    edi
     a58:	4d                   	dec    ebp
     a59:	41                   	inc    ecx
     a5a:	58                   	pop    eax
     a5b:	5f                   	pop    edi
     a5c:	5f                   	pop    edi
     a5d:	20 30                	and    BYTE PTR [eax],dh
     a5f:	78 37                	js     a98 <code-0x759d>
     a61:	66 66 66 00 55 49    	data16 data16 data16 add BYTE PTR [ebp+0x49],dl
     a67:	4e                   	dec    esi
     a68:	54                   	push   esp
     a69:	5f                   	pop    edi
     a6a:	4c                   	dec    esp
     a6b:	45                   	inc    ebp
     a6c:	41                   	inc    ecx
     a6d:	53                   	push   ebx
     a6e:	54                   	push   esp
     a6f:	31 36                	xor    DWORD PTR [esi],esi
     a71:	5f                   	pop    edi
     a72:	57                   	push   edi
     a73:	49                   	dec    ecx
     a74:	44                   	inc    esp
     a75:	54                   	push   esp
     a76:	48                   	dec    eax
     a77:	20 5f 5f             	and    BYTE PTR [edi+0x5f],bl
     a7a:	49                   	dec    ecx
     a7b:	4e                   	dec    esi
     a7c:	54                   	push   esp
     a7d:	5f                   	pop    edi
     a7e:	4c                   	dec    esp
     a7f:	45                   	inc    ebp
     a80:	41                   	inc    ecx
     a81:	53                   	push   ebx
     a82:	54                   	push   esp
     a83:	31 36                	xor    DWORD PTR [esi],esi
     a85:	5f                   	pop    edi
     a86:	57                   	push   edi
     a87:	49                   	dec    ecx
     a88:	44                   	inc    esp
     a89:	54                   	push   esp
     a8a:	48                   	dec    eax
     a8b:	5f                   	pop    edi
     a8c:	5f                   	pop    edi
     a8d:	00 5f 5f             	add    BYTE PTR [edi+0x5f],bl
     a90:	53                   	push   ebx
     a91:	43                   	inc    ebx
     a92:	48                   	dec    eax
     a93:	41                   	inc    ecx
     a94:	52                   	push   edx
     a95:	5f                   	pop    edi
     a96:	4d                   	dec    ebp
     a97:	41                   	inc    ecx
     a98:	58                   	pop    eax
     a99:	5f                   	pop    edi
     a9a:	5f                   	pop    edi
     a9b:	20 30                	and    BYTE PTR [eax],dh
     a9d:	78 37                	js     ad6 <code-0x755f>
     a9f:	66 00 50 54          	data16 add BYTE PTR [eax+0x54],dl
     aa3:	52                   	push   edx
     aa4:	44                   	inc    esp
     aa5:	49                   	dec    ecx
     aa6:	46                   	inc    esi
     aa7:	46                   	inc    esi
     aa8:	5f                   	pop    edi
     aa9:	4d                   	dec    ebp
     aaa:	41                   	inc    ecx
     aab:	58                   	pop    eax
     aac:	20 5f 5f             	and    BYTE PTR [edi+0x5f],bl
     aaf:	50                   	push   eax
     ab0:	54                   	push   esp
     ab1:	52                   	push   edx
     ab2:	44                   	inc    esp
     ab3:	49                   	dec    ecx
     ab4:	46                   	inc    esi
     ab5:	46                   	inc    esi
     ab6:	5f                   	pop    edi
     ab7:	4d                   	dec    ebp
     ab8:	41                   	inc    ecx
     ab9:	58                   	pop    eax
     aba:	5f                   	pop    edi
     abb:	5f                   	pop    edi
     abc:	00 5f 5f             	add    BYTE PTR [edi+0x5f],bl
     abf:	47                   	inc    edi
     ac0:	4e                   	dec    esi
     ac1:	55                   	push   ebp
     ac2:	43                   	inc    ebx
     ac3:	5f                   	pop    edi
     ac4:	45                   	inc    ebp
     ac5:	58                   	pop    eax
     ac6:	45                   	inc    ebp
     ac7:	43                   	inc    ebx
     ac8:	55                   	push   ebp
     ac9:	54                   	push   esp
     aca:	49                   	dec    ecx
     acb:	4f                   	dec    edi
     acc:	4e                   	dec    esi
     acd:	5f                   	pop    edi
     ace:	43                   	inc    ebx
     acf:	48                   	dec    eax
     ad0:	41                   	inc    ecx
     ad1:	52                   	push   edx
     ad2:	53                   	push   ebx
     ad3:	45                   	inc    ebp
     ad4:	54                   	push   esp
     ad5:	5f                   	pop    edi
     ad6:	4e                   	dec    esi
     ad7:	41                   	inc    ecx
     ad8:	4d                   	dec    ebp
     ad9:	45                   	inc    ebp
     ada:	20 22                	and    BYTE PTR [edx],ah
     adc:	55                   	push   ebp
     add:	54                   	push   esp
     ade:	46                   	inc    esi
     adf:	2d 38 22 00 5f       	sub    eax,0x5f002238
     ae4:	5f                   	pop    edi
     ae5:	46                   	inc    esi
     ae6:	4c                   	dec    esp
     ae7:	54                   	push   esp
     ae8:	36 34 5f             	ss xor al,0x5f
     aeb:	44                   	inc    esp
     aec:	49                   	dec    ecx
     aed:	47                   	inc    edi
     aee:	5f                   	pop    edi
     aef:	5f                   	pop    edi
     af0:	20 31                	and    BYTE PTR [ecx],dh
     af2:	35 00 5f 5f 49       	xor    eax,0x495f5f00
     af7:	4e                   	dec    esi
     af8:	54                   	push   esp
     af9:	5f                   	pop    edi
     afa:	46                   	inc    esi
     afb:	41                   	inc    ecx
     afc:	53                   	push   ebx
     afd:	54                   	push   esp
     afe:	38 5f 54             	cmp    BYTE PTR [edi+0x54],bl
     b01:	59                   	pop    ecx
     b02:	50                   	push   eax
     b03:	45                   	inc    ebp
     b04:	5f                   	pop    edi
     b05:	5f                   	pop    edi
     b06:	20 73 69             	and    BYTE PTR [ebx+0x69],dh
     b09:	67 6e                	outs   dx,BYTE PTR ds:[si]
     b0b:	65 64 20 63 68       	gs and BYTE PTR fs:[ebx+0x68],ah
     b10:	61                   	popa
     b11:	72 00                	jb     b13 <code-0x7522>
     b13:	5f                   	pop    edi
     b14:	5f                   	pop    edi
     b15:	42                   	inc    edx
     b16:	46                   	inc    esi
     b17:	4c                   	dec    esp
     b18:	54                   	push   esp
     b19:	31 36                	xor    DWORD PTR [esi],esi
     b1b:	5f                   	pop    edi
     b1c:	44                   	inc    esp
     b1d:	49                   	dec    ecx
     b1e:	47                   	inc    edi
     b1f:	5f                   	pop    edi
     b20:	5f                   	pop    edi
     b21:	20 32                	and    BYTE PTR [edx],dh
     b23:	00 49 4e             	add    BYTE PTR [ecx+0x4e],cl
     b26:	54                   	push   esp
     b27:	50                   	push   eax
     b28:	54                   	push   esp
     b29:	52                   	push   edx
     b2a:	5f                   	pop    edi
     b2b:	4d                   	dec    ebp
     b2c:	41                   	inc    ecx
     b2d:	58                   	pop    eax
     b2e:	20 5f 5f             	and    BYTE PTR [edi+0x5f],bl
     b31:	49                   	dec    ecx
     b32:	4e                   	dec    esi
     b33:	54                   	push   esp
     b34:	50                   	push   eax
     b35:	54                   	push   esp
     b36:	52                   	push   edx
     b37:	5f                   	pop    edi
     b38:	4d                   	dec    ebp
     b39:	41                   	inc    ecx
     b3a:	58                   	pop    eax
     b3b:	5f                   	pop    edi
     b3c:	5f                   	pop    edi
     b3d:	00 5f 5f             	add    BYTE PTR [edi+0x5f],bl
     b40:	53                   	push   ebx
     b41:	49                   	dec    ecx
     b42:	5a                   	pop    edx
     b43:	45                   	inc    ebp
     b44:	5f                   	pop    edi
     b45:	4d                   	dec    ebp
     b46:	41                   	inc    ecx
     b47:	58                   	pop    eax
     b48:	5f                   	pop    edi
     b49:	5f                   	pop    edi
     b4a:	20 30                	and    BYTE PTR [eax],dh
     b4c:	78 66                	js     bb4 <code-0x7481>
     b4e:	66 66 66 66 66 66 66 	data16 data16 data16 data16 data16 data16 push bp
     b55:	55 
     b56:	00 55 49             	add    BYTE PTR [ebp+0x49],dl
     b59:	4e                   	dec    esi
     b5a:	54                   	push   esp
     b5b:	5f                   	pop    edi
     b5c:	46                   	inc    esi
     b5d:	41                   	inc    ecx
     b5e:	53                   	push   ebx
     b5f:	54                   	push   esp
     b60:	38 5f 57             	cmp    BYTE PTR [edi+0x57],bl
     b63:	49                   	dec    ecx
     b64:	44                   	inc    esp
     b65:	54                   	push   esp
     b66:	48                   	dec    eax
     b67:	00 5f 5f             	add    BYTE PTR [edi+0x5f],bl
     b6a:	46                   	inc    esi
     b6b:	4c                   	dec    esp
     b6c:	54                   	push   esp
     b6d:	33 32                	xor    esi,DWORD PTR [edx]
     b6f:	58                   	pop    eax
     b70:	5f                   	pop    edi
     b71:	48                   	dec    eax
     b72:	41                   	inc    ecx
     b73:	53                   	push   ebx
     b74:	5f                   	pop    edi
     b75:	49                   	dec    ecx
     b76:	4e                   	dec    esi
     b77:	46                   	inc    esi
     b78:	49                   	dec    ecx
     b79:	4e                   	dec    esi
     b7a:	49                   	dec    ecx
     b7b:	54                   	push   esp
     b7c:	59                   	pop    ecx
     b7d:	5f                   	pop    edi
     b7e:	5f                   	pop    edi
     b7f:	20 31                	and    BYTE PTR [ecx],dh
     b81:	00 5f 5f             	add    BYTE PTR [edi+0x5f],bl
     b84:	53                   	push   ebx
     b85:	53                   	push   ebx
     b86:	45                   	inc    ebp
     b87:	32 5f 5f             	xor    bl,BYTE PTR [edi+0x5f]
     b8a:	20 31                	and    BYTE PTR [ecx],dh
     b8c:	00 5f 5f             	add    BYTE PTR [edi+0x5f],bl
     b8f:	55                   	push   ebp
     b90:	49                   	dec    ecx
     b91:	4e                   	dec    esi
     b92:	54                   	push   esp
     b93:	5f                   	pop    edi
     b94:	4c                   	dec    esp
     b95:	45                   	inc    ebp
     b96:	41                   	inc    ecx
     b97:	53                   	push   ebx
     b98:	54                   	push   esp
     b99:	38 5f 54             	cmp    BYTE PTR [edi+0x54],bl
     b9c:	59                   	pop    ecx
     b9d:	50                   	push   eax
     b9e:	45                   	inc    ebp
     b9f:	5f                   	pop    edi
     ba0:	5f                   	pop    edi
     ba1:	20 75 6e             	and    BYTE PTR [ebp+0x6e],dh
     ba4:	73 69                	jae    c0f <code-0x7426>
     ba6:	67 6e                	outs   dx,BYTE PTR ds:[si]
     ba8:	65 64 20 63 68       	gs and BYTE PTR fs:[ebx+0x68],ah
     bad:	61                   	popa
     bae:	72 00                	jb     bb0 <code-0x7485>
     bb0:	5f                   	pop    edi
     bb1:	5f                   	pop    edi
     bb2:	49                   	dec    ecx
     bb3:	4e                   	dec    esi
     bb4:	54                   	push   esp
     bb5:	5f                   	pop    edi
     bb6:	46                   	inc    esi
     bb7:	41                   	inc    ecx
     bb8:	53                   	push   ebx
     bb9:	54                   	push   esp
     bba:	36 34 5f             	ss xor al,0x5f
     bbd:	54                   	push   esp
     bbe:	59                   	pop    ecx
     bbf:	50                   	push   eax
     bc0:	45                   	inc    ebp
     bc1:	5f                   	pop    edi
     bc2:	5f                   	pop    edi
     bc3:	20 6c 6f 6e          	and    BYTE PTR [edi+ebp*2+0x6e],ch
     bc7:	67 20 6c 6f          	and    BYTE PTR [si+0x6f],ch
     bcb:	6e                   	outs   dx,BYTE PTR ds:[esi]
     bcc:	67 20 69 6e          	and    BYTE PTR [bx+di+0x6e],ch
     bd0:	74 00                	je     bd2 <code-0x7463>
     bd2:	5f                   	pop    edi
     bd3:	5f                   	pop    edi
     bd4:	46                   	inc    esi
     bd5:	4c                   	dec    esp
     bd6:	54                   	push   esp
     bd7:	31 32                	xor    DWORD PTR [edx],esi
     bd9:	38 5f 48             	cmp    BYTE PTR [edi+0x48],bl
     bdc:	41                   	inc    ecx
     bdd:	53                   	push   ebx
     bde:	5f                   	pop    edi
     bdf:	51                   	push   ecx
     be0:	55                   	push   ebp
     be1:	49                   	dec    ecx
     be2:	45                   	inc    ebp
     be3:	54                   	push   esp
     be4:	5f                   	pop    edi
     be5:	4e                   	dec    esi
     be6:	41                   	inc    ecx
     be7:	4e                   	dec    esi
     be8:	5f                   	pop    edi
     be9:	5f                   	pop    edi
     bea:	20 31                	and    BYTE PTR [ecx],dh
     bec:	00 5f 5f             	add    BYTE PTR [edi+0x5f],bl
     bef:	49                   	dec    ecx
     bf0:	4e                   	dec    esi
     bf1:	54                   	push   esp
     bf2:	5f                   	pop    edi
     bf3:	4c                   	dec    esp
     bf4:	45                   	inc    ebp
     bf5:	41                   	inc    ecx
     bf6:	53                   	push   ebx
     bf7:	54                   	push   esp
     bf8:	33 32                	xor    esi,DWORD PTR [edx]
     bfa:	5f                   	pop    edi
     bfb:	54                   	push   esp
     bfc:	59                   	pop    ecx
     bfd:	50                   	push   eax
     bfe:	45                   	inc    ebp
     bff:	5f                   	pop    edi
     c00:	5f                   	pop    edi
     c01:	20 69 6e             	and    BYTE PTR [ecx+0x6e],ch
     c04:	74 00                	je     c06 <code-0x742f>
     c06:	5f                   	pop    edi
     c07:	5f                   	pop    edi
     c08:	49                   	dec    ecx
     c09:	4e                   	dec    esi
     c0a:	54                   	push   esp
     c0b:	5f                   	pop    edi
     c0c:	4c                   	dec    esp
     c0d:	45                   	inc    ebp
     c0e:	41                   	inc    ecx
     c0f:	53                   	push   ebx
     c10:	54                   	push   esp
     c11:	31 36                	xor    DWORD PTR [esi],esi
     c13:	5f                   	pop    edi
     c14:	57                   	push   edi
     c15:	49                   	dec    ecx
     c16:	44                   	inc    esp
     c17:	54                   	push   esp
     c18:	48                   	dec    eax
     c19:	5f                   	pop    edi
     c1a:	5f                   	pop    edi
     c1b:	20 31                	and    BYTE PTR [ecx],dh
     c1d:	36 00 55 49          	add    BYTE PTR ss:[ebp+0x49],dl
     c21:	4e                   	dec    esi
     c22:	54                   	push   esp
     c23:	5f                   	pop    edi
     c24:	4c                   	dec    esp
     c25:	45                   	inc    ebp
     c26:	41                   	inc    ecx
     c27:	53                   	push   ebx
     c28:	54                   	push   esp
     c29:	36 34 5f             	ss xor al,0x5f
     c2c:	57                   	push   edi
     c2d:	49                   	dec    ecx
     c2e:	44                   	inc    esp
     c2f:	54                   	push   esp
     c30:	48                   	dec    eax
     c31:	20 5f 5f             	and    BYTE PTR [edi+0x5f],bl
     c34:	49                   	dec    ecx
     c35:	4e                   	dec    esi
     c36:	54                   	push   esp
     c37:	5f                   	pop    edi
     c38:	4c                   	dec    esp
     c39:	45                   	inc    ebp
     c3a:	41                   	inc    ecx
     c3b:	53                   	push   ebx
     c3c:	54                   	push   esp
     c3d:	36 34 5f             	ss xor al,0x5f
     c40:	57                   	push   edi
     c41:	49                   	dec    ecx
     c42:	44                   	inc    esp
     c43:	54                   	push   esp
     c44:	48                   	dec    eax
     c45:	5f                   	pop    edi
     c46:	5f                   	pop    edi
     c47:	00 75 69             	add    BYTE PTR [ebp+0x69],dh
     c4a:	6e                   	outs   dx,BYTE PTR ds:[esi]
     c4b:	74 33                	je     c80 <code-0x73b5>
     c4d:	32 5f 74             	xor    bl,BYTE PTR [edi+0x74]
     c50:	00 5f 47             	add    BYTE PTR [edi+0x47],bl
     c53:	43                   	inc    ebx
     c54:	43                   	inc    ebx
     c55:	5f                   	pop    edi
     c56:	57                   	push   edi
     c57:	52                   	push   edx
     c58:	41                   	inc    ecx
     c59:	50                   	push   eax
     c5a:	5f                   	pop    edi
     c5b:	53                   	push   ebx
     c5c:	54                   	push   esp
     c5d:	44                   	inc    esp
     c5e:	49                   	dec    ecx
     c5f:	4e                   	dec    esi
     c60:	54                   	push   esp
     c61:	5f                   	pop    edi
     c62:	48                   	dec    eax
     c63:	20 00                	and    BYTE PTR [eax],al
     c65:	49                   	dec    ecx
     c66:	4e                   	dec    esi
     c67:	54                   	push   esp
     c68:	5f                   	pop    edi
     c69:	46                   	inc    esi
     c6a:	41                   	inc    ecx
     c6b:	53                   	push   ebx
     c6c:	54                   	push   esp
     c6d:	31 36                	xor    DWORD PTR [esi],esi
     c6f:	5f                   	pop    edi
     c70:	4d                   	dec    ebp
     c71:	49                   	dec    ecx
     c72:	4e                   	dec    esi
     c73:	00 55 49             	add    BYTE PTR [ebp+0x49],dl
     c76:	4e                   	dec    esi
     c77:	54                   	push   esp
     c78:	5f                   	pop    edi
     c79:	46                   	inc    esi
     c7a:	41                   	inc    ecx
     c7b:	53                   	push   ebx
     c7c:	54                   	push   esp
     c7d:	33 32                	xor    esi,DWORD PTR [edx]
     c7f:	5f                   	pop    edi
     c80:	57                   	push   edi
     c81:	49                   	dec    ecx
     c82:	44                   	inc    esp
     c83:	54                   	push   esp
     c84:	48                   	dec    eax
     c85:	20 5f 5f             	and    BYTE PTR [edi+0x5f],bl
     c88:	49                   	dec    ecx
     c89:	4e                   	dec    esi
     c8a:	54                   	push   esp
     c8b:	5f                   	pop    edi
     c8c:	46                   	inc    esi
     c8d:	41                   	inc    ecx
     c8e:	53                   	push   ebx
     c8f:	54                   	push   esp
     c90:	33 32                	xor    esi,DWORD PTR [edx]
     c92:	5f                   	pop    edi
     c93:	57                   	push   edi
     c94:	49                   	dec    ecx
     c95:	44                   	inc    esp
     c96:	54                   	push   esp
     c97:	48                   	dec    eax
     c98:	5f                   	pop    edi
     c99:	5f                   	pop    edi
     c9a:	00 5f 5f             	add    BYTE PTR [edi+0x5f],bl
     c9d:	46                   	inc    esi
     c9e:	4c                   	dec    esp
     c9f:	54                   	push   esp
     ca0:	36 34 5f             	ss xor al,0x5f
     ca3:	49                   	dec    ecx
     ca4:	53                   	push   ebx
     ca5:	5f                   	pop    edi
     ca6:	49                   	dec    ecx
     ca7:	45                   	inc    ebp
     ca8:	43                   	inc    ebx
     ca9:	5f                   	pop    edi
     caa:	36 30 35 35 39 5f 5f 	xor    BYTE PTR ss:0x5f5f3935,dh
     cb1:	20 31                	and    BYTE PTR [ecx],dh
     cb3:	00 5f 5f             	add    BYTE PTR [edi+0x5f],bl
     cb6:	55                   	push   ebp
     cb7:	49                   	dec    ecx
     cb8:	4e                   	dec    esi
     cb9:	54                   	push   esp
     cba:	50                   	push   eax
     cbb:	54                   	push   esp
     cbc:	52                   	push   edx
     cbd:	5f                   	pop    edi
     cbe:	54                   	push   esp
     cbf:	59                   	pop    ecx
     cc0:	50                   	push   eax
     cc1:	45                   	inc    ebp
     cc2:	5f                   	pop    edi
     cc3:	5f                   	pop    edi
     cc4:	20 75 6e             	and    BYTE PTR [ebp+0x6e],dh
     cc7:	73 69                	jae    d32 <code-0x7303>
     cc9:	67 6e                	outs   dx,BYTE PTR ds:[si]
     ccb:	65 64 20 69 6e       	gs and BYTE PTR fs:[ecx+0x6e],ch
     cd0:	74 00                	je     cd2 <code-0x7363>
     cd2:	5f                   	pop    edi
     cd3:	5f                   	pop    edi
     cd4:	46                   	inc    esi
     cd5:	4c                   	dec    esp
     cd6:	54                   	push   esp
     cd7:	33 32                	xor    esi,DWORD PTR [edx]
     cd9:	5f                   	pop    edi
     cda:	48                   	dec    eax
     cdb:	41                   	inc    ecx
     cdc:	53                   	push   ebx
     cdd:	5f                   	pop    edi
     cde:	44                   	inc    esp
     cdf:	45                   	inc    ebp
     ce0:	4e                   	dec    esi
     ce1:	4f                   	dec    edi
     ce2:	52                   	push   edx
     ce3:	4d                   	dec    ebp
     ce4:	5f                   	pop    edi
     ce5:	5f                   	pop    edi
     ce6:	20 31                	and    BYTE PTR [ecx],dh
     ce8:	00 5f 5f             	add    BYTE PTR [edi+0x5f],bl
     ceb:	75 6e                	jne    d5b <code-0x72da>
     ced:	69 78 5f 5f 20 31 00 	imul   edi,DWORD PTR [eax+0x5f],0x31205f
     cf4:	5f                   	pop    edi
     cf5:	5f                   	pop    edi
     cf6:	47                   	inc    edi
     cf7:	43                   	inc    ebx
     cf8:	43                   	inc    ebx
     cf9:	5f                   	pop    edi
     cfa:	48                   	dec    eax
     cfb:	41                   	inc    ecx
     cfc:	56                   	push   esi
     cfd:	45                   	inc    ebp
     cfe:	5f                   	pop    edi
     cff:	53                   	push   ebx
     d00:	59                   	pop    ecx
     d01:	4e                   	dec    esi
     d02:	43                   	inc    ebx
     d03:	5f                   	pop    edi
     d04:	43                   	inc    ebx
     d05:	4f                   	dec    edi
     d06:	4d                   	dec    ebp
     d07:	50                   	push   eax
     d08:	41                   	inc    ecx
     d09:	52                   	push   edx
     d0a:	45                   	inc    ebp
     d0b:	5f                   	pop    edi
     d0c:	41                   	inc    ecx
     d0d:	4e                   	dec    esi
     d0e:	44                   	inc    esp
     d0f:	5f                   	pop    edi
     d10:	53                   	push   ebx
     d11:	57                   	push   edi
     d12:	41                   	inc    ecx
     d13:	50                   	push   eax
     d14:	5f                   	pop    edi
     d15:	31 20                	xor    DWORD PTR [eax],esp
     d17:	31 00                	xor    DWORD PTR [eax],eax
     d19:	5f                   	pop    edi
     d1a:	5f                   	pop    edi
     d1b:	46                   	inc    esi
     d1c:	4c                   	dec    esp
     d1d:	54                   	push   esp
     d1e:	36 34 58             	ss xor al,0x58
     d21:	5f                   	pop    edi
     d22:	4d                   	dec    ebp
     d23:	49                   	dec    ecx
     d24:	4e                   	dec    esi
     d25:	5f                   	pop    edi
     d26:	45                   	inc    ebp
     d27:	58                   	pop    eax
     d28:	50                   	push   eax
     d29:	5f                   	pop    edi
     d2a:	5f                   	pop    edi
     d2b:	20 28                	and    BYTE PTR [eax],ch
     d2d:	2d 31 36 33 38       	sub    eax,0x38333631
     d32:	31 29                	xor    DWORD PTR [ecx],ebp
     d34:	00 55 49             	add    BYTE PTR [ebp+0x49],dl
     d37:	4e                   	dec    esi
     d38:	54                   	push   esp
     d39:	4d                   	dec    ebp
     d3a:	41                   	inc    ecx
     d3b:	58                   	pop    eax
     d3c:	5f                   	pop    edi
     d3d:	43                   	inc    ebx
     d3e:	00 5f 5f             	add    BYTE PTR [edi+0x5f],bl
     d41:	49                   	dec    ecx
     d42:	4e                   	dec    esi
     d43:	54                   	push   esp
     d44:	5f                   	pop    edi
     d45:	46                   	inc    esi
     d46:	41                   	inc    ecx
     d47:	53                   	push   ebx
     d48:	54                   	push   esp
     d49:	36 34 5f             	ss xor al,0x5f
     d4c:	4d                   	dec    ebp
     d4d:	41                   	inc    ecx
     d4e:	58                   	pop    eax
     d4f:	5f                   	pop    edi
     d50:	5f                   	pop    edi
     d51:	20 30                	and    BYTE PTR [eax],dh
     d53:	78 37                	js     d8c <code-0x72a9>
     d55:	66 66 66 66 66 66 66 	data16 data16 data16 data16 data16 data16 data16 data16 data16 data16 data16 data16 data16 data16
     d5c:	66 66 66 66 66 66 66 
     d63:	66 4c                	dec    sp
     d65:	4c                   	dec    esp
     d66:	00 53 49             	add    BYTE PTR [ebx+0x49],dl
     d69:	47                   	inc    edi
     d6a:	5f                   	pop    edi
     d6b:	41                   	inc    ecx
     d6c:	54                   	push   esp
     d6d:	4f                   	dec    edi
     d6e:	4d                   	dec    ebp
     d6f:	49                   	dec    ecx
     d70:	43                   	inc    ebx
     d71:	5f                   	pop    edi
     d72:	4d                   	dec    ebp
     d73:	41                   	inc    ecx
     d74:	58                   	pop    eax
     d75:	00 5f 5f             	add    BYTE PTR [edi+0x5f],bl
     d78:	46                   	inc    esi
     d79:	4c                   	dec    esp
     d7a:	54                   	push   esp
     d7b:	5f                   	pop    edi
     d7c:	44                   	inc    esp
     d7d:	49                   	dec    ecx
     d7e:	47                   	inc    edi
     d7f:	5f                   	pop    edi
     d80:	5f                   	pop    edi
     d81:	20 36                	and    BYTE PTR [esi],dh
     d83:	00 5f 5f             	add    BYTE PTR [edi+0x5f],bl
     d86:	49                   	dec    ecx
     d87:	4e                   	dec    esi
     d88:	54                   	push   esp
     d89:	5f                   	pop    edi
     d8a:	46                   	inc    esi
     d8b:	41                   	inc    ecx
     d8c:	53                   	push   ebx
     d8d:	54                   	push   esp
     d8e:	31 36                	xor    DWORD PTR [esi],esi
     d90:	5f                   	pop    edi
     d91:	4d                   	dec    ebp
     d92:	41                   	inc    ecx
     d93:	58                   	pop    eax
     d94:	5f                   	pop    edi
     d95:	5f                   	pop    edi
     d96:	20 30                	and    BYTE PTR [eax],dh
     d98:	78 37                	js     dd1 <code-0x7264>
     d9a:	66 66 66 66 66 66 66 	data16 data16 data16 data16 data16 data16 data16 add BYTE PTR [edi+0x5f],bl
     da1:	00 5f 5f 
     da4:	46                   	inc    esi
     da5:	4c                   	dec    esp
     da6:	54                   	push   esp
     da7:	31 36                	xor    DWORD PTR [esi],esi
     da9:	5f                   	pop    edi
     daa:	4d                   	dec    ebp
     dab:	41                   	inc    ecx
     dac:	4e                   	dec    esi
     dad:	54                   	push   esp
     dae:	5f                   	pop    edi
     daf:	44                   	inc    esp
     db0:	49                   	dec    ecx
     db1:	47                   	inc    edi
     db2:	5f                   	pop    edi
     db3:	5f                   	pop    edi
     db4:	20 31                	and    BYTE PTR [ecx],dh
     db6:	31 00                	xor    DWORD PTR [eax],eax
     db8:	5f                   	pop    edi
     db9:	5f                   	pop    edi
     dba:	49                   	dec    ecx
     dbb:	4c                   	dec    esp
     dbc:	50                   	push   eax
     dbd:	33 32                	xor    esi,DWORD PTR [edx]
     dbf:	5f                   	pop    edi
     dc0:	5f                   	pop    edi
     dc1:	20 31                	and    BYTE PTR [ecx],dh
     dc3:	00 5f 5f             	add    BYTE PTR [edi+0x5f],bl
     dc6:	42                   	inc    edx
     dc7:	46                   	inc    esi
     dc8:	4c                   	dec    esp
     dc9:	54                   	push   esp
     dca:	31 36                	xor    DWORD PTR [esi],esi
     dcc:	5f                   	pop    edi
     dcd:	4d                   	dec    ebp
     dce:	41                   	inc    ecx
     dcf:	58                   	pop    eax
     dd0:	5f                   	pop    edi
     dd1:	5f                   	pop    edi
     dd2:	20 33                	and    BYTE PTR [ebx],dh
     dd4:	2e 33 38             	xor    edi,DWORD PTR cs:[eax]
     dd7:	39 35 33 31 33 38    	cmp    DWORD PTR ds:0x38333133,esi
     ddd:	39 32                	cmp    DWORD PTR [edx],esi
     ddf:	35 31 35 33 35       	xor    eax,0x35333531
     de4:	34 37                	xor    al,0x37
     de6:	35 39 30 34 37       	xor    eax,0x37343039
     deb:	30 38                	xor    BYTE PTR [eax],bh
     ded:	30 30                	xor    BYTE PTR [eax],dh
     def:	33 37                	xor    esi,DWORD PTR [edi]
     df1:	31 34 38             	xor    DWORD PTR [eax+edi*1],esi
     df4:	37                   	aaa
     df5:	38 36                	cmp    BYTE PTR [esi],dh
     df7:	37                   	aaa
     df8:	65 2b 33             	sub    esi,DWORD PTR gs:[ebx]
     dfb:	38 42 46             	cmp    BYTE PTR [edx+0x46],al
     dfe:	31 36                	xor    DWORD PTR [esi],esi
     e00:	00 5f 5f             	add    BYTE PTR [edi+0x5f],bl
     e03:	44                   	inc    esp
     e04:	45                   	inc    ebp
     e05:	43                   	inc    ebx
     e06:	33 32                	xor    esi,DWORD PTR [edx]
     e08:	5f                   	pop    edi
     e09:	4d                   	dec    ebp
     e0a:	49                   	dec    ecx
     e0b:	4e                   	dec    esi
     e0c:	5f                   	pop    edi
     e0d:	5f                   	pop    edi
     e0e:	20 31                	and    BYTE PTR [ecx],dh
     e10:	45                   	inc    ebp
     e11:	2d 39 35 44 46       	sub    eax,0x46443539
     e16:	00 49 4e             	add    BYTE PTR [ecx+0x4e],cl
     e19:	54                   	push   esp
     e1a:	5f                   	pop    edi
     e1b:	46                   	inc    esi
     e1c:	41                   	inc    ecx
     e1d:	53                   	push   ebx
     e1e:	54                   	push   esp
     e1f:	38 5f 4d             	cmp    BYTE PTR [edi+0x4d],bl
     e22:	41                   	inc    ecx
     e23:	58                   	pop    eax
     e24:	20 5f 5f             	and    BYTE PTR [edi+0x5f],bl
     e27:	49                   	dec    ecx
     e28:	4e                   	dec    esi
     e29:	54                   	push   esp
     e2a:	5f                   	pop    edi
     e2b:	46                   	inc    esi
     e2c:	41                   	inc    ecx
     e2d:	53                   	push   ebx
     e2e:	54                   	push   esp
     e2f:	38 5f 4d             	cmp    BYTE PTR [edi+0x4d],bl
     e32:	41                   	inc    ecx
     e33:	58                   	pop    eax
     e34:	5f                   	pop    edi
     e35:	5f                   	pop    edi
     e36:	00 5f 5f             	add    BYTE PTR [edi+0x5f],bl
     e39:	47                   	inc    edi
     e3a:	43                   	inc    ebx
     e3b:	43                   	inc    ebx
     e3c:	5f                   	pop    edi
     e3d:	49                   	dec    ecx
     e3e:	45                   	inc    ebp
     e3f:	43                   	inc    ebx
     e40:	5f                   	pop    edi
     e41:	35 35 39 20 32       	xor    eax,0x32203935
     e46:	00 5f 5f             	add    BYTE PTR [edi+0x5f],bl
     e49:	46                   	inc    esi
     e4a:	4c                   	dec    esp
     e4b:	54                   	push   esp
     e4c:	31 32                	xor    DWORD PTR [edx],esi
     e4e:	38 5f 4d             	cmp    BYTE PTR [edi+0x4d],bl
     e51:	49                   	dec    ecx
     e52:	4e                   	dec    esi
     e53:	5f                   	pop    edi
     e54:	45                   	inc    ebp
     e55:	58                   	pop    eax
     e56:	50                   	push   eax
     e57:	5f                   	pop    edi
     e58:	5f                   	pop    edi
     e59:	20 28                	and    BYTE PTR [eax],ch
     e5b:	2d 31 36 33 38       	sub    eax,0x38333631
     e60:	31 29                	xor    DWORD PTR [ecx],ebp
     e62:	00 5f 5f             	add    BYTE PTR [edi+0x5f],bl
     e65:	50                   	push   eax
     e66:	54                   	push   esp
     e67:	52                   	push   edx
     e68:	44                   	inc    esp
     e69:	49                   	dec    ecx
     e6a:	46                   	inc    esi
     e6b:	46                   	inc    esi
     e6c:	5f                   	pop    edi
     e6d:	4d                   	dec    ebp
     e6e:	41                   	inc    ecx
     e6f:	58                   	pop    eax
     e70:	5f                   	pop    edi
     e71:	5f                   	pop    edi
     e72:	20 30                	and    BYTE PTR [eax],dh
     e74:	78 37                	js     ead <code-0x7188>
     e76:	66 66 66 66 66 66 66 	data16 data16 data16 data16 data16 data16 data16 add BYTE PTR [edi+0x5f],bl
     e7d:	00 5f 5f 
     e80:	46                   	inc    esi
     e81:	4c                   	dec    esp
     e82:	54                   	push   esp
     e83:	33 32                	xor    esi,DWORD PTR [edx]
     e85:	5f                   	pop    edi
     e86:	48                   	dec    eax
     e87:	41                   	inc    ecx
     e88:	53                   	push   ebx
     e89:	5f                   	pop    edi
     e8a:	51                   	push   ecx
     e8b:	55                   	push   ebp
     e8c:	49                   	dec    ecx
     e8d:	45                   	inc    ebp
     e8e:	54                   	push   esp
     e8f:	5f                   	pop    edi
     e90:	4e                   	dec    esi
     e91:	41                   	inc    ecx
     e92:	4e                   	dec    esi
     e93:	5f                   	pop    edi
     e94:	5f                   	pop    edi
     e95:	20 31                	and    BYTE PTR [ecx],dh
     e97:	00 5f 5f             	add    BYTE PTR [edi+0x5f],bl
     e9a:	55                   	push   ebp
     e9b:	49                   	dec    ecx
     e9c:	4e                   	dec    esi
     e9d:	54                   	push   esp
     e9e:	5f                   	pop    edi
     e9f:	4c                   	dec    esp
     ea0:	45                   	inc    ebp
     ea1:	41                   	inc    ecx
     ea2:	53                   	push   ebx
     ea3:	54                   	push   esp
     ea4:	31 36                	xor    DWORD PTR [esi],esi
     ea6:	5f                   	pop    edi
     ea7:	4d                   	dec    ebp
     ea8:	41                   	inc    ecx
     ea9:	58                   	pop    eax
     eaa:	5f                   	pop    edi
     eab:	5f                   	pop    edi
     eac:	20 30                	and    BYTE PTR [eax],dh
     eae:	78 66                	js     f16 <code-0x711f>
     eb0:	66 66 66 00 5f 5f    	data16 data16 data16 add BYTE PTR [edi+0x5f],bl
     eb6:	46                   	inc    esi
     eb7:	4c                   	dec    esp
     eb8:	54                   	push   esp
     eb9:	33 32                	xor    esi,DWORD PTR [edx]
     ebb:	5f                   	pop    edi
     ebc:	44                   	inc    esp
     ebd:	45                   	inc    ebp
     ebe:	43                   	inc    ebx
     ebf:	49                   	dec    ecx
     ec0:	4d                   	dec    ebp
     ec1:	41                   	inc    ecx
     ec2:	4c                   	dec    esp
     ec3:	5f                   	pop    edi
     ec4:	44                   	inc    esp
     ec5:	49                   	dec    ecx
     ec6:	47                   	inc    edi
     ec7:	5f                   	pop    edi
     ec8:	5f                   	pop    edi
     ec9:	20 39                	and    BYTE PTR [ecx],bh
     ecb:	00 5f 5f             	add    BYTE PTR [edi+0x5f],bl
     ece:	4c                   	dec    esp
     ecf:	44                   	inc    esp
     ed0:	42                   	inc    edx
     ed1:	4c                   	dec    esp
     ed2:	5f                   	pop    edi
     ed3:	4e                   	dec    esi
     ed4:	4f                   	dec    edi
     ed5:	52                   	push   edx
     ed6:	4d                   	dec    ebp
     ed7:	5f                   	pop    edi
     ed8:	4d                   	dec    ebp
     ed9:	41                   	inc    ecx
     eda:	58                   	pop    eax
     edb:	5f                   	pop    edi
     edc:	5f                   	pop    edi
     edd:	20 31                	and    BYTE PTR [ecx],dh
     edf:	2e 31 38             	xor    DWORD PTR cs:[eax],edi
     ee2:	39 37                	cmp    DWORD PTR [edi],esi
     ee4:	33 31                	xor    esi,DWORD PTR [ecx]
     ee6:	34 39                	xor    al,0x39
     ee8:	35 33 35 37 32       	xor    eax,0x32373533
     eed:	33 31                	xor    esi,DWORD PTR [ecx]
     eef:	37                   	aaa
     ef0:	36 35 30 32 31 32    	ss xor eax,0x32313230
     ef6:	36 33 38             	xor    edi,DWORD PTR ss:[eax]
     ef9:	35 33 30 33 30       	xor    eax,0x30333033
     efe:	39 37                	cmp    DWORD PTR [edi],esi
     f00:	30 32                	xor    BYTE PTR [edx],dh
     f02:	31 65 2b             	xor    DWORD PTR [ebp+0x2b],esp
     f05:	34 39                	xor    al,0x39
     f07:	33 32                	xor    esi,DWORD PTR [edx]
     f09:	4c                   	dec    esp
     f0a:	00 5f 5f             	add    BYTE PTR [edi+0x5f],bl
     f0d:	47                   	inc    edi
     f0e:	4e                   	dec    esi
     f0f:	55                   	push   ebp
     f10:	43                   	inc    ebx
     f11:	5f                   	pop    edi
     f12:	5f                   	pop    edi
     f13:	20 31                	and    BYTE PTR [ecx],dh
     f15:	34 00                	xor    al,0x0
     f17:	5f                   	pop    edi
     f18:	5f                   	pop    edi
     f19:	55                   	push   ebp
     f1a:	49                   	dec    ecx
     f1b:	4e                   	dec    esi
     f1c:	54                   	push   esp
     f1d:	5f                   	pop    edi
     f1e:	4c                   	dec    esp
     f1f:	45                   	inc    ebp
     f20:	41                   	inc    ecx
     f21:	53                   	push   ebx
     f22:	54                   	push   esp
     f23:	38 5f 4d             	cmp    BYTE PTR [edi+0x4d],bl
     f26:	41                   	inc    ecx
     f27:	58                   	pop    eax
     f28:	5f                   	pop    edi
     f29:	5f                   	pop    edi
     f2a:	20 30                	and    BYTE PTR [eax],dh
     f2c:	78 66                	js     f94 <code-0x70a1>
     f2e:	66 00 5f 5f          	data16 add BYTE PTR [edi+0x5f],bl
     f32:	44                   	inc    esp
     f33:	45                   	inc    ebp
     f34:	43                   	inc    ebx
     f35:	31 32                	xor    DWORD PTR [edx],esi
     f37:	38 5f 4d             	cmp    BYTE PTR [edi+0x4d],bl
     f3a:	49                   	dec    ecx
     f3b:	4e                   	dec    esi
     f3c:	5f                   	pop    edi
     f3d:	45                   	inc    ebp
     f3e:	58                   	pop    eax
     f3f:	50                   	push   eax
     f40:	5f                   	pop    edi
     f41:	5f                   	pop    edi
     f42:	20 28                	and    BYTE PTR [eax],ch
     f44:	2d 36 31 34 32       	sub    eax,0x32343136
     f49:	29 00                	sub    DWORD PTR [eax],eax
     f4b:	49                   	dec    ecx
     f4c:	4e                   	dec    esi
     f4d:	54                   	push   esp
     f4e:	38 5f 4d             	cmp    BYTE PTR [edi+0x4d],bl
     f51:	49                   	dec    ecx
     f52:	4e                   	dec    esi
     f53:	20 28                	and    BYTE PTR [eax],ch
     f55:	2d 49 4e 54 38       	sub    eax,0x38544e49
     f5a:	5f                   	pop    edi
     f5b:	4d                   	dec    ebp
     f5c:	41                   	inc    ecx
     f5d:	58                   	pop    eax
     f5e:	20 2d 20 31 29 00    	and    BYTE PTR ds:0x293120,ch
     f64:	53                   	push   ebx
     f65:	49                   	dec    ecx
     f66:	47                   	inc    edi
     f67:	5f                   	pop    edi
     f68:	41                   	inc    ecx
     f69:	54                   	push   esp
     f6a:	4f                   	dec    edi
     f6b:	4d                   	dec    ebp
     f6c:	49                   	dec    ecx
     f6d:	43                   	inc    ebx
     f6e:	5f                   	pop    edi
     f6f:	4d                   	dec    ebp
     f70:	49                   	dec    ecx
     f71:	4e                   	dec    esi
     f72:	00 5f 5f             	add    BYTE PTR [edi+0x5f],bl
     f75:	49                   	dec    ecx
     f76:	4e                   	dec    esi
     f77:	54                   	push   esp
     f78:	38 5f 4d             	cmp    BYTE PTR [edi+0x4d],bl
     f7b:	41                   	inc    ecx
     f7c:	58                   	pop    eax
     f7d:	5f                   	pop    edi
     f7e:	5f                   	pop    edi
     f7f:	20 30                	and    BYTE PTR [eax],dh
     f81:	78 37                	js     fba <code-0x707b>
     f83:	66 00 5f 5f          	data16 add BYTE PTR [edi+0x5f],bl
     f87:	44                   	inc    esp
     f88:	45                   	inc    ebp
     f89:	43                   	inc    ebx
     f8a:	31 32                	xor    DWORD PTR [edx],esi
     f8c:	38 5f 45             	cmp    BYTE PTR [edi+0x45],bl
     f8f:	50                   	push   eax
     f90:	53                   	push   ebx
     f91:	49                   	dec    ecx
     f92:	4c                   	dec    esp
     f93:	4f                   	dec    edi
     f94:	4e                   	dec    esi
     f95:	5f                   	pop    edi
     f96:	5f                   	pop    edi
     f97:	20 31                	and    BYTE PTR [ecx],dh
     f99:	45                   	inc    ebp
     f9a:	2d 33 33 44 4c       	sub    eax,0x4c443333
     f9f:	00 5f 5f             	add    BYTE PTR [edi+0x5f],bl
     fa2:	42                   	inc    edx
     fa3:	46                   	inc    esi
     fa4:	4c                   	dec    esp
     fa5:	54                   	push   esp
     fa6:	31 36                	xor    DWORD PTR [esi],esi
     fa8:	5f                   	pop    edi
     fa9:	49                   	dec    ecx
     faa:	53                   	push   ebx
     fab:	5f                   	pop    edi
     fac:	49                   	dec    ecx
     fad:	45                   	inc    ebp
     fae:	43                   	inc    ebx
     faf:	5f                   	pop    edi
     fb0:	36 30 35 35 39 5f 5f 	xor    BYTE PTR ss:0x5f5f3935,dh
     fb7:	20 30                	and    BYTE PTR [eax],dh
     fb9:	00 5f 5f             	add    BYTE PTR [edi+0x5f],bl
     fbc:	46                   	inc    esi
     fbd:	4c                   	dec    esp
     fbe:	54                   	push   esp
     fbf:	31 32                	xor    DWORD PTR [edx],esi
     fc1:	38 5f 4d             	cmp    BYTE PTR [edi+0x4d],bl
     fc4:	41                   	inc    ecx
     fc5:	58                   	pop    eax
     fc6:	5f                   	pop    edi
     fc7:	45                   	inc    ebp
     fc8:	58                   	pop    eax
     fc9:	50                   	push   eax
     fca:	5f                   	pop    edi
     fcb:	5f                   	pop    edi
     fcc:	20 31                	and    BYTE PTR [ecx],dh
     fce:	36 33 38             	xor    edi,DWORD PTR ss:[eax]
     fd1:	34 00                	xor    al,0x0
     fd3:	5f                   	pop    edi
     fd4:	5f                   	pop    edi
     fd5:	55                   	push   ebp
     fd6:	49                   	dec    ecx
     fd7:	4e                   	dec    esi
     fd8:	54                   	push   esp
     fd9:	5f                   	pop    edi
     fda:	4c                   	dec    esp
     fdb:	45                   	inc    ebp
     fdc:	41                   	inc    ecx
     fdd:	53                   	push   ebx
     fde:	54                   	push   esp
     fdf:	36 34 5f             	ss xor al,0x5f
     fe2:	4d                   	dec    ebp
     fe3:	41                   	inc    ecx
     fe4:	58                   	pop    eax
     fe5:	5f                   	pop    edi
     fe6:	5f                   	pop    edi
     fe7:	20 30                	and    BYTE PTR [eax],dh
     fe9:	78 66                	js     1051 <code-0x6fe4>
     feb:	66 66 66 66 66 66 66 	data16 data16 data16 data16 data16 data16 data16 data16 data16 data16 data16 data16 data16 data16
     ff2:	66 66 66 66 66 66 66 
     ff9:	66 55                	push   bp
     ffb:	4c                   	dec    esp
     ffc:	4c                   	dec    esp
     ffd:	00 5f 5f             	add    BYTE PTR [edi+0x5f],bl
    1000:	46                   	inc    esi
    1001:	4c                   	dec    esp
    1002:	54                   	push   esp
    1003:	5f                   	pop    edi
    1004:	52                   	push   edx
    1005:	41                   	inc    ecx
    1006:	44                   	inc    esp
    1007:	49                   	dec    ecx
    1008:	58                   	pop    eax
    1009:	5f                   	pop    edi
    100a:	5f                   	pop    edi
    100b:	20 32                	and    BYTE PTR [edx],dh
    100d:	00 5f 5f             	add    BYTE PTR [edi+0x5f],bl
    1010:	53                   	push   ebx
    1011:	49                   	dec    ecx
    1012:	5a                   	pop    edx
    1013:	45                   	inc    ebp
    1014:	4f                   	dec    edi
    1015:	46                   	inc    esi
    1016:	5f                   	pop    edi
    1017:	4c                   	dec    esp
    1018:	4f                   	dec    edi
    1019:	4e                   	dec    esi
    101a:	47                   	inc    edi
    101b:	5f                   	pop    edi
    101c:	44                   	inc    esp
    101d:	4f                   	dec    edi
    101e:	55                   	push   ebp
    101f:	42                   	inc    edx
    1020:	4c                   	dec    esp
    1021:	45                   	inc    ebp
    1022:	5f                   	pop    edi
    1023:	5f                   	pop    edi
    1024:	20 31                	and    BYTE PTR [ecx],dh
    1026:	32 00                	xor    al,BYTE PTR [eax]
    1028:	5f                   	pop    edi
    1029:	5f                   	pop    edi
    102a:	42                   	inc    edx
    102b:	46                   	inc    esi
    102c:	4c                   	dec    esp
    102d:	54                   	push   esp
    102e:	31 36                	xor    DWORD PTR [esi],esi
    1030:	5f                   	pop    edi
    1031:	44                   	inc    esp
    1032:	45                   	inc    ebp
    1033:	43                   	inc    ebx
    1034:	49                   	dec    ecx
    1035:	4d                   	dec    ebp
    1036:	41                   	inc    ecx
    1037:	4c                   	dec    esp
    1038:	5f                   	pop    edi
    1039:	44                   	inc    esp
    103a:	49                   	dec    ecx
    103b:	47                   	inc    edi
    103c:	5f                   	pop    edi
    103d:	5f                   	pop    edi
    103e:	20 34 00             	and    BYTE PTR [eax+eax*1],dh
    1041:	5f                   	pop    edi
    1042:	5f                   	pop    edi
    1043:	44                   	inc    esp
    1044:	42                   	inc    edx
    1045:	4c                   	dec    esp
    1046:	5f                   	pop    edi
    1047:	48                   	dec    eax
    1048:	41                   	inc    ecx
    1049:	53                   	push   ebx
    104a:	5f                   	pop    edi
    104b:	51                   	push   ecx
    104c:	55                   	push   ebp
    104d:	49                   	dec    ecx
    104e:	45                   	inc    ebp
    104f:	54                   	push   esp
    1050:	5f                   	pop    edi
    1051:	4e                   	dec    esi
    1052:	41                   	inc    ecx
    1053:	4e                   	dec    esi
    1054:	5f                   	pop    edi
    1055:	5f                   	pop    edi
    1056:	20 31                	and    BYTE PTR [ecx],dh
    1058:	00 5f 5f             	add    BYTE PTR [edi+0x5f],bl
    105b:	46                   	inc    esi
    105c:	4c                   	dec    esp
    105d:	54                   	push   esp
    105e:	36 34 58             	ss xor al,0x58
    1061:	5f                   	pop    edi
    1062:	49                   	dec    ecx
    1063:	53                   	push   ebx
    1064:	5f                   	pop    edi
    1065:	49                   	dec    ecx
    1066:	45                   	inc    ebp
    1067:	43                   	inc    ebx
    1068:	5f                   	pop    edi
    1069:	36 30 35 35 39 5f 5f 	xor    BYTE PTR ss:0x5f5f3935,dh
    1070:	20 31                	and    BYTE PTR [ecx],dh
    1072:	00 49 4e             	add    BYTE PTR [ecx+0x4e],cl
    1075:	54                   	push   esp
    1076:	31 36                	xor    DWORD PTR [esi],esi
    1078:	5f                   	pop    edi
    1079:	4d                   	dec    ebp
    107a:	49                   	dec    ecx
    107b:	4e                   	dec    esi
    107c:	00 5f 5f             	add    BYTE PTR [edi+0x5f],bl
    107f:	4c                   	dec    esp
    1080:	44                   	inc    esp
    1081:	42                   	inc    edx
    1082:	4c                   	dec    esp
    1083:	5f                   	pop    edi
    1084:	44                   	inc    esp
    1085:	45                   	inc    ebp
    1086:	4e                   	dec    esi
    1087:	4f                   	dec    edi
    1088:	52                   	push   edx
    1089:	4d                   	dec    ebp
    108a:	5f                   	pop    edi
    108b:	4d                   	dec    ebp
    108c:	49                   	dec    ecx
    108d:	4e                   	dec    esi
    108e:	5f                   	pop    edi
    108f:	5f                   	pop    edi
    1090:	20 33                	and    BYTE PTR [ebx],dh
    1092:	2e 36 34 35          	cs ss xor al,0x35
    1096:	31 39                	xor    DWORD PTR [ecx],edi
    1098:	39 35 33 31 38 38    	cmp    DWORD PTR ds:0x38383133,esi
    109e:	32 34 37             	xor    dh,BYTE PTR [edi+esi*1]
    10a1:	34 36                	xor    al,0x36
    10a3:	30 32                	xor    BYTE PTR [edx],dh
    10a5:	35 32 38 34 30       	xor    eax,0x30343832
    10aa:	35 39 33 33 36       	xor    eax,0x36333339
    10af:	31 39                	xor    DWORD PTR [ecx],edi
    10b1:	34 31                	xor    al,0x31
    10b3:	39 38                	cmp    DWORD PTR [eax],edi
    10b5:	32 65 2d             	xor    ah,BYTE PTR [ebp+0x2d]
    10b8:	34 39                	xor    al,0x39
    10ba:	35 31 4c 00 5f       	xor    eax,0x5f004c31
    10bf:	5f                   	pop    edi
    10c0:	46                   	inc    esi
    10c1:	4c                   	dec    esp
    10c2:	54                   	push   esp
    10c3:	36 34 5f             	ss xor al,0x5f
    10c6:	48                   	dec    eax
    10c7:	41                   	inc    ecx
    10c8:	53                   	push   ebx
    10c9:	5f                   	pop    edi
    10ca:	49                   	dec    ecx
    10cb:	4e                   	dec    esi
    10cc:	46                   	inc    esi
    10cd:	49                   	dec    ecx
    10ce:	4e                   	dec    esi
    10cf:	49                   	dec    ecx
    10d0:	54                   	push   esp
    10d1:	59                   	pop    ecx
    10d2:	5f                   	pop    edi
    10d3:	5f                   	pop    edi
    10d4:	20 31                	and    BYTE PTR [ecx],dh
    10d6:	00 5f 5f             	add    BYTE PTR [edi+0x5f],bl
    10d9:	55                   	push   ebp
    10da:	49                   	dec    ecx
    10db:	4e                   	dec    esi
    10dc:	54                   	push   esp
    10dd:	5f                   	pop    edi
    10de:	46                   	inc    esi
    10df:	41                   	inc    ecx
    10e0:	53                   	push   ebx
    10e1:	54                   	push   esp
    10e2:	38 5f 4d             	cmp    BYTE PTR [edi+0x4d],bl
    10e5:	41                   	inc    ecx
    10e6:	58                   	pop    eax
    10e7:	5f                   	pop    edi
    10e8:	5f                   	pop    edi
    10e9:	20 30                	and    BYTE PTR [eax],dh
    10eb:	78 66                	js     1153 <code-0x6ee2>
    10ed:	66 00 5f 5f          	data16 add BYTE PTR [edi+0x5f],bl
    10f1:	41                   	inc    ecx
    10f2:	54                   	push   esp
    10f3:	4f                   	dec    edi
    10f4:	4d                   	dec    ebp
    10f5:	49                   	dec    ecx
    10f6:	43                   	inc    ebx
    10f7:	5f                   	pop    edi
    10f8:	48                   	dec    eax
    10f9:	4c                   	dec    esp
    10fa:	45                   	inc    ebp
    10fb:	5f                   	pop    edi
    10fc:	52                   	push   edx
    10fd:	45                   	inc    ebp
    10fe:	4c                   	dec    esp
    10ff:	45                   	inc    ebp
    1100:	41                   	inc    ecx
    1101:	53                   	push   ebx
    1102:	45                   	inc    ebp
    1103:	20 31                	and    BYTE PTR [ecx],dh
    1105:	33 31                	xor    esi,DWORD PTR [ecx]
    1107:	30 37                	xor    BYTE PTR [edi],dh
    1109:	32 00                	xor    al,BYTE PTR [eax]
    110b:	55                   	push   ebp
    110c:	49                   	dec    ecx
    110d:	4e                   	dec    esi
    110e:	54                   	push   esp
    110f:	33 32                	xor    esi,DWORD PTR [edx]
    1111:	5f                   	pop    edi
    1112:	57                   	push   edi
    1113:	49                   	dec    ecx
    1114:	44                   	inc    esp
    1115:	54                   	push   esp
    1116:	48                   	dec    eax
    1117:	00 5f 5f             	add    BYTE PTR [edi+0x5f],bl
    111a:	4c                   	dec    esp
    111b:	44                   	inc    esp
    111c:	42                   	inc    edx
    111d:	4c                   	dec    esp
    111e:	5f                   	pop    edi
    111f:	4d                   	dec    ebp
    1120:	41                   	inc    ecx
    1121:	58                   	pop    eax
    1122:	5f                   	pop    edi
    1123:	45                   	inc    ebp
    1124:	58                   	pop    eax
    1125:	50                   	push   eax
    1126:	5f                   	pop    edi
    1127:	5f                   	pop    edi
    1128:	20 31                	and    BYTE PTR [ecx],dh
    112a:	36 33 38             	xor    edi,DWORD PTR ss:[eax]
    112d:	34 00                	xor    al,0x0
    112f:	5f                   	pop    edi
    1130:	5f                   	pop    edi
    1131:	44                   	inc    esp
    1132:	45                   	inc    ebp
    1133:	43                   	inc    ebx
    1134:	36 34 5f             	ss xor al,0x5f
    1137:	4d                   	dec    ebp
    1138:	41                   	inc    ecx
    1139:	58                   	pop    eax
    113a:	5f                   	pop    edi
    113b:	5f                   	pop    edi
    113c:	20 39                	and    BYTE PTR [ecx],bh
    113e:	2e 39 39             	cmp    DWORD PTR cs:[ecx],edi
    1141:	39 39                	cmp    DWORD PTR [ecx],edi
    1143:	39 39                	cmp    DWORD PTR [ecx],edi
    1145:	39 39                	cmp    DWORD PTR [ecx],edi
    1147:	39 39                	cmp    DWORD PTR [ecx],edi
    1149:	39 39                	cmp    DWORD PTR [ecx],edi
    114b:	39 39                	cmp    DWORD PTR [ecx],edi
    114d:	39 45 33             	cmp    DWORD PTR [ebp+0x33],eax
    1150:	38 34 44             	cmp    BYTE PTR [esp+eax*2],dh
    1153:	44                   	inc    esp
    1154:	00 57 43             	add    BYTE PTR [edi+0x43],dl
    1157:	48                   	dec    eax
    1158:	41                   	inc    ecx
    1159:	52                   	push   edx
    115a:	5f                   	pop    edi
    115b:	4d                   	dec    ebp
    115c:	41                   	inc    ecx
    115d:	58                   	pop    eax
    115e:	00 5f 5f             	add    BYTE PTR [edi+0x5f],bl
    1161:	47                   	inc    edi
    1162:	43                   	inc    ebx
    1163:	43                   	inc    ebx
    1164:	5f                   	pop    edi
    1165:	41                   	inc    ecx
    1166:	54                   	push   esp
    1167:	4f                   	dec    edi
    1168:	4d                   	dec    ebp
    1169:	49                   	dec    ecx
    116a:	43                   	inc    ebx
    116b:	5f                   	pop    edi
    116c:	49                   	dec    ecx
    116d:	4e                   	dec    esi
    116e:	54                   	push   esp
    116f:	5f                   	pop    edi
    1170:	4c                   	dec    esp
    1171:	4f                   	dec    edi
    1172:	43                   	inc    ebx
    1173:	4b                   	dec    ebx
    1174:	5f                   	pop    edi
    1175:	46                   	inc    esi
    1176:	52                   	push   edx
    1177:	45                   	inc    ebp
    1178:	45                   	inc    ebp
    1179:	20 32                	and    BYTE PTR [edx],dh
    117b:	00 5f 5f             	add    BYTE PTR [edi+0x5f],bl
    117e:	49                   	dec    ecx
    117f:	4e                   	dec    esi
    1180:	54                   	push   esp
    1181:	4d                   	dec    ebp
    1182:	41                   	inc    ecx
    1183:	58                   	pop    eax
    1184:	5f                   	pop    edi
    1185:	4d                   	dec    ebp
    1186:	41                   	inc    ecx
    1187:	58                   	pop    eax
    1188:	5f                   	pop    edi
    1189:	5f                   	pop    edi
    118a:	20 30                	and    BYTE PTR [eax],dh
    118c:	78 37                	js     11c5 <code-0x6e70>
    118e:	66 66 66 66 66 66 66 	data16 data16 data16 data16 data16 data16 data16 data16 data16 data16 data16 data16 data16 data16
    1195:	66 66 66 66 66 66 66 
    119c:	66 4c                	dec    sp
    119e:	4c                   	dec    esp
    119f:	00 5f 5f             	add    BYTE PTR [edi+0x5f],bl
    11a2:	57                   	push   edi
    11a3:	49                   	dec    ecx
    11a4:	4e                   	dec    esi
    11a5:	54                   	push   esp
    11a6:	5f                   	pop    edi
    11a7:	4d                   	dec    ebp
    11a8:	41                   	inc    ecx
    11a9:	58                   	pop    eax
    11aa:	5f                   	pop    edi
    11ab:	5f                   	pop    edi
    11ac:	20 30                	and    BYTE PTR [eax],dh
    11ae:	78 66                	js     1216 <code-0x6e1f>
    11b0:	66 66 66 66 66 66 66 	data16 data16 data16 data16 data16 data16 push bp
    11b7:	55 
    11b8:	00 5f 5f             	add    BYTE PTR [edi+0x5f],bl
    11bb:	46                   	inc    esi
    11bc:	4c                   	dec    esp
    11bd:	54                   	push   esp
    11be:	36 34 58             	ss xor al,0x58
    11c1:	5f                   	pop    edi
    11c2:	44                   	inc    esp
    11c3:	49                   	dec    ecx
    11c4:	47                   	inc    edi
    11c5:	5f                   	pop    edi
    11c6:	5f                   	pop    edi
    11c7:	20 31                	and    BYTE PTR [ecx],dh
    11c9:	38 00                	cmp    BYTE PTR [eax],al
    11cb:	5f                   	pop    edi
    11cc:	5f                   	pop    edi
    11cd:	49                   	dec    ecx
    11ce:	4e                   	dec    esi
    11cf:	54                   	push   esp
    11d0:	5f                   	pop    edi
    11d1:	4c                   	dec    esp
    11d2:	45                   	inc    ebp
    11d3:	41                   	inc    ecx
    11d4:	53                   	push   ebx
    11d5:	54                   	push   esp
    11d6:	36 34 5f             	ss xor al,0x5f
    11d9:	57                   	push   edi
    11da:	49                   	dec    ecx
    11db:	44                   	inc    esp
    11dc:	54                   	push   esp
    11dd:	48                   	dec    eax
    11de:	5f                   	pop    edi
    11df:	5f                   	pop    edi
    11e0:	20 36                	and    BYTE PTR [esi],dh
    11e2:	34 00                	xor    al,0x0
    11e4:	49                   	dec    ecx
    11e5:	4e                   	dec    esi
    11e6:	54                   	push   esp
    11e7:	33 32                	xor    esi,DWORD PTR [edx]
    11e9:	5f                   	pop    edi
    11ea:	43                   	inc    ebx
    11eb:	28 63 29             	sub    BYTE PTR [ebx+0x29],ah
    11ee:	20 5f 5f             	and    BYTE PTR [edi+0x5f],bl
    11f1:	49                   	dec    ecx
    11f2:	4e                   	dec    esi
    11f3:	54                   	push   esp
    11f4:	33 32                	xor    esi,DWORD PTR [edx]
    11f6:	5f                   	pop    edi
    11f7:	43                   	inc    ebx
    11f8:	28 63 29             	sub    BYTE PTR [ebx+0x29],ah
    11fb:	00 5f 5f             	add    BYTE PTR [edi+0x5f],bl
    11fe:	46                   	inc    esi
    11ff:	4c                   	dec    esp
    1200:	54                   	push   esp
    1201:	36 34 5f             	ss xor al,0x5f
    1204:	4d                   	dec    ebp
    1205:	41                   	inc    ecx
    1206:	58                   	pop    eax
    1207:	5f                   	pop    edi
    1208:	31 30                	xor    DWORD PTR [eax],esi
    120a:	5f                   	pop    edi
    120b:	45                   	inc    ebp
    120c:	58                   	pop    eax
    120d:	50                   	push   eax
    120e:	5f                   	pop    edi
    120f:	5f                   	pop    edi
    1210:	20 33                	and    BYTE PTR [ebx],dh
    1212:	30 38                	xor    BYTE PTR [eax],bh
    1214:	00 5f 5f             	add    BYTE PTR [edi+0x5f],bl
    1217:	4f                   	dec    edi
    1218:	52                   	push   edx
    1219:	44                   	inc    esp
    121a:	45                   	inc    ebp
    121b:	52                   	push   edx
    121c:	5f                   	pop    edi
    121d:	4c                   	dec    esp
    121e:	49                   	dec    ecx
    121f:	54                   	push   esp
    1220:	54                   	push   esp
    1221:	4c                   	dec    esp
    1222:	45                   	inc    ebp
    1223:	5f                   	pop    edi
    1224:	45                   	inc    ebp
    1225:	4e                   	dec    esi
    1226:	44                   	inc    esp
    1227:	49                   	dec    ecx
    1228:	41                   	inc    ecx
    1229:	4e                   	dec    esi
    122a:	5f                   	pop    edi
    122b:	5f                   	pop    edi
    122c:	20 31                	and    BYTE PTR [ecx],dh
    122e:	32 33                	xor    dh,BYTE PTR [ebx]
    1230:	34 00                	xor    al,0x0
    1232:	5f                   	pop    edi
    1233:	5f                   	pop    edi
    1234:	53                   	push   ebx
    1235:	49                   	dec    ecx
    1236:	5a                   	pop    edx
    1237:	45                   	inc    ebp
    1238:	4f                   	dec    edi
    1239:	46                   	inc    esi
    123a:	5f                   	pop    edi
    123b:	50                   	push   eax
    123c:	54                   	push   esp
    123d:	52                   	push   edx
    123e:	44                   	inc    esp
    123f:	49                   	dec    ecx
    1240:	46                   	inc    esi
    1241:	46                   	inc    esi
    1242:	5f                   	pop    edi
    1243:	54                   	push   esp
    1244:	5f                   	pop    edi
    1245:	5f                   	pop    edi
    1246:	20 34 00             	and    BYTE PTR [eax+eax*1],dh
    1249:	5f                   	pop    edi
    124a:	5f                   	pop    edi
    124b:	4c                   	dec    esp
    124c:	41                   	inc    ecx
    124d:	48                   	dec    eax
    124e:	46                   	inc    esi
    124f:	5f                   	pop    edi
    1250:	53                   	push   ebx
    1251:	41                   	inc    ecx
    1252:	48                   	dec    eax
    1253:	46                   	inc    esi
    1254:	5f                   	pop    edi
    1255:	5f                   	pop    edi
    1256:	20 31                	and    BYTE PTR [ecx],dh
    1258:	00 55 49             	add    BYTE PTR [ebp+0x49],dl
    125b:	4e                   	dec    esi
    125c:	54                   	push   esp
    125d:	5f                   	pop    edi
    125e:	4c                   	dec    esp
    125f:	45                   	inc    ebp
    1260:	41                   	inc    ecx
    1261:	53                   	push   ebx
    1262:	54                   	push   esp
    1263:	33 32                	xor    esi,DWORD PTR [edx]
    1265:	5f                   	pop    edi
    1266:	4d                   	dec    ebp
    1267:	41                   	inc    ecx
    1268:	58                   	pop    eax
    1269:	00 49 4e             	add    BYTE PTR [ecx+0x4e],cl
    126c:	54                   	push   esp
    126d:	5f                   	pop    edi
    126e:	46                   	inc    esi
    126f:	41                   	inc    ecx
    1270:	53                   	push   ebx
    1271:	54                   	push   esp
    1272:	36 34 5f             	ss xor al,0x5f
    1275:	4d                   	dec    ebp
    1276:	49                   	dec    ecx
    1277:	4e                   	dec    esi
    1278:	00 50 54             	add    BYTE PTR [eax+0x54],dl
    127b:	52                   	push   edx
    127c:	44                   	inc    esp
    127d:	49                   	dec    ecx
    127e:	46                   	inc    esi
    127f:	46                   	inc    esi
    1280:	5f                   	pop    edi
    1281:	4d                   	dec    ebp
    1282:	49                   	dec    ecx
    1283:	4e                   	dec    esi
    1284:	20 28                	and    BYTE PTR [eax],ch
    1286:	2d 50 54 52 44       	sub    eax,0x44525450
    128b:	49                   	dec    ecx
    128c:	46                   	inc    esi
    128d:	46                   	inc    esi
    128e:	5f                   	pop    edi
    128f:	4d                   	dec    ebp
    1290:	41                   	inc    ecx
    1291:	58                   	pop    eax
    1292:	20 2d 20 31 29 00    	and    BYTE PTR ds:0x293120,ch
    1298:	5f                   	pop    edi
    1299:	5f                   	pop    edi
    129a:	44                   	inc    esp
    129b:	45                   	inc    ebp
    129c:	43                   	inc    ebx
    129d:	31 32                	xor    DWORD PTR [edx],esi
    129f:	38 5f 4d             	cmp    BYTE PTR [edi+0x4d],bl
    12a2:	41                   	inc    ecx
    12a3:	4e                   	dec    esi
    12a4:	54                   	push   esp
    12a5:	5f                   	pop    edi
    12a6:	44                   	inc    esp
    12a7:	49                   	dec    ecx
    12a8:	47                   	inc    edi
    12a9:	5f                   	pop    edi
    12aa:	5f                   	pop    edi
    12ab:	20 33                	and    BYTE PTR [ebx],dh
    12ad:	34 00                	xor    al,0x0
    12af:	5f                   	pop    edi
    12b0:	5f                   	pop    edi
    12b1:	4c                   	dec    esp
    12b2:	44                   	inc    esp
    12b3:	42                   	inc    edx
    12b4:	4c                   	dec    esp
    12b5:	5f                   	pop    edi
    12b6:	4d                   	dec    ebp
    12b7:	49                   	dec    ecx
    12b8:	4e                   	dec    esi
    12b9:	5f                   	pop    edi
    12ba:	5f                   	pop    edi
    12bb:	20 33                	and    BYTE PTR [ebx],dh
    12bd:	2e 33 36             	xor    esi,DWORD PTR cs:[esi]
    12c0:	32 31                	xor    dh,BYTE PTR [ecx]
    12c2:	30 33                	xor    BYTE PTR [ebx],dh
    12c4:	31 34 33             	xor    DWORD PTR [ebx+esi*1],esi
    12c7:	31 31                	xor    DWORD PTR [ecx],esi
    12c9:	32 30                	xor    dh,BYTE PTR [eax]
    12cb:	39 33                	cmp    DWORD PTR [ebx],esi
    12cd:	35 30 36 32 36       	xor    eax,0x36323630
    12d2:	32 36                	xor    dh,BYTE PTR [esi]
    12d4:	37                   	aaa
    12d5:	37                   	aaa
    12d6:	38 31                	cmp    BYTE PTR [ecx],dh
    12d8:	37                   	aaa
    12d9:	33 32                	xor    esi,DWORD PTR [edx]
    12db:	31 37                	xor    DWORD PTR [edi],esi
    12dd:	35 32 36 30 65       	xor    eax,0x65303632
    12e2:	2d 34 39 33 32       	sub    eax,0x32333934
    12e7:	4c                   	dec    esp
    12e8:	00 50 54             	add    BYTE PTR [eax+0x54],dl
    12eb:	52                   	push   edx
    12ec:	44                   	inc    esp
    12ed:	49                   	dec    ecx
    12ee:	46                   	inc    esi
    12ef:	46                   	inc    esi
    12f0:	5f                   	pop    edi
    12f1:	4d                   	dec    ebp
    12f2:	49                   	dec    ecx
    12f3:	4e                   	dec    esi
    12f4:	00 5f 5f             	add    BYTE PTR [edi+0x5f],bl
    12f7:	49                   	dec    ecx
    12f8:	4e                   	dec    esi
    12f9:	54                   	push   esp
    12fa:	33 32                	xor    esi,DWORD PTR [edx]
    12fc:	5f                   	pop    edi
    12fd:	54                   	push   esp
    12fe:	59                   	pop    ecx
    12ff:	50                   	push   eax
    1300:	45                   	inc    ebp
    1301:	5f                   	pop    edi
    1302:	5f                   	pop    edi
    1303:	20 69 6e             	and    BYTE PTR [ecx+0x6e],ch
    1306:	74 00                	je     1308 <code-0x6d2d>
    1308:	5f                   	pop    edi
    1309:	5f                   	pop    edi
    130a:	46                   	inc    esi
    130b:	4c                   	dec    esp
    130c:	54                   	push   esp
    130d:	36 34 58             	ss xor al,0x58
    1310:	5f                   	pop    edi
    1311:	48                   	dec    eax
    1312:	41                   	inc    ecx
    1313:	53                   	push   ebx
    1314:	5f                   	pop    edi
    1315:	44                   	inc    esp
    1316:	45                   	inc    ebp
    1317:	4e                   	dec    esi
    1318:	4f                   	dec    edi
    1319:	52                   	push   edx
    131a:	4d                   	dec    ebp
    131b:	5f                   	pop    edi
    131c:	5f                   	pop    edi
    131d:	20 31                	and    BYTE PTR [ecx],dh
    131f:	00 5f 5f             	add    BYTE PTR [edi+0x5f],bl
    1322:	44                   	inc    esp
    1323:	45                   	inc    ebp
    1324:	43                   	inc    ebx
    1325:	33 32                	xor    esi,DWORD PTR [edx]
    1327:	5f                   	pop    edi
    1328:	4d                   	dec    ebp
    1329:	41                   	inc    ecx
    132a:	58                   	pop    eax
    132b:	5f                   	pop    edi
    132c:	45                   	inc    ebp
    132d:	58                   	pop    eax
    132e:	50                   	push   eax
    132f:	5f                   	pop    edi
    1330:	5f                   	pop    edi
    1331:	20 39                	and    BYTE PTR [ecx],bh
    1333:	37                   	aaa
    1334:	00 49 4e             	add    BYTE PTR [ecx+0x4e],cl
    1337:	54                   	push   esp
    1338:	4d                   	dec    ebp
    1339:	41                   	inc    ecx
    133a:	58                   	pop    eax
    133b:	5f                   	pop    edi
    133c:	4d                   	dec    ebp
    133d:	49                   	dec    ecx
    133e:	4e                   	dec    esi
    133f:	00 5f 5f             	add    BYTE PTR [edi+0x5f],bl
    1342:	46                   	inc    esi
    1343:	4c                   	dec    esp
    1344:	54                   	push   esp
    1345:	31 36                	xor    DWORD PTR [esi],esi
    1347:	5f                   	pop    edi
    1348:	44                   	inc    esp
    1349:	45                   	inc    ebp
    134a:	4e                   	dec    esi
    134b:	4f                   	dec    edi
    134c:	52                   	push   edx
    134d:	4d                   	dec    ebp
    134e:	5f                   	pop    edi
    134f:	4d                   	dec    ebp
    1350:	49                   	dec    ecx
    1351:	4e                   	dec    esi
    1352:	5f                   	pop    edi
    1353:	5f                   	pop    edi
    1354:	20 35 2e 39 36 30    	and    BYTE PTR ds:0x3036392e,dh
    135a:	34 36                	xor    al,0x36
    135c:	34 34                	xor    al,0x34
    135e:	37                   	aaa
    135f:	37                   	aaa
    1360:	35 33 39 30 36       	xor    eax,0x36303933
    1365:	32 35 30 30 30 30    	xor    dh,BYTE PTR ds:0x30303030
    136b:	30 30                	xor    BYTE PTR [eax],dh
    136d:	30 30                	xor    BYTE PTR [eax],dh
    136f:	30 30                	xor    BYTE PTR [eax],dh
    1371:	30 30                	xor    BYTE PTR [eax],dh
    1373:	30 30                	xor    BYTE PTR [eax],dh
    1375:	30 30                	xor    BYTE PTR [eax],dh
    1377:	30 30                	xor    BYTE PTR [eax],dh
    1379:	30 65 2d             	xor    BYTE PTR [ebp+0x2d],ah
    137c:	38 46 31             	cmp    BYTE PTR [esi+0x31],al
    137f:	36 00 49 4e          	add    BYTE PTR ss:[ecx+0x4e],cl
    1383:	54                   	push   esp
    1384:	5f                   	pop    edi
    1385:	4c                   	dec    esp
    1386:	45                   	inc    ebp
    1387:	41                   	inc    ecx
    1388:	53                   	push   ebx
    1389:	54                   	push   esp
    138a:	31 36                	xor    DWORD PTR [esi],esi
    138c:	5f                   	pop    edi
    138d:	4d                   	dec    ebp
    138e:	49                   	dec    ecx
    138f:	4e                   	dec    esi
    1390:	00 5f 5f             	add    BYTE PTR [edi+0x5f],bl
    1393:	46                   	inc    esi
    1394:	4c                   	dec    esp
    1395:	54                   	push   esp
    1396:	36 34 58             	ss xor al,0x58
    1399:	5f                   	pop    edi
    139a:	4d                   	dec    ebp
    139b:	49                   	dec    ecx
    139c:	4e                   	dec    esi
    139d:	5f                   	pop    edi
    139e:	31 30                	xor    DWORD PTR [eax],esi
    13a0:	5f                   	pop    edi
    13a1:	45                   	inc    ebp
    13a2:	58                   	pop    eax
    13a3:	50                   	push   eax
    13a4:	5f                   	pop    edi
    13a5:	5f                   	pop    edi
    13a6:	20 28                	and    BYTE PTR [eax],ch
    13a8:	2d 34 39 33 31       	sub    eax,0x31333934
    13ad:	29 00                	sub    DWORD PTR [eax],eax
    13af:	5f                   	pop    edi
    13b0:	5f                   	pop    edi
    13b1:	48                   	dec    eax
    13b2:	41                   	inc    ecx
    13b3:	56                   	push   esi
    13b4:	45                   	inc    ebp
    13b5:	5f                   	pop    edi
    13b6:	53                   	push   ebx
    13b7:	50                   	push   eax
    13b8:	45                   	inc    ebp
    13b9:	43                   	inc    ebx
    13ba:	55                   	push   ebp
    13bb:	4c                   	dec    esp
    13bc:	41                   	inc    ecx
    13bd:	54                   	push   esp
    13be:	49                   	dec    ecx
    13bf:	4f                   	dec    edi
    13c0:	4e                   	dec    esi
    13c1:	5f                   	pop    edi
    13c2:	53                   	push   ebx
    13c3:	41                   	inc    ecx
    13c4:	46                   	inc    esi
    13c5:	45                   	inc    ebp
    13c6:	5f                   	pop    edi
    13c7:	56                   	push   esi
    13c8:	41                   	inc    ecx
    13c9:	4c                   	dec    esp
    13ca:	55                   	push   ebp
    13cb:	45                   	inc    ebp
    13cc:	20 31                	and    BYTE PTR [ecx],dh
    13ce:	00 5f 5f             	add    BYTE PTR [edi+0x5f],bl
    13d1:	46                   	inc    esi
    13d2:	4c                   	dec    esp
    13d3:	54                   	push   esp
    13d4:	31 32                	xor    DWORD PTR [edx],esi
    13d6:	38 5f 4d             	cmp    BYTE PTR [edi+0x4d],bl
    13d9:	41                   	inc    ecx
    13da:	58                   	pop    eax
    13db:	5f                   	pop    edi
    13dc:	31 30                	xor    DWORD PTR [eax],esi
    13de:	5f                   	pop    edi
    13df:	45                   	inc    ebp
    13e0:	58                   	pop    eax
    13e1:	50                   	push   eax
    13e2:	5f                   	pop    edi
    13e3:	5f                   	pop    edi
    13e4:	20 34 39             	and    BYTE PTR [ecx+edi*1],dh
    13e7:	33 32                	xor    esi,DWORD PTR [edx]
    13e9:	00 5f 5f             	add    BYTE PTR [edi+0x5f],bl
    13ec:	46                   	inc    esi
    13ed:	4c                   	dec    esp
    13ee:	54                   	push   esp
    13ef:	31 32                	xor    DWORD PTR [edx],esi
    13f1:	38 5f 4d             	cmp    BYTE PTR [edi+0x4d],bl
    13f4:	49                   	dec    ecx
    13f5:	4e                   	dec    esi
    13f6:	5f                   	pop    edi
    13f7:	5f                   	pop    edi
    13f8:	20 33                	and    BYTE PTR [ebx],dh
    13fa:	2e 33 36             	xor    esi,DWORD PTR cs:[esi]
    13fd:	32 31                	xor    dh,BYTE PTR [ecx]
    13ff:	30 33                	xor    BYTE PTR [ebx],dh
    1401:	31 34 33             	xor    DWORD PTR [ebx+esi*1],esi
    1404:	31 31                	xor    DWORD PTR [ecx],esi
    1406:	32 30                	xor    dh,BYTE PTR [eax]
    1408:	39 33                	cmp    DWORD PTR [ebx],esi
    140a:	35 30 36 32 36       	xor    eax,0x36323630
    140f:	32 36                	xor    dh,BYTE PTR [esi]
    1411:	37                   	aaa
    1412:	37                   	aaa
    1413:	38 31                	cmp    BYTE PTR [ecx],dh
    1415:	37                   	aaa
    1416:	33 32                	xor    esi,DWORD PTR [edx]
    1418:	31 37                	xor    DWORD PTR [edi],esi
    141a:	35 32 36 30 65       	xor    eax,0x65303632
    141f:	2d 34 39 33 32       	sub    eax,0x32333934
    1424:	46                   	inc    esi
    1425:	31 32                	xor    DWORD PTR [edx],esi
    1427:	38 00                	cmp    BYTE PTR [eax],al
    1429:	5f                   	pop    edi
    142a:	5f                   	pop    edi
    142b:	49                   	dec    ecx
    142c:	4e                   	dec    esi
    142d:	54                   	push   esp
    142e:	5f                   	pop    edi
    142f:	46                   	inc    esi
    1430:	41                   	inc    ecx
    1431:	53                   	push   ebx
    1432:	54                   	push   esp
    1433:	38 5f 57             	cmp    BYTE PTR [edi+0x57],bl
    1436:	49                   	dec    ecx
    1437:	44                   	inc    esp
    1438:	54                   	push   esp
    1439:	48                   	dec    eax
    143a:	5f                   	pop    edi
    143b:	5f                   	pop    edi
    143c:	20 38                	and    BYTE PTR [eax],bh
    143e:	00 5f 5f             	add    BYTE PTR [edi+0x5f],bl
    1441:	46                   	inc    esi
    1442:	4c                   	dec    esp
    1443:	54                   	push   esp
    1444:	36 34 5f             	ss xor al,0x5f
    1447:	4d                   	dec    ebp
    1448:	49                   	dec    ecx
    1449:	4e                   	dec    esi
    144a:	5f                   	pop    edi
    144b:	31 30                	xor    DWORD PTR [eax],esi
    144d:	5f                   	pop    edi
    144e:	45                   	inc    ebp
    144f:	58                   	pop    eax
    1450:	50                   	push   eax
    1451:	5f                   	pop    edi
    1452:	5f                   	pop    edi
    1453:	20 28                	and    BYTE PTR [eax],ch
    1455:	2d 33 30 37 29       	sub    eax,0x29373033
    145a:	00 5f 5f             	add    BYTE PTR [edi+0x5f],bl
    145d:	44                   	inc    esp
    145e:	42                   	inc    edx
    145f:	4c                   	dec    esp
    1460:	5f                   	pop    edi
    1461:	4d                   	dec    ebp
    1462:	41                   	inc    ecx
    1463:	58                   	pop    eax
    1464:	5f                   	pop    edi
    1465:	5f                   	pop    edi
    1466:	20 28                	and    BYTE PTR [eax],ch
    1468:	28 64 6f 75          	sub    BYTE PTR [edi+ebp*2+0x75],ah
    146c:	62 6c 65 29          	bound  ebp,QWORD PTR [ebp+eiz*2+0x29]
    1470:	31 2e                	xor    DWORD PTR [esi],ebp
    1472:	37                   	aaa
    1473:	39 37                	cmp    DWORD PTR [edi],esi
    1475:	36 39 33             	cmp    DWORD PTR ss:[ebx],esi
    1478:	31 33                	xor    DWORD PTR [ebx],esi
    147a:	34 38                	xor    al,0x38
    147c:	36 32 33             	xor    dh,BYTE PTR ss:[ebx]
    147f:	31 35 37 30 38 31    	xor    DWORD PTR ds:0x31383037,esi
    1485:	34 35                	xor    al,0x35
    1487:	32 37                	xor    dh,BYTE PTR [edi]
    1489:	34 32                	xor    al,0x32
    148b:	33 37                	xor    esi,DWORD PTR [edi]
    148d:	33 31                	xor    esi,DWORD PTR [ecx]
    148f:	37                   	aaa
    1490:	30 34 33             	xor    BYTE PTR [ebx+esi*1],dh
    1493:	35 37 65 2b 33       	xor    eax,0x332b6537
    1498:	30 38                	xor    BYTE PTR [eax],bh
    149a:	4c                   	dec    esp
    149b:	29 00                	sub    DWORD PTR [eax],eax
    149d:	55                   	push   ebp
    149e:	49                   	dec    ecx
    149f:	4e                   	dec    esi
    14a0:	54                   	push   esp
    14a1:	38 5f 43             	cmp    BYTE PTR [edi+0x43],bl
    14a4:	28 63 29             	sub    BYTE PTR [ebx+0x29],ah
    14a7:	20 5f 5f             	and    BYTE PTR [edi+0x5f],bl
    14aa:	55                   	push   ebp
    14ab:	49                   	dec    ecx
    14ac:	4e                   	dec    esi
    14ad:	54                   	push   esp
    14ae:	38 5f 43             	cmp    BYTE PTR [edi+0x43],bl
    14b1:	28 63 29             	sub    BYTE PTR [ebx+0x29],ah
    14b4:	00 5f 5f             	add    BYTE PTR [edi+0x5f],bl
    14b7:	49                   	dec    ecx
    14b8:	4e                   	dec    esi
    14b9:	54                   	push   esp
    14ba:	5f                   	pop    edi
    14bb:	46                   	inc    esi
    14bc:	41                   	inc    ecx
    14bd:	53                   	push   ebx
    14be:	54                   	push   esp
    14bf:	31 36                	xor    DWORD PTR [esi],esi
    14c1:	5f                   	pop    edi
    14c2:	54                   	push   esp
    14c3:	59                   	pop    ecx
    14c4:	50                   	push   eax
    14c5:	45                   	inc    ebp
    14c6:	5f                   	pop    edi
    14c7:	5f                   	pop    edi
    14c8:	20 69 6e             	and    BYTE PTR [ecx+0x6e],ch
    14cb:	74 00                	je     14cd <code-0x6b68>
    14cd:	5f                   	pop    edi
    14ce:	5f                   	pop    edi
    14cf:	46                   	inc    esi
    14d0:	4c                   	dec    esp
    14d1:	54                   	push   esp
    14d2:	31 36                	xor    DWORD PTR [esi],esi
    14d4:	5f                   	pop    edi
    14d5:	4d                   	dec    ebp
    14d6:	49                   	dec    ecx
    14d7:	4e                   	dec    esi
    14d8:	5f                   	pop    edi
    14d9:	45                   	inc    ebp
    14da:	58                   	pop    eax
    14db:	50                   	push   eax
    14dc:	5f                   	pop    edi
    14dd:	5f                   	pop    edi
    14de:	20 28                	and    BYTE PTR [eax],ch
    14e0:	2d 31 33 29 00       	sub    eax,0x293331
    14e5:	5f                   	pop    edi
    14e6:	5f                   	pop    edi
    14e7:	46                   	inc    esi
    14e8:	4c                   	dec    esp
    14e9:	54                   	push   esp
    14ea:	31 32                	xor    DWORD PTR [edx],esi
    14ec:	38 5f 44             	cmp    BYTE PTR [edi+0x44],bl
    14ef:	49                   	dec    ecx
    14f0:	47                   	inc    edi
    14f1:	5f                   	pop    edi
    14f2:	5f                   	pop    edi
    14f3:	20 33                	and    BYTE PTR [ebx],dh
    14f5:	33 00                	xor    eax,DWORD PTR [eax]
    14f7:	5f                   	pop    edi
    14f8:	5f                   	pop    edi
    14f9:	55                   	push   ebp
    14fa:	49                   	dec    ecx
    14fb:	4e                   	dec    esi
    14fc:	54                   	push   esp
    14fd:	31 36                	xor    DWORD PTR [esi],esi
    14ff:	5f                   	pop    edi
    1500:	54                   	push   esp
    1501:	59                   	pop    ecx
    1502:	50                   	push   eax
    1503:	45                   	inc    ebp
    1504:	5f                   	pop    edi
    1505:	5f                   	pop    edi
    1506:	20 73 68             	and    BYTE PTR [ebx+0x68],dh
    1509:	6f                   	outs   dx,DWORD PTR ds:[esi]
    150a:	72 74                	jb     1580 <code-0x6ab5>
    150c:	20 75 6e             	and    BYTE PTR [ebp+0x6e],dh
    150f:	73 69                	jae    157a <code-0x6abb>
    1511:	67 6e                	outs   dx,BYTE PTR ds:[si]
    1513:	65 64 20 69 6e       	gs and BYTE PTR fs:[ecx+0x6e],ch
    1518:	74 00                	je     151a <code-0x6b1b>
    151a:	5f                   	pop    edi
    151b:	5f                   	pop    edi
    151c:	57                   	push   edi
    151d:	43                   	inc    ebx
    151e:	48                   	dec    eax
    151f:	41                   	inc    ecx
    1520:	52                   	push   edx
    1521:	5f                   	pop    edi
    1522:	57                   	push   edi
    1523:	49                   	dec    ecx
    1524:	44                   	inc    esp
    1525:	54                   	push   esp
    1526:	48                   	dec    eax
    1527:	5f                   	pop    edi
    1528:	5f                   	pop    edi
    1529:	20 33                	and    BYTE PTR [ebx],dh
    152b:	32 00                	xor    al,BYTE PTR [eax]
    152d:	5f                   	pop    edi
    152e:	5f                   	pop    edi
    152f:	47                   	inc    edi
    1530:	43                   	inc    ebx
    1531:	43                   	inc    ebx
    1532:	5f                   	pop    edi
    1533:	41                   	inc    ecx
    1534:	54                   	push   esp
    1535:	4f                   	dec    edi
    1536:	4d                   	dec    ebp
    1537:	49                   	dec    ecx
    1538:	43                   	inc    ebx
    1539:	5f                   	pop    edi
    153a:	43                   	inc    ebx
    153b:	48                   	dec    eax
    153c:	41                   	inc    ecx
    153d:	52                   	push   edx
    153e:	5f                   	pop    edi
    153f:	4c                   	dec    esp
    1540:	4f                   	dec    edi
    1541:	43                   	inc    ebx
    1542:	4b                   	dec    ebx
    1543:	5f                   	pop    edi
    1544:	46                   	inc    esi
    1545:	52                   	push   edx
    1546:	45                   	inc    ebp
    1547:	45                   	inc    ebp
    1548:	20 32                	and    BYTE PTR [edx],dh
    154a:	00 5f 5f             	add    BYTE PTR [edi+0x5f],bl
    154d:	42                   	inc    edx
    154e:	46                   	inc    esi
    154f:	4c                   	dec    esp
    1550:	54                   	push   esp
    1551:	31 36                	xor    DWORD PTR [esi],esi
    1553:	5f                   	pop    edi
    1554:	48                   	dec    eax
    1555:	41                   	inc    ecx
    1556:	53                   	push   ebx
    1557:	5f                   	pop    edi
    1558:	44                   	inc    esp
    1559:	45                   	inc    ebp
    155a:	4e                   	dec    esi
    155b:	4f                   	dec    edi
    155c:	52                   	push   edx
    155d:	4d                   	dec    ebp
    155e:	5f                   	pop    edi
    155f:	5f                   	pop    edi
    1560:	20 31                	and    BYTE PTR [ecx],dh
    1562:	00 49 4e             	add    BYTE PTR [ecx+0x4e],cl
    1565:	54                   	push   esp
    1566:	4d                   	dec    ebp
    1567:	41                   	inc    ecx
    1568:	58                   	pop    eax
    1569:	5f                   	pop    edi
    156a:	43                   	inc    ebx
    156b:	28 63 29             	sub    BYTE PTR [ebx+0x29],ah
    156e:	20 5f 5f             	and    BYTE PTR [edi+0x5f],bl
    1571:	49                   	dec    ecx
    1572:	4e                   	dec    esi
    1573:	54                   	push   esp
    1574:	4d                   	dec    ebp
    1575:	41                   	inc    ecx
    1576:	58                   	pop    eax
    1577:	5f                   	pop    edi
    1578:	43                   	inc    ebx
    1579:	28 63 29             	sub    BYTE PTR [ebx+0x29],ah
    157c:	00 5f 5f             	add    BYTE PTR [edi+0x5f],bl
    157f:	4c                   	dec    esp
    1580:	4f                   	dec    edi
    1581:	4e                   	dec    esi
    1582:	47                   	inc    edi
    1583:	5f                   	pop    edi
    1584:	4c                   	dec    esp
    1585:	4f                   	dec    edi
    1586:	4e                   	dec    esi
    1587:	47                   	inc    edi
    1588:	5f                   	pop    edi
    1589:	4d                   	dec    ebp
    158a:	41                   	inc    ecx
    158b:	58                   	pop    eax
    158c:	5f                   	pop    edi
    158d:	5f                   	pop    edi
    158e:	20 30                	and    BYTE PTR [eax],dh
    1590:	78 37                	js     15c9 <code-0x6a6c>
    1592:	66 66 66 66 66 66 66 	data16 data16 data16 data16 data16 data16 data16 data16 data16 data16 data16 data16 data16 data16
    1599:	66 66 66 66 66 66 66 
    15a0:	66 4c                	dec    sp
    15a2:	4c                   	dec    esp
    15a3:	00 5f 5f             	add    BYTE PTR [edi+0x5f],bl
    15a6:	49                   	dec    ecx
    15a7:	4e                   	dec    esi
    15a8:	54                   	push   esp
    15a9:	36 34 5f             	ss xor al,0x5f
    15ac:	54                   	push   esp
    15ad:	59                   	pop    ecx
    15ae:	50                   	push   eax
    15af:	45                   	inc    ebp
    15b0:	5f                   	pop    edi
    15b1:	5f                   	pop    edi
    15b2:	20 6c 6f 6e          	and    BYTE PTR [edi+ebp*2+0x6e],ch
    15b6:	67 20 6c 6f          	and    BYTE PTR [si+0x6f],ch
    15ba:	6e                   	outs   dx,BYTE PTR ds:[esi]
    15bb:	67 20 69 6e          	and    BYTE PTR [bx+di+0x6e],ch
    15bf:	74 00                	je     15c1 <code-0x6a74>
    15c1:	5f                   	pop    edi
    15c2:	5f                   	pop    edi
    15c3:	46                   	inc    esi
    15c4:	4c                   	dec    esp
    15c5:	54                   	push   esp
    15c6:	5f                   	pop    edi
    15c7:	4d                   	dec    ebp
    15c8:	41                   	inc    ecx
    15c9:	58                   	pop    eax
    15ca:	5f                   	pop    edi
    15cb:	31 30                	xor    DWORD PTR [eax],esi
    15cd:	5f                   	pop    edi
    15ce:	45                   	inc    ebp
    15cf:	58                   	pop    eax
    15d0:	50                   	push   eax
    15d1:	5f                   	pop    edi
    15d2:	5f                   	pop    edi
    15d3:	20 33                	and    BYTE PTR [ebx],dh
    15d5:	38 00                	cmp    BYTE PTR [eax],al
    15d7:	5f                   	pop    edi
    15d8:	5f                   	pop    edi
    15d9:	46                   	inc    esi
    15da:	4c                   	dec    esp
    15db:	54                   	push   esp
    15dc:	33 32                	xor    esi,DWORD PTR [edx]
    15de:	58                   	pop    eax
    15df:	5f                   	pop    edi
    15e0:	45                   	inc    ebp
    15e1:	50                   	push   eax
    15e2:	53                   	push   ebx
    15e3:	49                   	dec    ecx
    15e4:	4c                   	dec    esp
    15e5:	4f                   	dec    edi
    15e6:	4e                   	dec    esi
    15e7:	5f                   	pop    edi
    15e8:	5f                   	pop    edi
    15e9:	20 32                	and    BYTE PTR [edx],dh
    15eb:	2e 32 32             	xor    dh,BYTE PTR cs:[edx]
    15ee:	30 34 34             	xor    BYTE PTR [esp+esi*1],dh
    15f1:	36 30 34 39          	xor    BYTE PTR ss:[ecx+edi*1],dh
    15f5:	32 35 30 33 31 33    	xor    dh,BYTE PTR ds:0x33313330
    15fb:	30 38                	xor    BYTE PTR [eax],bh
    15fd:	30 38                	xor    BYTE PTR [eax],bh
    15ff:	34 37                	xor    al,0x37
    1601:	32 36                	xor    dh,BYTE PTR [esi]
    1603:	33 33                	xor    esi,DWORD PTR [ebx]
    1605:	33 36                	xor    esi,DWORD PTR [esi]
    1607:	31 38                	xor    DWORD PTR [eax],edi
    1609:	31 36                	xor    DWORD PTR [esi],esi
    160b:	34 30                	xor    al,0x30
    160d:	36 32 65 2d          	xor    ah,BYTE PTR ss:[ebp+0x2d]
    1611:	31 36                	xor    DWORD PTR [esi],esi
    1613:	46                   	inc    esi
    1614:	33 32                	xor    esi,DWORD PTR [edx]
    1616:	78 00                	js     1618 <code-0x6a1d>
    1618:	5f                   	pop    edi
    1619:	5f                   	pop    edi
    161a:	46                   	inc    esi
    161b:	4c                   	dec    esp
    161c:	54                   	push   esp
    161d:	31 36                	xor    DWORD PTR [esi],esi
    161f:	5f                   	pop    edi
    1620:	4d                   	dec    ebp
    1621:	41                   	inc    ecx
    1622:	58                   	pop    eax
    1623:	5f                   	pop    edi
    1624:	45                   	inc    ebp
    1625:	58                   	pop    eax
    1626:	50                   	push   eax
    1627:	5f                   	pop    edi
    1628:	5f                   	pop    edi
    1629:	20 31                	and    BYTE PTR [ecx],dh
    162b:	36 00 55 49          	add    BYTE PTR ss:[ebp+0x49],dl
    162f:	4e                   	dec    esi
    1630:	54                   	push   esp
    1631:	38 5f 57             	cmp    BYTE PTR [edi+0x57],bl
    1634:	49                   	dec    ecx
    1635:	44                   	inc    esp
    1636:	54                   	push   esp
    1637:	48                   	dec    eax
    1638:	00 5f 5f             	add    BYTE PTR [edi+0x5f],bl
    163b:	46                   	inc    esi
    163c:	4c                   	dec    esp
    163d:	54                   	push   esp
    163e:	5f                   	pop    edi
    163f:	4d                   	dec    ebp
    1640:	41                   	inc    ecx
    1641:	4e                   	dec    esi
    1642:	54                   	push   esp
    1643:	5f                   	pop    edi
    1644:	44                   	inc    esp
    1645:	49                   	dec    ecx
    1646:	47                   	inc    edi
    1647:	5f                   	pop    edi
    1648:	5f                   	pop    edi
    1649:	20 32                	and    BYTE PTR [edx],dh
    164b:	34 00                	xor    al,0x0
    164d:	55                   	push   ebp
    164e:	49                   	dec    ecx
    164f:	4e                   	dec    esi
    1650:	54                   	push   esp
    1651:	5f                   	pop    edi
    1652:	46                   	inc    esi
    1653:	41                   	inc    ecx
    1654:	53                   	push   ebx
    1655:	54                   	push   esp
    1656:	36 34 5f             	ss xor al,0x5f
    1659:	4d                   	dec    ebp
    165a:	41                   	inc    ecx
    165b:	58                   	pop    eax
    165c:	20 5f 5f             	and    BYTE PTR [edi+0x5f],bl
    165f:	55                   	push   ebp
    1660:	49                   	dec    ecx
    1661:	4e                   	dec    esi
    1662:	54                   	push   esp
    1663:	5f                   	pop    edi
    1664:	46                   	inc    esi
    1665:	41                   	inc    ecx
    1666:	53                   	push   ebx
    1667:	54                   	push   esp
    1668:	36 34 5f             	ss xor al,0x5f
    166b:	4d                   	dec    ebp
    166c:	41                   	inc    ecx
    166d:	58                   	pop    eax
    166e:	5f                   	pop    edi
    166f:	5f                   	pop    edi
    1670:	00 5f 5f             	add    BYTE PTR [edi+0x5f],bl
    1673:	46                   	inc    esi
    1674:	4c                   	dec    esp
    1675:	54                   	push   esp
    1676:	36 34 5f             	ss xor al,0x5f
    1679:	44                   	inc    esp
    167a:	45                   	inc    ebp
    167b:	43                   	inc    ebx
    167c:	49                   	dec    ecx
    167d:	4d                   	dec    ebp
    167e:	41                   	inc    ecx
    167f:	4c                   	dec    esp
    1680:	5f                   	pop    edi
    1681:	44                   	inc    esp
    1682:	49                   	dec    ecx
    1683:	47                   	inc    edi
    1684:	5f                   	pop    edi
    1685:	5f                   	pop    edi
    1686:	20 31                	and    BYTE PTR [ecx],dh
    1688:	37                   	aaa
    1689:	00 5f 5f             	add    BYTE PTR [edi+0x5f],bl
    168c:	47                   	inc    edi
    168d:	43                   	inc    ebx
    168e:	43                   	inc    ebx
    168f:	5f                   	pop    edi
    1690:	48                   	dec    eax
    1691:	41                   	inc    ecx
    1692:	56                   	push   esi
    1693:	45                   	inc    ebp
    1694:	5f                   	pop    edi
    1695:	53                   	push   ebx
    1696:	59                   	pop    ecx
    1697:	4e                   	dec    esi
    1698:	43                   	inc    ebx
    1699:	5f                   	pop    edi
    169a:	43                   	inc    ebx
    169b:	4f                   	dec    edi
    169c:	4d                   	dec    ebp
    169d:	50                   	push   eax
    169e:	41                   	inc    ecx
    169f:	52                   	push   edx
    16a0:	45                   	inc    ebp
    16a1:	5f                   	pop    edi
    16a2:	41                   	inc    ecx
    16a3:	4e                   	dec    esi
    16a4:	44                   	inc    esp
    16a5:	5f                   	pop    edi
    16a6:	53                   	push   ebx
    16a7:	57                   	push   edi
    16a8:	41                   	inc    ecx
    16a9:	50                   	push   eax
    16aa:	5f                   	pop    edi
    16ab:	34 20                	xor    al,0x20
    16ad:	31 00                	xor    DWORD PTR [eax],eax
    16af:	57                   	push   edi
    16b0:	49                   	dec    ecx
    16b1:	4e                   	dec    esi
    16b2:	54                   	push   esp
    16b3:	5f                   	pop    edi
    16b4:	4d                   	dec    ebp
    16b5:	41                   	inc    ecx
    16b6:	58                   	pop    eax
    16b7:	00 5f 5f             	add    BYTE PTR [edi+0x5f],bl
    16ba:	4c                   	dec    esp
    16bb:	44                   	inc    esp
    16bc:	42                   	inc    edx
    16bd:	4c                   	dec    esp
    16be:	5f                   	pop    edi
    16bf:	4d                   	dec    ebp
    16c0:	41                   	inc    ecx
    16c1:	58                   	pop    eax
    16c2:	5f                   	pop    edi
    16c3:	5f                   	pop    edi
    16c4:	20 31                	and    BYTE PTR [ecx],dh
    16c6:	2e 31 38             	xor    DWORD PTR cs:[eax],edi
    16c9:	39 37                	cmp    DWORD PTR [edi],esi
    16cb:	33 31                	xor    esi,DWORD PTR [ecx]
    16cd:	34 39                	xor    al,0x39
    16cf:	35 33 35 37 32       	xor    eax,0x32373533
    16d4:	33 31                	xor    esi,DWORD PTR [ecx]
    16d6:	37                   	aaa
    16d7:	36 35 30 32 31 32    	ss xor eax,0x32313230
    16dd:	36 33 38             	xor    edi,DWORD PTR ss:[eax]
    16e0:	35 33 30 33 30       	xor    eax,0x30333033
    16e5:	39 37                	cmp    DWORD PTR [edi],esi
    16e7:	30 32                	xor    BYTE PTR [edx],dh
    16e9:	31 65 2b             	xor    DWORD PTR [ebp+0x2b],esp
    16ec:	34 39                	xor    al,0x39
    16ee:	33 32                	xor    esi,DWORD PTR [edx]
    16f0:	4c                   	dec    esp
    16f1:	00 5f 5f             	add    BYTE PTR [edi+0x5f],bl
    16f4:	55                   	push   ebp
    16f5:	49                   	dec    ecx
    16f6:	4e                   	dec    esi
    16f7:	54                   	push   esp
    16f8:	5f                   	pop    edi
    16f9:	46                   	inc    esi
    16fa:	41                   	inc    ecx
    16fb:	53                   	push   ebx
    16fc:	54                   	push   esp
    16fd:	31 36                	xor    DWORD PTR [esi],esi
    16ff:	5f                   	pop    edi
    1700:	4d                   	dec    ebp
    1701:	41                   	inc    ecx
    1702:	58                   	pop    eax
    1703:	5f                   	pop    edi
    1704:	5f                   	pop    edi
    1705:	20 30                	and    BYTE PTR [eax],dh
    1707:	78 66                	js     176f <code-0x68c6>
    1709:	66 66 66 66 66 66 66 	data16 data16 data16 data16 data16 data16 push bp
    1710:	55 
    1711:	00 5f 5f             	add    BYTE PTR [edi+0x5f],bl
    1714:	55                   	push   ebp
    1715:	49                   	dec    ecx
    1716:	4e                   	dec    esi
    1717:	54                   	push   esp
    1718:	5f                   	pop    edi
    1719:	46                   	inc    esi
    171a:	41                   	inc    ecx
    171b:	53                   	push   ebx
    171c:	54                   	push   esp
    171d:	31 36                	xor    DWORD PTR [esi],esi
    171f:	5f                   	pop    edi
    1720:	54                   	push   esp
    1721:	59                   	pop    ecx
    1722:	50                   	push   eax
    1723:	45                   	inc    ebp
    1724:	5f                   	pop    edi
    1725:	5f                   	pop    edi
    1726:	20 75 6e             	and    BYTE PTR [ebp+0x6e],dh
    1729:	73 69                	jae    1794 <code-0x68a1>
    172b:	67 6e                	outs   dx,BYTE PTR ds:[si]
    172d:	65 64 20 69 6e       	gs and BYTE PTR fs:[ecx+0x6e],ch
    1732:	74 00                	je     1734 <code-0x6901>
    1734:	5f                   	pop    edi
    1735:	5f                   	pop    edi
    1736:	46                   	inc    esi
    1737:	4c                   	dec    esp
    1738:	54                   	push   esp
    1739:	5f                   	pop    edi
    173a:	4d                   	dec    ebp
    173b:	41                   	inc    ecx
    173c:	58                   	pop    eax
    173d:	5f                   	pop    edi
    173e:	5f                   	pop    edi
    173f:	20 33                	and    BYTE PTR [ebx],dh
    1741:	2e 34 30             	cs xor al,0x30
    1744:	32 38                	xor    bh,BYTE PTR [eax]
    1746:	32 33                	xor    dh,BYTE PTR [ebx]
    1748:	34 36                	xor    al,0x36
    174a:	36 33 38             	xor    edi,DWORD PTR ss:[eax]
    174d:	35 32 38 38 35       	xor    eax,0x35383832
    1752:	39 38                	cmp    DWORD PTR [eax],edi
    1754:	31 31                	xor    DWORD PTR [ecx],esi
    1756:	37                   	aaa
    1757:	30 34 31             	xor    BYTE PTR [ecx+esi*1],dh
    175a:	38 33                	cmp    BYTE PTR [ebx],dh
    175c:	34 38                	xor    al,0x38
    175e:	34 35                	xor    al,0x35
    1760:	31 36                	xor    DWORD PTR [esi],esi
    1762:	39 32                	cmp    DWORD PTR [edx],esi
    1764:	35 65 2b 33 38       	xor    eax,0x38332b65
    1769:	46                   	inc    esi
    176a:	00 5f 5f             	add    BYTE PTR [edi+0x5f],bl
    176d:	44                   	inc    esp
    176e:	42                   	inc    edx
    176f:	4c                   	dec    esp
    1770:	5f                   	pop    edi
    1771:	4d                   	dec    ebp
    1772:	49                   	dec    ecx
    1773:	4e                   	dec    esi
    1774:	5f                   	pop    edi
    1775:	31 30                	xor    DWORD PTR [eax],esi
    1777:	5f                   	pop    edi
    1778:	45                   	inc    ebp
    1779:	58                   	pop    eax
    177a:	50                   	push   eax
    177b:	5f                   	pop    edi
    177c:	5f                   	pop    edi
    177d:	20 28                	and    BYTE PTR [eax],ch
    177f:	2d 33 30 37 29       	sub    eax,0x29373033
    1784:	00 5f 5f             	add    BYTE PTR [edi+0x5f],bl
    1787:	46                   	inc    esi
    1788:	4c                   	dec    esp
    1789:	54                   	push   esp
    178a:	33 32                	xor    esi,DWORD PTR [edx]
    178c:	5f                   	pop    edi
    178d:	4d                   	dec    ebp
    178e:	49                   	dec    ecx
    178f:	4e                   	dec    esi
    1790:	5f                   	pop    edi
    1791:	45                   	inc    ebp
    1792:	58                   	pop    eax
    1793:	50                   	push   eax
    1794:	5f                   	pop    edi
    1795:	5f                   	pop    edi
    1796:	20 28                	and    BYTE PTR [eax],ch
    1798:	2d 31 32 35 29       	sub    eax,0x29353231
    179d:	00 49 4e             	add    BYTE PTR [ecx+0x4e],cl
    17a0:	54                   	push   esp
    17a1:	5f                   	pop    edi
    17a2:	46                   	inc    esi
    17a3:	41                   	inc    ecx
    17a4:	53                   	push   ebx
    17a5:	54                   	push   esp
    17a6:	33 32                	xor    esi,DWORD PTR [edx]
    17a8:	5f                   	pop    edi
    17a9:	4d                   	dec    ebp
    17aa:	41                   	inc    ecx
    17ab:	58                   	pop    eax
    17ac:	20 5f 5f             	and    BYTE PTR [edi+0x5f],bl
    17af:	49                   	dec    ecx
    17b0:	4e                   	dec    esi
    17b1:	54                   	push   esp
    17b2:	5f                   	pop    edi
    17b3:	46                   	inc    esi
    17b4:	41                   	inc    ecx
    17b5:	53                   	push   ebx
    17b6:	54                   	push   esp
    17b7:	33 32                	xor    esi,DWORD PTR [edx]
    17b9:	5f                   	pop    edi
    17ba:	4d                   	dec    ebp
    17bb:	41                   	inc    ecx
    17bc:	58                   	pop    eax
    17bd:	5f                   	pop    edi
    17be:	5f                   	pop    edi
    17bf:	00 5f 5f             	add    BYTE PTR [edi+0x5f],bl
    17c2:	46                   	inc    esi
    17c3:	4c                   	dec    esp
    17c4:	54                   	push   esp
    17c5:	31 32                	xor    DWORD PTR [edx],esi
    17c7:	38 5f 48             	cmp    BYTE PTR [edi+0x48],bl
    17ca:	41                   	inc    ecx
    17cb:	53                   	push   ebx
    17cc:	5f                   	pop    edi
    17cd:	49                   	dec    ecx
    17ce:	4e                   	dec    esi
    17cf:	46                   	inc    esi
    17d0:	49                   	dec    ecx
    17d1:	4e                   	dec    esi
    17d2:	49                   	dec    ecx
    17d3:	54                   	push   esp
    17d4:	59                   	pop    ecx
    17d5:	5f                   	pop    edi
    17d6:	5f                   	pop    edi
    17d7:	20 31                	and    BYTE PTR [ecx],dh
    17d9:	00 55 49             	add    BYTE PTR [ebp+0x49],dl
    17dc:	4e                   	dec    esi
    17dd:	54                   	push   esp
    17de:	5f                   	pop    edi
    17df:	4c                   	dec    esp
    17e0:	45                   	inc    ebp
    17e1:	41                   	inc    ecx
    17e2:	53                   	push   ebx
    17e3:	54                   	push   esp
    17e4:	36 34 5f             	ss xor al,0x5f
    17e7:	4d                   	dec    ebp
    17e8:	41                   	inc    ecx
    17e9:	58                   	pop    eax
    17ea:	00 5f 5f             	add    BYTE PTR [edi+0x5f],bl
    17ed:	46                   	inc    esi
    17ee:	4c                   	dec    esp
    17ef:	54                   	push   esp
    17f0:	33 32                	xor    esi,DWORD PTR [edx]
    17f2:	5f                   	pop    edi
    17f3:	44                   	inc    esp
    17f4:	49                   	dec    ecx
    17f5:	47                   	inc    edi
    17f6:	5f                   	pop    edi
    17f7:	5f                   	pop    edi
    17f8:	20 36                	and    BYTE PTR [esi],dh
    17fa:	00 5f 47             	add    BYTE PTR [edi+0x47],bl
    17fd:	43                   	inc    ebx
    17fe:	43                   	inc    ebx
    17ff:	5f                   	pop    edi
    1800:	53                   	push   ebx
    1801:	54                   	push   esp
    1802:	44                   	inc    esp
    1803:	49                   	dec    ecx
    1804:	4e                   	dec    esi
    1805:	54                   	push   esp
    1806:	5f                   	pop    edi
    1807:	48                   	dec    eax
    1808:	20 00                	and    BYTE PTR [eax],al
    180a:	5f                   	pop    edi
    180b:	5f                   	pop    edi
    180c:	47                   	inc    edi
    180d:	58                   	pop    eax
    180e:	58                   	pop    eax
    180f:	5f                   	pop    edi
    1810:	41                   	inc    ecx
    1811:	42                   	inc    edx
    1812:	49                   	dec    ecx
    1813:	5f                   	pop    edi
    1814:	56                   	push   esi
    1815:	45                   	inc    ebp
    1816:	52                   	push   edx
    1817:	53                   	push   ebx
    1818:	49                   	dec    ecx
    1819:	4f                   	dec    edi
    181a:	4e                   	dec    esi
    181b:	20 31                	and    BYTE PTR [ecx],dh
    181d:	30 31                	xor    BYTE PTR [ecx],dh
    181f:	39 00                	cmp    DWORD PTR [eax],eax
    1821:	5f                   	pop    edi
    1822:	5f                   	pop    edi
    1823:	46                   	inc    esi
    1824:	4c                   	dec    esp
    1825:	54                   	push   esp
    1826:	36 34 5f             	ss xor al,0x5f
    1829:	48                   	dec    eax
    182a:	41                   	inc    ecx
    182b:	53                   	push   ebx
    182c:	5f                   	pop    edi
    182d:	44                   	inc    esp
    182e:	45                   	inc    ebp
    182f:	4e                   	dec    esi
    1830:	4f                   	dec    edi
    1831:	52                   	push   edx
    1832:	4d                   	dec    ebp
    1833:	5f                   	pop    edi
    1834:	5f                   	pop    edi
    1835:	20 31                	and    BYTE PTR [ecx],dh
    1837:	00 55 49             	add    BYTE PTR [ebp+0x49],dl
    183a:	4e                   	dec    esi
    183b:	54                   	push   esp
    183c:	38 5f 4d             	cmp    BYTE PTR [edi+0x4d],bl
    183f:	41                   	inc    ecx
    1840:	58                   	pop    eax
    1841:	00 5f 5f             	add    BYTE PTR [edi+0x5f],bl
    1844:	46                   	inc    esi
    1845:	4c                   	dec    esp
    1846:	54                   	push   esp
    1847:	36 34 58             	ss xor al,0x58
    184a:	5f                   	pop    edi
    184b:	4e                   	dec    esi
    184c:	4f                   	dec    edi
    184d:	52                   	push   edx
    184e:	4d                   	dec    ebp
    184f:	5f                   	pop    edi
    1850:	4d                   	dec    ebp
    1851:	41                   	inc    ecx
    1852:	58                   	pop    eax
    1853:	5f                   	pop    edi
    1854:	5f                   	pop    edi
    1855:	20 31                	and    BYTE PTR [ecx],dh
    1857:	2e 31 38             	xor    DWORD PTR cs:[eax],edi
    185a:	39 37                	cmp    DWORD PTR [edi],esi
    185c:	33 31                	xor    esi,DWORD PTR [ecx]
    185e:	34 39                	xor    al,0x39
    1860:	35 33 35 37 32       	xor    eax,0x32373533
    1865:	33 31                	xor    esi,DWORD PTR [ecx]
    1867:	37                   	aaa
    1868:	36 35 30 32 31 32    	ss xor eax,0x32313230
    186e:	36 33 38             	xor    edi,DWORD PTR ss:[eax]
    1871:	35 33 30 33 30       	xor    eax,0x30333033
    1876:	39 37                	cmp    DWORD PTR [edi],esi
    1878:	30 32                	xor    BYTE PTR [edx],dh
    187a:	31 65 2b             	xor    DWORD PTR [ebp+0x2b],esp
    187d:	34 39                	xor    al,0x39
    187f:	33 32                	xor    esi,DWORD PTR [edx]
    1881:	46                   	inc    esi
    1882:	36 34 78             	ss xor al,0x78
    1885:	00 5f 5f             	add    BYTE PTR [edi+0x5f],bl
    1888:	46                   	inc    esi
    1889:	4c                   	dec    esp
    188a:	54                   	push   esp
    188b:	33 32                	xor    esi,DWORD PTR [edx]
    188d:	58                   	pop    eax
    188e:	5f                   	pop    edi
    188f:	48                   	dec    eax
    1890:	41                   	inc    ecx
    1891:	53                   	push   ebx
    1892:	5f                   	pop    edi
    1893:	44                   	inc    esp
    1894:	45                   	inc    ebp
    1895:	4e                   	dec    esi
    1896:	4f                   	dec    edi
    1897:	52                   	push   edx
    1898:	4d                   	dec    ebp
    1899:	5f                   	pop    edi
    189a:	5f                   	pop    edi
    189b:	20 31                	and    BYTE PTR [ecx],dh
    189d:	00 5f 5f             	add    BYTE PTR [edi+0x5f],bl
    18a0:	49                   	dec    ecx
    18a1:	4e                   	dec    esi
    18a2:	54                   	push   esp
    18a3:	5f                   	pop    edi
    18a4:	4c                   	dec    esp
    18a5:	45                   	inc    ebp
    18a6:	41                   	inc    ecx
    18a7:	53                   	push   ebx
    18a8:	54                   	push   esp
    18a9:	36 34 5f             	ss xor al,0x5f
    18ac:	4d                   	dec    ebp
    18ad:	41                   	inc    ecx
    18ae:	58                   	pop    eax
    18af:	5f                   	pop    edi
    18b0:	5f                   	pop    edi
    18b1:	20 30                	and    BYTE PTR [eax],dh
    18b3:	78 37                	js     18ec <code-0x6749>
    18b5:	66 66 66 66 66 66 66 	data16 data16 data16 data16 data16 data16 data16 data16 data16 data16 data16 data16 data16 data16
    18bc:	66 66 66 66 66 66 66 
    18c3:	66 4c                	dec    sp
    18c5:	4c                   	dec    esp
    18c6:	00 5f 5f             	add    BYTE PTR [edi+0x5f],bl
    18c9:	46                   	inc    esi
    18ca:	4c                   	dec    esp
    18cb:	54                   	push   esp
    18cc:	36 34 58             	ss xor al,0x58
    18cf:	5f                   	pop    edi
    18d0:	4d                   	dec    ebp
    18d1:	41                   	inc    ecx
    18d2:	58                   	pop    eax
    18d3:	5f                   	pop    edi
    18d4:	5f                   	pop    edi
    18d5:	20 31                	and    BYTE PTR [ecx],dh
    18d7:	2e 31 38             	xor    DWORD PTR cs:[eax],edi
    18da:	39 37                	cmp    DWORD PTR [edi],esi
    18dc:	33 31                	xor    esi,DWORD PTR [ecx]
    18de:	34 39                	xor    al,0x39
    18e0:	35 33 35 37 32       	xor    eax,0x32373533
    18e5:	33 31                	xor    esi,DWORD PTR [ecx]
    18e7:	37                   	aaa
    18e8:	36 35 30 32 31 32    	ss xor eax,0x32313230
    18ee:	36 33 38             	xor    edi,DWORD PTR ss:[eax]
    18f1:	35 33 30 33 30       	xor    eax,0x30333033
    18f6:	39 37                	cmp    DWORD PTR [edi],esi
    18f8:	30 32                	xor    BYTE PTR [edx],dh
    18fa:	31 65 2b             	xor    DWORD PTR [ebp+0x2b],esp
    18fd:	34 39                	xor    al,0x39
    18ff:	33 32                	xor    esi,DWORD PTR [edx]
    1901:	46                   	inc    esi
    1902:	36 34 78             	ss xor al,0x78
    1905:	00 5f 5f             	add    BYTE PTR [edi+0x5f],bl
    1908:	47                   	inc    edi
    1909:	43                   	inc    ebx
    190a:	43                   	inc    ebx
    190b:	5f                   	pop    edi
    190c:	41                   	inc    ecx
    190d:	54                   	push   esp
    190e:	4f                   	dec    edi
    190f:	4d                   	dec    ebp
    1910:	49                   	dec    ecx
    1911:	43                   	inc    ebx
    1912:	5f                   	pop    edi
    1913:	57                   	push   edi
    1914:	43                   	inc    ebx
    1915:	48                   	dec    eax
    1916:	41                   	inc    ecx
    1917:	52                   	push   edx
    1918:	5f                   	pop    edi
    1919:	54                   	push   esp
    191a:	5f                   	pop    edi
    191b:	4c                   	dec    esp
    191c:	4f                   	dec    edi
    191d:	43                   	inc    ebx
    191e:	4b                   	dec    ebx
    191f:	5f                   	pop    edi
    1920:	46                   	inc    esi
    1921:	52                   	push   edx
    1922:	45                   	inc    ebp
    1923:	45                   	inc    ebp
    1924:	20 32                	and    BYTE PTR [edx],dh
    1926:	00 5f 5f             	add    BYTE PTR [edi+0x5f],bl
    1929:	46                   	inc    esi
    192a:	4c                   	dec    esp
    192b:	54                   	push   esp
    192c:	5f                   	pop    edi
    192d:	49                   	dec    ecx
    192e:	53                   	push   ebx
    192f:	5f                   	pop    edi
    1930:	49                   	dec    ecx
    1931:	45                   	inc    ebp
    1932:	43                   	inc    ebx
    1933:	5f                   	pop    edi
    1934:	36 30 35 35 39 5f 5f 	xor    BYTE PTR ss:0x5f5f3935,dh
    193b:	20 31                	and    BYTE PTR [ecx],dh
    193d:	00 5f 5f             	add    BYTE PTR [edi+0x5f],bl
    1940:	53                   	push   ebx
    1941:	49                   	dec    ecx
    1942:	5a                   	pop    edx
    1943:	45                   	inc    ebp
    1944:	4f                   	dec    edi
    1945:	46                   	inc    esi
    1946:	5f                   	pop    edi
    1947:	49                   	dec    ecx
    1948:	4e                   	dec    esi
    1949:	54                   	push   esp
    194a:	5f                   	pop    edi
    194b:	5f                   	pop    edi
    194c:	20 34 00             	and    BYTE PTR [eax+eax*1],dh
    194f:	5f                   	pop    edi
    1950:	5f                   	pop    edi
    1951:	49                   	dec    ecx
    1952:	4e                   	dec    esi
    1953:	54                   	push   esp
    1954:	5f                   	pop    edi
    1955:	4c                   	dec    esp
    1956:	45                   	inc    ebp
    1957:	41                   	inc    ecx
    1958:	53                   	push   ebx
    1959:	54                   	push   esp
    195a:	38 5f 57             	cmp    BYTE PTR [edi+0x57],bl
    195d:	49                   	dec    ecx
    195e:	44                   	inc    esp
    195f:	54                   	push   esp
    1960:	48                   	dec    eax
    1961:	5f                   	pop    edi
    1962:	5f                   	pop    edi
    1963:	20 38                	and    BYTE PTR [eax],bh
    1965:	00 5f 5f             	add    BYTE PTR [edi+0x5f],bl
    1968:	55                   	push   ebp
    1969:	49                   	dec    ecx
    196a:	4e                   	dec    esi
    196b:	54                   	push   esp
    196c:	38 5f 4d             	cmp    BYTE PTR [edi+0x4d],bl
    196f:	41                   	inc    ecx
    1970:	58                   	pop    eax
    1971:	5f                   	pop    edi
    1972:	5f                   	pop    edi
    1973:	20 30                	and    BYTE PTR [eax],dh
    1975:	78 66                	js     19dd <code-0x6658>
    1977:	66 00 5f 5f          	data16 add BYTE PTR [edi+0x5f],bl
    197b:	55                   	push   ebp
    197c:	49                   	dec    ecx
    197d:	4e                   	dec    esi
    197e:	54                   	push   esp
    197f:	31 36                	xor    DWORD PTR [esi],esi
    1981:	5f                   	pop    edi
    1982:	4d                   	dec    ebp
    1983:	41                   	inc    ecx
    1984:	58                   	pop    eax
    1985:	5f                   	pop    edi
    1986:	5f                   	pop    edi
    1987:	20 30                	and    BYTE PTR [eax],dh
    1989:	78 66                	js     19f1 <code-0x6644>
    198b:	66 66 66 00 49 4e    	data16 data16 data16 add BYTE PTR [ecx+0x4e],cl
    1991:	54                   	push   esp
    1992:	5f                   	pop    edi
    1993:	4c                   	dec    esp
    1994:	45                   	inc    ebp
    1995:	41                   	inc    ecx
    1996:	53                   	push   ebx
    1997:	54                   	push   esp
    1998:	38 5f 4d             	cmp    BYTE PTR [edi+0x4d],bl
    199b:	41                   	inc    ecx
    199c:	58                   	pop    eax
    199d:	20 5f 5f             	and    BYTE PTR [edi+0x5f],bl
    19a0:	49                   	dec    ecx
    19a1:	4e                   	dec    esi
    19a2:	54                   	push   esp
    19a3:	5f                   	pop    edi
    19a4:	4c                   	dec    esp
    19a5:	45                   	inc    ebp
    19a6:	41                   	inc    ecx
    19a7:	53                   	push   ebx
    19a8:	54                   	push   esp
    19a9:	38 5f 4d             	cmp    BYTE PTR [edi+0x4d],bl
    19ac:	41                   	inc    ecx
    19ad:	58                   	pop    eax
    19ae:	5f                   	pop    edi
    19af:	5f                   	pop    edi
    19b0:	00 75 69             	add    BYTE PTR [ebp+0x69],dh
    19b3:	6e                   	outs   dx,BYTE PTR ds:[esi]
    19b4:	74 38                	je     19ee <code-0x6647>
    19b6:	5f                   	pop    edi
    19b7:	74 00                	je     19b9 <code-0x667c>
    19b9:	5f                   	pop    edi
    19ba:	5f                   	pop    edi
    19bb:	46                   	inc    esi
    19bc:	4c                   	dec    esp
    19bd:	54                   	push   esp
    19be:	31 36                	xor    DWORD PTR [esi],esi
    19c0:	5f                   	pop    edi
    19c1:	4d                   	dec    ebp
    19c2:	49                   	dec    ecx
    19c3:	4e                   	dec    esi
    19c4:	5f                   	pop    edi
    19c5:	5f                   	pop    edi
    19c6:	20 36                	and    BYTE PTR [esi],dh
    19c8:	2e 31 30             	xor    DWORD PTR cs:[eax],esi
    19cb:	33 35 31 35 36 32    	xor    esi,DWORD PTR ds:0x32363531
    19d1:	35 30 30 30 30       	xor    eax,0x30303030
    19d6:	30 30                	xor    BYTE PTR [eax],dh
    19d8:	30 30                	xor    BYTE PTR [eax],dh
    19da:	30 30                	xor    BYTE PTR [eax],dh
    19dc:	30 30                	xor    BYTE PTR [eax],dh
    19de:	30 30                	xor    BYTE PTR [eax],dh
    19e0:	30 30                	xor    BYTE PTR [eax],dh
    19e2:	30 30                	xor    BYTE PTR [eax],dh
    19e4:	30 30                	xor    BYTE PTR [eax],dh
    19e6:	30 30                	xor    BYTE PTR [eax],dh
    19e8:	30 30                	xor    BYTE PTR [eax],dh
    19ea:	30 30                	xor    BYTE PTR [eax],dh
    19ec:	65 2d 35 46 31 36    	gs sub eax,0x36314635
    19f2:	00 5f 5f             	add    BYTE PTR [edi+0x5f],bl
    19f5:	55                   	push   ebp
    19f6:	49                   	dec    ecx
    19f7:	4e                   	dec    esi
    19f8:	54                   	push   esp
    19f9:	33 32                	xor    esi,DWORD PTR [edx]
    19fb:	5f                   	pop    edi
    19fc:	4d                   	dec    ebp
    19fd:	41                   	inc    ecx
    19fe:	58                   	pop    eax
    19ff:	5f                   	pop    edi
    1a00:	5f                   	pop    edi
    1a01:	20 30                	and    BYTE PTR [eax],dh
    1a03:	78 66                	js     1a6b <code-0x65ca>
    1a05:	66 66 66 66 66 66 66 	data16 data16 data16 data16 data16 data16 push bp
    1a0c:	55 
    1a0d:	00 5f 5f             	add    BYTE PTR [edi+0x5f],bl
    1a10:	49                   	dec    ecx
    1a11:	4e                   	dec    esi
    1a12:	54                   	push   esp
    1a13:	4d                   	dec    ebp
    1a14:	41                   	inc    ecx
    1a15:	58                   	pop    eax
    1a16:	5f                   	pop    edi
    1a17:	57                   	push   edi
    1a18:	49                   	dec    ecx
    1a19:	44                   	inc    esp
    1a1a:	54                   	push   esp
    1a1b:	48                   	dec    eax
    1a1c:	5f                   	pop    edi
    1a1d:	5f                   	pop    edi
    1a1e:	20 36                	and    BYTE PTR [esi],dh
    1a20:	34 00                	xor    al,0x0
    1a22:	5f                   	pop    edi
    1a23:	5f                   	pop    edi
    1a24:	44                   	inc    esp
    1a25:	45                   	inc    ebp
    1a26:	43                   	inc    ebx
    1a27:	33 32                	xor    esi,DWORD PTR [edx]
    1a29:	5f                   	pop    edi
    1a2a:	4d                   	dec    ebp
    1a2b:	41                   	inc    ecx
    1a2c:	58                   	pop    eax
    1a2d:	5f                   	pop    edi
    1a2e:	5f                   	pop    edi
    1a2f:	20 39                	and    BYTE PTR [ecx],bh
    1a31:	2e 39 39             	cmp    DWORD PTR cs:[ecx],edi
    1a34:	39 39                	cmp    DWORD PTR [ecx],edi
    1a36:	39 39                	cmp    DWORD PTR [ecx],edi
    1a38:	45                   	inc    ebp
    1a39:	39 36                	cmp    DWORD PTR [esi],esi
    1a3b:	44                   	inc    esp
    1a3c:	46                   	inc    esi
    1a3d:	00 5f 5f             	add    BYTE PTR [edi+0x5f],bl
    1a40:	44                   	inc    esp
    1a41:	42                   	inc    edx
    1a42:	4c                   	dec    esp
    1a43:	5f                   	pop    edi
    1a44:	49                   	dec    ecx
    1a45:	53                   	push   ebx
    1a46:	5f                   	pop    edi
    1a47:	49                   	dec    ecx
    1a48:	45                   	inc    ebp
    1a49:	43                   	inc    ebx
    1a4a:	5f                   	pop    edi
    1a4b:	36 30 35 35 39 5f 5f 	xor    BYTE PTR ss:0x5f5f3935,dh
    1a52:	20 31                	and    BYTE PTR [ecx],dh
    1a54:	00 5f 5f             	add    BYTE PTR [edi+0x5f],bl
    1a57:	49                   	dec    ecx
    1a58:	4e                   	dec    esi
    1a59:	54                   	push   esp
    1a5a:	5f                   	pop    edi
    1a5b:	4c                   	dec    esp
    1a5c:	45                   	inc    ebp
    1a5d:	41                   	inc    ecx
    1a5e:	53                   	push   ebx
    1a5f:	54                   	push   esp
    1a60:	31 36                	xor    DWORD PTR [esi],esi
    1a62:	5f                   	pop    edi
    1a63:	54                   	push   esp
    1a64:	59                   	pop    ecx
    1a65:	50                   	push   eax
    1a66:	45                   	inc    ebp
    1a67:	5f                   	pop    edi
    1a68:	5f                   	pop    edi
    1a69:	20 73 68             	and    BYTE PTR [ebx+0x68],dh
    1a6c:	6f                   	outs   dx,DWORD PTR ds:[esi]
    1a6d:	72 74                	jb     1ae3 <code-0x6552>
    1a6f:	20 69 6e             	and    BYTE PTR [ecx+0x6e],ch
    1a72:	74 00                	je     1a74 <code-0x65c1>
    1a74:	5f                   	pop    edi
    1a75:	5f                   	pop    edi
    1a76:	46                   	inc    esi
    1a77:	4c                   	dec    esp
    1a78:	54                   	push   esp
    1a79:	33 32                	xor    esi,DWORD PTR [edx]
    1a7b:	5f                   	pop    edi
    1a7c:	4d                   	dec    ebp
    1a7d:	41                   	inc    ecx
    1a7e:	58                   	pop    eax
    1a7f:	5f                   	pop    edi
    1a80:	45                   	inc    ebp
    1a81:	58                   	pop    eax
    1a82:	50                   	push   eax
    1a83:	5f                   	pop    edi
    1a84:	5f                   	pop    edi
    1a85:	20 31                	and    BYTE PTR [ecx],dh
    1a87:	32 38                	xor    bh,BYTE PTR [eax]
    1a89:	00 5f 5f             	add    BYTE PTR [edi+0x5f],bl
    1a8c:	67 6e                	outs   dx,BYTE PTR ds:[si]
    1a8e:	75 5f                	jne    1aef <code-0x6546>
    1a90:	6c                   	ins    BYTE PTR es:[edi],dx
    1a91:	69 6e 75 78 5f 5f 20 	imul   ebp,DWORD PTR [esi+0x75],0x205f5f78
    1a98:	31 00                	xor    DWORD PTR [eax],eax
    1a9a:	49                   	dec    ecx
    1a9b:	4e                   	dec    esi
    1a9c:	54                   	push   esp
    1a9d:	5f                   	pop    edi
    1a9e:	46                   	inc    esi
    1a9f:	41                   	inc    ecx
    1aa0:	53                   	push   ebx
    1aa1:	54                   	push   esp
    1aa2:	38 5f 4d             	cmp    BYTE PTR [edi+0x4d],bl
    1aa5:	49                   	dec    ecx
    1aa6:	4e                   	dec    esi
    1aa7:	20 28                	and    BYTE PTR [eax],ch
    1aa9:	2d 49 4e 54 5f       	sub    eax,0x5f544e49
    1aae:	46                   	inc    esi
    1aaf:	41                   	inc    ecx
    1ab0:	53                   	push   ebx
    1ab1:	54                   	push   esp
    1ab2:	38 5f 4d             	cmp    BYTE PTR [edi+0x4d],bl
    1ab5:	41                   	inc    ecx
    1ab6:	58                   	pop    eax
    1ab7:	20 2d 20 31 29 00    	and    BYTE PTR ds:0x293120,ch
    1abd:	5f                   	pop    edi
    1abe:	5f                   	pop    edi
    1abf:	49                   	dec    ecx
    1ac0:	4e                   	dec    esi
    1ac1:	54                   	push   esp
    1ac2:	38 5f 43             	cmp    BYTE PTR [edi+0x43],bl
    1ac5:	28 63 29             	sub    BYTE PTR [ebx+0x29],ah
    1ac8:	20 63 00             	and    BYTE PTR [ebx+0x0],ah
    1acb:	5f                   	pop    edi
    1acc:	5f                   	pop    edi
    1acd:	47                   	inc    edi
    1ace:	43                   	inc    ebx
    1acf:	43                   	inc    ebx
    1ad0:	5f                   	pop    edi
    1ad1:	41                   	inc    ecx
    1ad2:	54                   	push   esp
    1ad3:	4f                   	dec    edi
    1ad4:	4d                   	dec    ebp
    1ad5:	49                   	dec    ecx
    1ad6:	43                   	inc    ebx
    1ad7:	5f                   	pop    edi
    1ad8:	43                   	inc    ebx
    1ad9:	48                   	dec    eax
    1ada:	41                   	inc    ecx
    1adb:	52                   	push   edx
    1adc:	31 36                	xor    DWORD PTR [esi],esi
    1ade:	5f                   	pop    edi
    1adf:	54                   	push   esp
    1ae0:	5f                   	pop    edi
    1ae1:	4c                   	dec    esp
    1ae2:	4f                   	dec    edi
    1ae3:	43                   	inc    ebx
    1ae4:	4b                   	dec    ebx
    1ae5:	5f                   	pop    edi
    1ae6:	46                   	inc    esi
    1ae7:	52                   	push   edx
    1ae8:	45                   	inc    ebp
    1ae9:	45                   	inc    ebp
    1aea:	20 32                	and    BYTE PTR [edx],dh
    1aec:	00 55 49             	add    BYTE PTR [ebp+0x49],dl
    1aef:	4e                   	dec    esi
    1af0:	54                   	push   esp
    1af1:	5f                   	pop    edi
    1af2:	4c                   	dec    esp
    1af3:	45                   	inc    ebp
    1af4:	41                   	inc    ecx
    1af5:	53                   	push   ebx
    1af6:	54                   	push   esp
    1af7:	31 36                	xor    DWORD PTR [esi],esi
    1af9:	5f                   	pop    edi
    1afa:	57                   	push   edi
    1afb:	49                   	dec    ecx
    1afc:	44                   	inc    esp
    1afd:	54                   	push   esp
    1afe:	48                   	dec    eax
    1aff:	00 50 54             	add    BYTE PTR [eax+0x54],dl
    1b02:	52                   	push   edx
    1b03:	44                   	inc    esp
    1b04:	49                   	dec    ecx
    1b05:	46                   	inc    esi
    1b06:	46                   	inc    esi
    1b07:	5f                   	pop    edi
    1b08:	4d                   	dec    ebp
    1b09:	41                   	inc    ecx
    1b0a:	58                   	pop    eax
    1b0b:	00 55 49             	add    BYTE PTR [ebp+0x49],dl
    1b0e:	4e                   	dec    esi
    1b0f:	54                   	push   esp
    1b10:	5f                   	pop    edi
    1b11:	4c                   	dec    esp
    1b12:	45                   	inc    ebp
    1b13:	41                   	inc    ecx
    1b14:	53                   	push   ebx
    1b15:	54                   	push   esp
    1b16:	38 5f 57             	cmp    BYTE PTR [edi+0x57],bl
    1b19:	49                   	dec    ecx
    1b1a:	44                   	inc    esp
    1b1b:	54                   	push   esp
    1b1c:	48                   	dec    eax
    1b1d:	20 5f 5f             	and    BYTE PTR [edi+0x5f],bl
    1b20:	49                   	dec    ecx
    1b21:	4e                   	dec    esi
    1b22:	54                   	push   esp
    1b23:	5f                   	pop    edi
    1b24:	4c                   	dec    esp
    1b25:	45                   	inc    ebp
    1b26:	41                   	inc    ecx
    1b27:	53                   	push   ebx
    1b28:	54                   	push   esp
    1b29:	38 5f 57             	cmp    BYTE PTR [edi+0x57],bl
    1b2c:	49                   	dec    ecx
    1b2d:	44                   	inc    esp
    1b2e:	54                   	push   esp
    1b2f:	48                   	dec    eax
    1b30:	5f                   	pop    edi
    1b31:	5f                   	pop    edi
    1b32:	00 53 49             	add    BYTE PTR [ebx+0x49],dl
    1b35:	5a                   	pop    edx
    1b36:	45                   	inc    ebp
    1b37:	5f                   	pop    edi
    1b38:	4d                   	dec    ebp
    1b39:	41                   	inc    ecx
    1b3a:	58                   	pop    eax
    1b3b:	00 5f 5f             	add    BYTE PTR [edi+0x5f],bl
    1b3e:	47                   	inc    edi
    1b3f:	43                   	inc    ebx
    1b40:	43                   	inc    ebx
    1b41:	5f                   	pop    edi
    1b42:	41                   	inc    ecx
    1b43:	54                   	push   esp
    1b44:	4f                   	dec    edi
    1b45:	4d                   	dec    ebp
    1b46:	49                   	dec    ecx
    1b47:	43                   	inc    ebx
    1b48:	5f                   	pop    edi
    1b49:	4c                   	dec    esp
    1b4a:	4f                   	dec    edi
    1b4b:	4e                   	dec    esi
    1b4c:	47                   	inc    edi
    1b4d:	5f                   	pop    edi
    1b4e:	4c                   	dec    esp
    1b4f:	4f                   	dec    edi
    1b50:	43                   	inc    ebx
    1b51:	4b                   	dec    ebx
    1b52:	5f                   	pop    edi
    1b53:	46                   	inc    esi
    1b54:	52                   	push   edx
    1b55:	45                   	inc    ebp
    1b56:	45                   	inc    ebp
    1b57:	20 32                	and    BYTE PTR [edx],dh
    1b59:	00 5f 5f             	add    BYTE PTR [edi+0x5f],bl
    1b5c:	46                   	inc    esi
    1b5d:	4c                   	dec    esp
    1b5e:	54                   	push   esp
    1b5f:	33 32                	xor    esi,DWORD PTR [edx]
    1b61:	58                   	pop    eax
    1b62:	5f                   	pop    edi
    1b63:	44                   	inc    esp
    1b64:	49                   	dec    ecx
    1b65:	47                   	inc    edi
    1b66:	5f                   	pop    edi
    1b67:	5f                   	pop    edi
    1b68:	20 31                	and    BYTE PTR [ecx],dh
    1b6a:	35 00 55 49 4e       	xor    eax,0x4e495500
    1b6f:	54                   	push   esp
    1b70:	5f                   	pop    edi
    1b71:	46                   	inc    esi
    1b72:	41                   	inc    ecx
    1b73:	53                   	push   ebx
    1b74:	54                   	push   esp
    1b75:	31 36                	xor    DWORD PTR [esi],esi
    1b77:	5f                   	pop    edi
    1b78:	57                   	push   edi
    1b79:	49                   	dec    ecx
    1b7a:	44                   	inc    esp
    1b7b:	54                   	push   esp
    1b7c:	48                   	dec    eax
    1b7d:	20 5f 5f             	and    BYTE PTR [edi+0x5f],bl
    1b80:	49                   	dec    ecx
    1b81:	4e                   	dec    esi
    1b82:	54                   	push   esp
    1b83:	5f                   	pop    edi
    1b84:	46                   	inc    esi
    1b85:	41                   	inc    ecx
    1b86:	53                   	push   ebx
    1b87:	54                   	push   esp
    1b88:	31 36                	xor    DWORD PTR [esi],esi
    1b8a:	5f                   	pop    edi
    1b8b:	57                   	push   edi
    1b8c:	49                   	dec    ecx
    1b8d:	44                   	inc    esp
    1b8e:	54                   	push   esp
    1b8f:	48                   	dec    eax
    1b90:	5f                   	pop    edi
    1b91:	5f                   	pop    edi
    1b92:	00 5f 5f             	add    BYTE PTR [edi+0x5f],bl
    1b95:	46                   	inc    esi
    1b96:	4c                   	dec    esp
    1b97:	54                   	push   esp
    1b98:	33 32                	xor    esi,DWORD PTR [edx]
    1b9a:	58                   	pop    eax
    1b9b:	5f                   	pop    edi
    1b9c:	4d                   	dec    ebp
    1b9d:	41                   	inc    ecx
    1b9e:	4e                   	dec    esi
    1b9f:	54                   	push   esp
    1ba0:	5f                   	pop    edi
    1ba1:	44                   	inc    esp
    1ba2:	49                   	dec    ecx
    1ba3:	47                   	inc    edi
    1ba4:	5f                   	pop    edi
    1ba5:	5f                   	pop    edi
    1ba6:	20 35 33 00 55 49    	and    BYTE PTR ds:0x49550033,dh
    1bac:	4e                   	dec    esi
    1bad:	54                   	push   esp
    1bae:	5f                   	pop    edi
    1baf:	46                   	inc    esi
    1bb0:	41                   	inc    ecx
    1bb1:	53                   	push   ebx
    1bb2:	54                   	push   esp
    1bb3:	33 32                	xor    esi,DWORD PTR [edx]
    1bb5:	5f                   	pop    edi
    1bb6:	4d                   	dec    ebp
    1bb7:	41                   	inc    ecx
    1bb8:	58                   	pop    eax
    1bb9:	20 5f 5f             	and    BYTE PTR [edi+0x5f],bl
    1bbc:	55                   	push   ebp
    1bbd:	49                   	dec    ecx
    1bbe:	4e                   	dec    esi
    1bbf:	54                   	push   esp
    1bc0:	5f                   	pop    edi
    1bc1:	46                   	inc    esi
    1bc2:	41                   	inc    ecx
    1bc3:	53                   	push   ebx
    1bc4:	54                   	push   esp
    1bc5:	33 32                	xor    esi,DWORD PTR [edx]
    1bc7:	5f                   	pop    edi
    1bc8:	4d                   	dec    ebp
    1bc9:	41                   	inc    ecx
    1bca:	58                   	pop    eax
    1bcb:	5f                   	pop    edi
    1bcc:	5f                   	pop    edi
    1bcd:	00 55 49             	add    BYTE PTR [ebp+0x49],dl
    1bd0:	4e                   	dec    esi
    1bd1:	54                   	push   esp
    1bd2:	5f                   	pop    edi
    1bd3:	46                   	inc    esi
    1bd4:	41                   	inc    ecx
    1bd5:	53                   	push   ebx
    1bd6:	54                   	push   esp
    1bd7:	33 32                	xor    esi,DWORD PTR [edx]
    1bd9:	5f                   	pop    edi
    1bda:	57                   	push   edi
    1bdb:	49                   	dec    ecx
    1bdc:	44                   	inc    esp
    1bdd:	54                   	push   esp
    1bde:	48                   	dec    eax
    1bdf:	00 5f 5f             	add    BYTE PTR [edi+0x5f],bl
    1be2:	46                   	inc    esi
    1be3:	4c                   	dec    esp
    1be4:	54                   	push   esp
    1be5:	36 34 58             	ss xor al,0x58
    1be8:	5f                   	pop    edi
    1be9:	4d                   	dec    ebp
    1bea:	41                   	inc    ecx
    1beb:	58                   	pop    eax
    1bec:	5f                   	pop    edi
    1bed:	31 30                	xor    DWORD PTR [eax],esi
    1bef:	5f                   	pop    edi
    1bf0:	45                   	inc    ebp
    1bf1:	58                   	pop    eax
    1bf2:	50                   	push   eax
    1bf3:	5f                   	pop    edi
    1bf4:	5f                   	pop    edi
    1bf5:	20 34 39             	and    BYTE PTR [ecx+edi*1],dh
    1bf8:	33 32                	xor    esi,DWORD PTR [edx]
    1bfa:	00 57 43             	add    BYTE PTR [edi+0x43],dl
    1bfd:	48                   	dec    eax
    1bfe:	41                   	inc    ecx
    1bff:	52                   	push   edx
    1c00:	5f                   	pop    edi
    1c01:	4d                   	dec    ebp
    1c02:	49                   	dec    ecx
    1c03:	4e                   	dec    esi
    1c04:	00 5f 5f             	add    BYTE PTR [edi+0x5f],bl
    1c07:	44                   	inc    esp
    1c08:	42                   	inc    edx
    1c09:	4c                   	dec    esp
    1c0a:	5f                   	pop    edi
    1c0b:	4d                   	dec    ebp
    1c0c:	49                   	dec    ecx
    1c0d:	4e                   	dec    esi
    1c0e:	5f                   	pop    edi
    1c0f:	5f                   	pop    edi
    1c10:	20 28                	and    BYTE PTR [eax],ch
    1c12:	28 64 6f 75          	sub    BYTE PTR [edi+ebp*2+0x75],ah
    1c16:	62 6c 65 29          	bound  ebp,QWORD PTR [ebp+eiz*2+0x29]
    1c1a:	32 2e                	xor    ch,BYTE PTR [esi]
    1c1c:	32 32                	xor    dh,BYTE PTR [edx]
    1c1e:	35 30 37 33 38       	xor    eax,0x38333730
    1c23:	35 38 35 30 37       	xor    eax,0x37303538
    1c28:	32 30                	xor    dh,BYTE PTR [eax]
    1c2a:	31 33                	xor    DWORD PTR [ebx],esi
    1c2c:	38 33                	cmp    BYTE PTR [ebx],dh
    1c2e:	30 39                	xor    BYTE PTR [ecx],bh
    1c30:	30 32                	xor    BYTE PTR [edx],dh
    1c32:	33 32                	xor    esi,DWORD PTR [edx]
    1c34:	37                   	aaa
    1c35:	31 37                	xor    DWORD PTR [edi],esi
    1c37:	33 33                	xor    esi,DWORD PTR [ebx]
    1c39:	32 34 30             	xor    dh,BYTE PTR [eax+esi*1]
    1c3c:	34 30                	xor    al,0x30
    1c3e:	36 65 2d 33 30 38 4c 	ss gs sub eax,0x4c383033
    1c45:	29 00                	sub    DWORD PTR [eax],eax
    1c47:	5f                   	pop    edi
    1c48:	5f                   	pop    edi
    1c49:	49                   	dec    ecx
    1c4a:	4e                   	dec    esi
    1c4b:	54                   	push   esp
    1c4c:	50                   	push   eax
    1c4d:	54                   	push   esp
    1c4e:	52                   	push   edx
    1c4f:	5f                   	pop    edi
    1c50:	57                   	push   edi
    1c51:	49                   	dec    ecx
    1c52:	44                   	inc    esp
    1c53:	54                   	push   esp
    1c54:	48                   	dec    eax
    1c55:	5f                   	pop    edi
    1c56:	5f                   	pop    edi
    1c57:	20 33                	and    BYTE PTR [ebx],dh
    1c59:	32 00                	xor    al,BYTE PTR [eax]
    1c5b:	5f                   	pop    edi
    1c5c:	5f                   	pop    edi
    1c5d:	47                   	inc    edi
    1c5e:	43                   	inc    ebx
    1c5f:	43                   	inc    ebx
    1c60:	5f                   	pop    edi
    1c61:	41                   	inc    ecx
    1c62:	54                   	push   esp
    1c63:	4f                   	dec    edi
    1c64:	4d                   	dec    ebp
    1c65:	49                   	dec    ecx
    1c66:	43                   	inc    ebx
    1c67:	5f                   	pop    edi
    1c68:	42                   	inc    edx
    1c69:	4f                   	dec    edi
    1c6a:	4f                   	dec    edi
    1c6b:	4c                   	dec    esp
    1c6c:	5f                   	pop    edi
    1c6d:	4c                   	dec    esp
    1c6e:	4f                   	dec    edi
    1c6f:	43                   	inc    ebx
    1c70:	4b                   	dec    ebx
    1c71:	5f                   	pop    edi
    1c72:	46                   	inc    esi
    1c73:	52                   	push   edx
    1c74:	45                   	inc    ebp
    1c75:	45                   	inc    ebp
    1c76:	20 32                	and    BYTE PTR [edx],dh
    1c78:	00 5f 5f             	add    BYTE PTR [edi+0x5f],bl
    1c7b:	46                   	inc    esi
    1c7c:	49                   	dec    ecx
    1c7d:	4e                   	dec    esi
    1c7e:	49                   	dec    ecx
    1c7f:	54                   	push   esp
    1c80:	45                   	inc    ebp
    1c81:	5f                   	pop    edi
    1c82:	4d                   	dec    ebp
    1c83:	41                   	inc    ecx
    1c84:	54                   	push   esp
    1c85:	48                   	dec    eax
    1c86:	5f                   	pop    edi
    1c87:	4f                   	dec    edi
    1c88:	4e                   	dec    esi
    1c89:	4c                   	dec    esp
    1c8a:	59                   	pop    ecx
    1c8b:	5f                   	pop    edi
    1c8c:	5f                   	pop    edi
    1c8d:	20 30                	and    BYTE PTR [eax],dh
    1c8f:	00 5f 5f             	add    BYTE PTR [edi+0x5f],bl
    1c92:	46                   	inc    esi
    1c93:	4c                   	dec    esp
    1c94:	54                   	push   esp
    1c95:	36 34 5f             	ss xor al,0x5f
    1c98:	4d                   	dec    ebp
    1c99:	41                   	inc    ecx
    1c9a:	58                   	pop    eax
    1c9b:	5f                   	pop    edi
    1c9c:	5f                   	pop    edi
    1c9d:	20 31                	and    BYTE PTR [ecx],dh
    1c9f:	2e 37                	cs aaa
    1ca1:	39 37                	cmp    DWORD PTR [edi],esi
    1ca3:	36 39 33             	cmp    DWORD PTR ss:[ebx],esi
    1ca6:	31 33                	xor    DWORD PTR [ebx],esi
    1ca8:	34 38                	xor    al,0x38
    1caa:	36 32 33             	xor    dh,BYTE PTR ss:[ebx]
    1cad:	31 35 37 30 38 31    	xor    DWORD PTR ds:0x31383037,esi
    1cb3:	34 35                	xor    al,0x35
    1cb5:	32 37                	xor    dh,BYTE PTR [edi]
    1cb7:	34 32                	xor    al,0x32
    1cb9:	33 37                	xor    esi,DWORD PTR [edi]
    1cbb:	33 31                	xor    esi,DWORD PTR [ecx]
    1cbd:	37                   	aaa
    1cbe:	30 34 33             	xor    BYTE PTR [ebx+esi*1],dh
    1cc1:	35 37 65 2b 33       	xor    eax,0x332b6537
    1cc6:	30 38                	xor    BYTE PTR [eax],bh
    1cc8:	46                   	inc    esi
    1cc9:	36 34 00             	ss xor al,0x0
    1ccc:	49                   	dec    ecx
    1ccd:	4e                   	dec    esi
    1cce:	54                   	push   esp
    1ccf:	31 36                	xor    DWORD PTR [esi],esi
    1cd1:	5f                   	pop    edi
    1cd2:	4d                   	dec    ebp
    1cd3:	49                   	dec    ecx
    1cd4:	4e                   	dec    esi
    1cd5:	20 28                	and    BYTE PTR [eax],ch
    1cd7:	2d 49 4e 54 31       	sub    eax,0x31544e49
    1cdc:	36 5f                	ss pop edi
    1cde:	4d                   	dec    ebp
    1cdf:	41                   	inc    ecx
    1ce0:	58                   	pop    eax
    1ce1:	20 2d 20 31 29 00    	and    BYTE PTR ds:0x293120,ch
    1ce7:	49                   	dec    ecx
    1ce8:	4e                   	dec    esi
    1ce9:	54                   	push   esp
    1cea:	5f                   	pop    edi
    1ceb:	46                   	inc    esi
    1cec:	41                   	inc    ecx
    1ced:	53                   	push   ebx
    1cee:	54                   	push   esp
    1cef:	31 36                	xor    DWORD PTR [esi],esi
    1cf1:	5f                   	pop    edi
    1cf2:	4d                   	dec    ebp
    1cf3:	49                   	dec    ecx
    1cf4:	4e                   	dec    esi
    1cf5:	20 28                	and    BYTE PTR [eax],ch
    1cf7:	2d 49 4e 54 5f       	sub    eax,0x5f544e49
    1cfc:	46                   	inc    esi
    1cfd:	41                   	inc    ecx
    1cfe:	53                   	push   ebx
    1cff:	54                   	push   esp
    1d00:	31 36                	xor    DWORD PTR [esi],esi
    1d02:	5f                   	pop    edi
    1d03:	4d                   	dec    ebp
    1d04:	41                   	inc    ecx
    1d05:	58                   	pop    eax
    1d06:	20 2d 20 31 29 00    	and    BYTE PTR ds:0x293120,ch
    1d0c:	5f                   	pop    edi
    1d0d:	5f                   	pop    edi
    1d0e:	56                   	push   esi
    1d0f:	45                   	inc    ebp
    1d10:	52                   	push   edx
    1d11:	53                   	push   ebx
    1d12:	49                   	dec    ecx
    1d13:	4f                   	dec    edi
    1d14:	4e                   	dec    esi
    1d15:	5f                   	pop    edi
    1d16:	5f                   	pop    edi
    1d17:	20 22                	and    BYTE PTR [edx],ah
    1d19:	31 34 2e             	xor    DWORD PTR [esi+ebp*1],esi
    1d1c:	32 2e                	xor    ch,BYTE PTR [esi]
    1d1e:	31 20                	xor    DWORD PTR [eax],esp
    1d20:	32 30                	xor    dh,BYTE PTR [eax]
    1d22:	32 35 30 32 30 37    	xor    dh,BYTE PTR ds:0x37303230
    1d28:	22 00                	and    al,BYTE PTR [eax]
    1d2a:	49                   	dec    ecx
    1d2b:	4e                   	dec    esi
    1d2c:	54                   	push   esp
    1d2d:	5f                   	pop    edi
    1d2e:	4c                   	dec    esp
    1d2f:	45                   	inc    ebp
    1d30:	41                   	inc    ecx
    1d31:	53                   	push   ebx
    1d32:	54                   	push   esp
    1d33:	31 36                	xor    DWORD PTR [esi],esi
    1d35:	5f                   	pop    edi
    1d36:	4d                   	dec    ebp
    1d37:	49                   	dec    ecx
    1d38:	4e                   	dec    esi
    1d39:	20 28                	and    BYTE PTR [eax],ch
    1d3b:	2d 49 4e 54 5f       	sub    eax,0x5f544e49
    1d40:	4c                   	dec    esp
    1d41:	45                   	inc    ebp
    1d42:	41                   	inc    ecx
    1d43:	53                   	push   ebx
    1d44:	54                   	push   esp
    1d45:	31 36                	xor    DWORD PTR [esi],esi
    1d47:	5f                   	pop    edi
    1d48:	4d                   	dec    ebp
    1d49:	41                   	inc    ecx
    1d4a:	58                   	pop    eax
    1d4b:	20 2d 20 31 29 00    	and    BYTE PTR ds:0x293120,ch
    1d51:	5f                   	pop    edi
    1d52:	5f                   	pop    edi
    1d53:	47                   	inc    edi
    1d54:	43                   	inc    ebx
    1d55:	43                   	inc    ebx
    1d56:	5f                   	pop    edi
    1d57:	41                   	inc    ecx
    1d58:	53                   	push   ebx
    1d59:	4d                   	dec    ebp
    1d5a:	5f                   	pop    edi
    1d5b:	46                   	inc    esi
    1d5c:	4c                   	dec    esp
    1d5d:	41                   	inc    ecx
    1d5e:	47                   	inc    edi
    1d5f:	5f                   	pop    edi
    1d60:	4f                   	dec    edi
    1d61:	55                   	push   ebp
    1d62:	54                   	push   esp
    1d63:	50                   	push   eax
    1d64:	55                   	push   ebp
    1d65:	54                   	push   esp
    1d66:	53                   	push   ebx
    1d67:	5f                   	pop    edi
    1d68:	5f                   	pop    edi
    1d69:	20 31                	and    BYTE PTR [ecx],dh
    1d6b:	00 49 4e             	add    BYTE PTR [ecx+0x4e],cl
    1d6e:	54                   	push   esp
    1d6f:	5f                   	pop    edi
    1d70:	46                   	inc    esi
    1d71:	41                   	inc    ecx
    1d72:	53                   	push   ebx
    1d73:	54                   	push   esp
    1d74:	38 5f 4d             	cmp    BYTE PTR [edi+0x4d],bl
    1d77:	49                   	dec    ecx
    1d78:	4e                   	dec    esi
    1d79:	00 5f 5f             	add    BYTE PTR [edi+0x5f],bl
    1d7c:	44                   	inc    esp
    1d7d:	45                   	inc    ebp
    1d7e:	43                   	inc    ebx
    1d7f:	31 32                	xor    DWORD PTR [edx],esi
    1d81:	38 5f 4d             	cmp    BYTE PTR [edi+0x4d],bl
    1d84:	41                   	inc    ecx
    1d85:	58                   	pop    eax
    1d86:	5f                   	pop    edi
    1d87:	45                   	inc    ebp
    1d88:	58                   	pop    eax
    1d89:	50                   	push   eax
    1d8a:	5f                   	pop    edi
    1d8b:	5f                   	pop    edi
    1d8c:	20 36                	and    BYTE PTR [esi],dh
    1d8e:	31 34 35 00 5f 5f 45 	xor    DWORD PTR [esi*1+0x455f5f00],esi
    1d95:	4c                   	dec    esp
    1d96:	46                   	inc    esi
    1d97:	5f                   	pop    edi
    1d98:	5f                   	pop    edi
    1d99:	20 31                	and    BYTE PTR [ecx],dh
    1d9b:	00 5f 5f             	add    BYTE PTR [edi+0x5f],bl
    1d9e:	46                   	inc    esi
    1d9f:	4c                   	dec    esp
    1da0:	54                   	push   esp
    1da1:	33 32                	xor    esi,DWORD PTR [edx]
    1da3:	58                   	pop    eax
    1da4:	5f                   	pop    edi
    1da5:	4d                   	dec    ebp
    1da6:	49                   	dec    ecx
    1da7:	4e                   	dec    esi
    1da8:	5f                   	pop    edi
    1da9:	5f                   	pop    edi
    1daa:	20 32                	and    BYTE PTR [edx],dh
    1dac:	2e 32 32             	xor    dh,BYTE PTR cs:[edx]
    1daf:	35 30 37 33 38       	xor    eax,0x38333730
    1db4:	35 38 35 30 37       	xor    eax,0x37303538
    1db9:	32 30                	xor    dh,BYTE PTR [eax]
    1dbb:	31 33                	xor    DWORD PTR [ebx],esi
    1dbd:	38 33                	cmp    BYTE PTR [ebx],dh
    1dbf:	30 39                	xor    BYTE PTR [ecx],bh
    1dc1:	30 32                	xor    BYTE PTR [edx],dh
    1dc3:	33 32                	xor    esi,DWORD PTR [edx]
    1dc5:	37                   	aaa
    1dc6:	31 37                	xor    DWORD PTR [edi],esi
    1dc8:	33 33                	xor    esi,DWORD PTR [ebx]
    1dca:	32 34 30             	xor    dh,BYTE PTR [eax+esi*1]
    1dcd:	34 30                	xor    al,0x30
    1dcf:	36 65 2d 33 30 38 46 	ss gs sub eax,0x46383033
    1dd6:	33 32                	xor    esi,DWORD PTR [edx]
    1dd8:	78 00                	js     1dda <code-0x625b>
    1dda:	5f                   	pop    edi
    1ddb:	5f                   	pop    edi
    1ddc:	49                   	dec    ecx
    1ddd:	4e                   	dec    esi
    1dde:	54                   	push   esp
    1ddf:	31 36                	xor    DWORD PTR [esi],esi
    1de1:	5f                   	pop    edi
    1de2:	43                   	inc    ebx
    1de3:	28 63 29             	sub    BYTE PTR [ebx+0x29],ah
    1de6:	20 63 00             	and    BYTE PTR [ebx+0x0],ah
    1de9:	5f                   	pop    edi
    1dea:	5f                   	pop    edi
    1deb:	42                   	inc    edx
    1dec:	46                   	inc    esi
    1ded:	4c                   	dec    esp
    1dee:	54                   	push   esp
    1def:	31 36                	xor    DWORD PTR [esi],esi
    1df1:	5f                   	pop    edi
    1df2:	44                   	inc    esp
    1df3:	45                   	inc    ebp
    1df4:	4e                   	dec    esi
    1df5:	4f                   	dec    edi
    1df6:	52                   	push   edx
    1df7:	4d                   	dec    ebp
    1df8:	5f                   	pop    edi
    1df9:	4d                   	dec    ebp
    1dfa:	49                   	dec    ecx
    1dfb:	4e                   	dec    esi
    1dfc:	5f                   	pop    edi
    1dfd:	5f                   	pop    edi
    1dfe:	20 39                	and    BYTE PTR [ecx],bh
    1e00:	2e 31 38             	xor    DWORD PTR cs:[eax],edi
    1e03:	33 35 34 39 36 31    	xor    esi,DWORD PTR ds:0x31363934
    1e09:	35 37 39 39 31       	xor    eax,0x31393937
    1e0e:	32 31                	xor    dh,BYTE PTR [ecx]
    1e10:	31 35 36 30 30 35    	xor    DWORD PTR ds:0x35303036,esi
    1e16:	37                   	aaa
    1e17:	35 34 31 39 37       	xor    eax,0x37393134
    1e1c:	30 34 38             	xor    BYTE PTR [eax+edi*1],dh
    1e1f:	37                   	aaa
    1e20:	39 34 33             	cmp    DWORD PTR [ebx+esi*1],esi
    1e23:	36 65 2d 34 31 42 46 	ss gs sub eax,0x46423134
    1e2a:	31 36                	xor    DWORD PTR [esi],esi
    1e2c:	00 5f 5f             	add    BYTE PTR [edi+0x5f],bl
    1e2f:	55                   	push   ebp
    1e30:	49                   	dec    ecx
    1e31:	4e                   	dec    esi
    1e32:	54                   	push   esp
    1e33:	36 34 5f             	ss xor al,0x5f
    1e36:	4d                   	dec    ebp
    1e37:	41                   	inc    ecx
    1e38:	58                   	pop    eax
    1e39:	5f                   	pop    edi
    1e3a:	5f                   	pop    edi
    1e3b:	20 30                	and    BYTE PTR [eax],dh
    1e3d:	78 66                	js     1ea5 <code-0x6190>
    1e3f:	66 66 66 66 66 66 66 	data16 data16 data16 data16 data16 data16 data16 data16 data16 data16 data16 data16 data16 data16
    1e46:	66 66 66 66 66 66 66 
    1e4d:	66 55                	push   bp
    1e4f:	4c                   	dec    esp
    1e50:	4c                   	dec    esp
    1e51:	00 5f 5f             	add    BYTE PTR [edi+0x5f],bl
    1e54:	50                   	push   eax
    1e55:	54                   	push   esp
    1e56:	52                   	push   edx
    1e57:	44                   	inc    esp
    1e58:	49                   	dec    ecx
    1e59:	46                   	inc    esi
    1e5a:	46                   	inc    esi
    1e5b:	5f                   	pop    edi
    1e5c:	54                   	push   esp
    1e5d:	59                   	pop    ecx
    1e5e:	50                   	push   eax
    1e5f:	45                   	inc    ebp
    1e60:	5f                   	pop    edi
    1e61:	5f                   	pop    edi
    1e62:	20 69 6e             	and    BYTE PTR [ecx+0x6e],ch
    1e65:	74 00                	je     1e67 <code-0x61ce>
    1e67:	5f                   	pop    edi
    1e68:	5f                   	pop    edi
    1e69:	49                   	dec    ecx
    1e6a:	4e                   	dec    esi
    1e6b:	54                   	push   esp
    1e6c:	5f                   	pop    edi
    1e6d:	46                   	inc    esi
    1e6e:	41                   	inc    ecx
    1e6f:	53                   	push   ebx
    1e70:	54                   	push   esp
    1e71:	33 32                	xor    esi,DWORD PTR [edx]
    1e73:	5f                   	pop    edi
    1e74:	4d                   	dec    ebp
    1e75:	41                   	inc    ecx
    1e76:	58                   	pop    eax
    1e77:	5f                   	pop    edi
    1e78:	5f                   	pop    edi
    1e79:	20 30                	and    BYTE PTR [eax],dh
    1e7b:	78 37                	js     1eb4 <code-0x6181>
    1e7d:	66 66 66 66 66 66 66 	data16 data16 data16 data16 data16 data16 data16 add BYTE PTR [edi+0x5f],bl
    1e84:	00 5f 5f 
    1e87:	46                   	inc    esi
    1e88:	4c                   	dec    esp
    1e89:	54                   	push   esp
    1e8a:	36 34 58             	ss xor al,0x58
    1e8d:	5f                   	pop    edi
    1e8e:	48                   	dec    eax
    1e8f:	41                   	inc    ecx
    1e90:	53                   	push   ebx
    1e91:	5f                   	pop    edi
    1e92:	51                   	push   ecx
    1e93:	55                   	push   ebp
    1e94:	49                   	dec    ecx
    1e95:	45                   	inc    ebp
    1e96:	54                   	push   esp
    1e97:	5f                   	pop    edi
    1e98:	4e                   	dec    esi
    1e99:	41                   	inc    ecx
    1e9a:	4e                   	dec    esi
    1e9b:	5f                   	pop    edi
    1e9c:	5f                   	pop    edi
    1e9d:	20 31                	and    BYTE PTR [ecx],dh
    1e9f:	00 5f 5f             	add    BYTE PTR [edi+0x5f],bl
    1ea2:	46                   	inc    esi
    1ea3:	4c                   	dec    esp
    1ea4:	54                   	push   esp
    1ea5:	5f                   	pop    edi
    1ea6:	48                   	dec    eax
    1ea7:	41                   	inc    ecx
    1ea8:	53                   	push   ebx
    1ea9:	5f                   	pop    edi
    1eaa:	49                   	dec    ecx
    1eab:	4e                   	dec    esi
    1eac:	46                   	inc    esi
    1ead:	49                   	dec    ecx
    1eae:	4e                   	dec    esi
    1eaf:	49                   	dec    ecx
    1eb0:	54                   	push   esp
    1eb1:	59                   	pop    ecx
    1eb2:	5f                   	pop    edi
    1eb3:	5f                   	pop    edi
    1eb4:	20 31                	and    BYTE PTR [ecx],dh
    1eb6:	00 5f 5f             	add    BYTE PTR [edi+0x5f],bl
    1eb9:	53                   	push   ebx
    1eba:	53                   	push   ebx
    1ebb:	45                   	inc    ebp
    1ebc:	5f                   	pop    edi
    1ebd:	5f                   	pop    edi
    1ebe:	20 31                	and    BYTE PTR [ecx],dh
    1ec0:	00 5f 5f             	add    BYTE PTR [edi+0x5f],bl
    1ec3:	6b 38 20             	imul   edi,DWORD PTR [eax],0x20
    1ec6:	31 00                	xor    DWORD PTR [eax],eax
    1ec8:	5f                   	pop    edi
    1ec9:	5f                   	pop    edi
    1eca:	46                   	inc    esi
    1ecb:	4c                   	dec    esp
    1ecc:	54                   	push   esp
    1ecd:	31 36                	xor    DWORD PTR [esi],esi
    1ecf:	5f                   	pop    edi
    1ed0:	48                   	dec    eax
    1ed1:	41                   	inc    ecx
    1ed2:	53                   	push   ebx
    1ed3:	5f                   	pop    edi
    1ed4:	49                   	dec    ecx
    1ed5:	4e                   	dec    esi
    1ed6:	46                   	inc    esi
    1ed7:	49                   	dec    ecx
    1ed8:	4e                   	dec    esi
    1ed9:	49                   	dec    ecx
    1eda:	54                   	push   esp
    1edb:	59                   	pop    ecx
    1edc:	5f                   	pop    edi
    1edd:	5f                   	pop    edi
    1ede:	20 31                	and    BYTE PTR [ecx],dh
    1ee0:	00 55 49             	add    BYTE PTR [ebp+0x49],dl
    1ee3:	4e                   	dec    esi
    1ee4:	54                   	push   esp
    1ee5:	50                   	push   eax
    1ee6:	54                   	push   esp
    1ee7:	52                   	push   edx
    1ee8:	5f                   	pop    edi
    1ee9:	57                   	push   edi
    1eea:	49                   	dec    ecx
    1eeb:	44                   	inc    esp
    1eec:	54                   	push   esp
    1eed:	48                   	dec    eax
    1eee:	00 5f 5f             	add    BYTE PTR [edi+0x5f],bl
    1ef1:	53                   	push   ebx
    1ef2:	54                   	push   esp
    1ef3:	44                   	inc    esp
    1ef4:	43                   	inc    ebx
    1ef5:	5f                   	pop    edi
    1ef6:	5f                   	pop    edi
    1ef7:	20 31                	and    BYTE PTR [ecx],dh
    1ef9:	00 5f 5f             	add    BYTE PTR [edi+0x5f],bl
    1efc:	42                   	inc    edx
    1efd:	49                   	dec    ecx
    1efe:	54                   	push   esp
    1eff:	49                   	dec    ecx
    1f00:	4e                   	dec    esi
    1f01:	54                   	push   esp
    1f02:	5f                   	pop    edi
    1f03:	4d                   	dec    ebp
    1f04:	41                   	inc    ecx
    1f05:	58                   	pop    eax
    1f06:	57                   	push   edi
    1f07:	49                   	dec    ecx
    1f08:	44                   	inc    esp
    1f09:	54                   	push   esp
    1f0a:	48                   	dec    eax
    1f0b:	5f                   	pop    edi
    1f0c:	5f                   	pop    edi
    1f0d:	20 36                	and    BYTE PTR [esi],dh
    1f0f:	35 35 33 35 00       	xor    eax,0x353335
    1f14:	5f                   	pop    edi
    1f15:	5f                   	pop    edi
    1f16:	53                   	push   ebx
    1f17:	49                   	dec    ecx
    1f18:	5a                   	pop    edx
    1f19:	45                   	inc    ebp
    1f1a:	4f                   	dec    edi
    1f1b:	46                   	inc    esi
    1f1c:	5f                   	pop    edi
    1f1d:	4c                   	dec    esp
    1f1e:	4f                   	dec    edi
    1f1f:	4e                   	dec    esi
    1f20:	47                   	inc    edi
    1f21:	5f                   	pop    edi
    1f22:	5f                   	pop    edi
    1f23:	20 34 00             	and    BYTE PTR [eax+eax*1],dh
    1f26:	5f                   	pop    edi
    1f27:	5f                   	pop    edi
    1f28:	44                   	inc    esp
    1f29:	42                   	inc    edx
    1f2a:	4c                   	dec    esp
    1f2b:	5f                   	pop    edi
    1f2c:	4d                   	dec    ebp
    1f2d:	41                   	inc    ecx
    1f2e:	58                   	pop    eax
    1f2f:	5f                   	pop    edi
    1f30:	45                   	inc    ebp
    1f31:	58                   	pop    eax
    1f32:	50                   	push   eax
    1f33:	5f                   	pop    edi
    1f34:	5f                   	pop    edi
    1f35:	20 31                	and    BYTE PTR [ecx],dh
    1f37:	30 32                	xor    BYTE PTR [edx],dh
    1f39:	34 00                	xor    al,0x0
    1f3b:	5f                   	pop    edi
    1f3c:	5f                   	pop    edi
    1f3d:	41                   	inc    ecx
    1f3e:	54                   	push   esp
    1f3f:	4f                   	dec    edi
    1f40:	4d                   	dec    ebp
    1f41:	49                   	dec    ecx
    1f42:	43                   	inc    ebx
    1f43:	5f                   	pop    edi
    1f44:	43                   	inc    ebx
    1f45:	4f                   	dec    edi
    1f46:	4e                   	dec    esi
    1f47:	53                   	push   ebx
    1f48:	55                   	push   ebp
    1f49:	4d                   	dec    ebp
    1f4a:	45                   	inc    ebp
    1f4b:	20 31                	and    BYTE PTR [ecx],dh
    1f4d:	00 5f 5f             	add    BYTE PTR [edi+0x5f],bl
    1f50:	42                   	inc    edx
    1f51:	46                   	inc    esi
    1f52:	4c                   	dec    esp
    1f53:	54                   	push   esp
    1f54:	31 36                	xor    DWORD PTR [esi],esi
    1f56:	5f                   	pop    edi
    1f57:	45                   	inc    ebp
    1f58:	50                   	push   eax
    1f59:	53                   	push   ebx
    1f5a:	49                   	dec    ecx
    1f5b:	4c                   	dec    esp
    1f5c:	4f                   	dec    edi
    1f5d:	4e                   	dec    esi
    1f5e:	5f                   	pop    edi
    1f5f:	5f                   	pop    edi
    1f60:	20 37                	and    BYTE PTR [edi],dh
    1f62:	2e 38 31             	cmp    BYTE PTR cs:[ecx],dh
    1f65:	32 35 30 30 30 30    	xor    dh,BYTE PTR ds:0x30303030
    1f6b:	30 30                	xor    BYTE PTR [eax],dh
    1f6d:	30 30                	xor    BYTE PTR [eax],dh
    1f6f:	30 30                	xor    BYTE PTR [eax],dh
    1f71:	30 30                	xor    BYTE PTR [eax],dh
    1f73:	30 30                	xor    BYTE PTR [eax],dh
    1f75:	30 30                	xor    BYTE PTR [eax],dh
    1f77:	30 30                	xor    BYTE PTR [eax],dh
    1f79:	30 30                	xor    BYTE PTR [eax],dh
    1f7b:	30 30                	xor    BYTE PTR [eax],dh
    1f7d:	30 30                	xor    BYTE PTR [eax],dh
    1f7f:	30 30                	xor    BYTE PTR [eax],dh
    1f81:	30 30                	xor    BYTE PTR [eax],dh
    1f83:	30 30                	xor    BYTE PTR [eax],dh
    1f85:	30 65 2d             	xor    BYTE PTR [ebp+0x2d],ah
    1f88:	33 42 46             	xor    eax,DWORD PTR [edx+0x46]
    1f8b:	31 36                	xor    DWORD PTR [esi],esi
    1f8d:	00 5f 5f             	add    BYTE PTR [edi+0x5f],bl
    1f90:	49                   	dec    ecx
    1f91:	4e                   	dec    esi
    1f92:	54                   	push   esp
    1f93:	5f                   	pop    edi
    1f94:	46                   	inc    esi
    1f95:	41                   	inc    ecx
    1f96:	53                   	push   ebx
    1f97:	54                   	push   esp
    1f98:	33 32                	xor    esi,DWORD PTR [edx]
    1f9a:	5f                   	pop    edi
    1f9b:	57                   	push   edi
    1f9c:	49                   	dec    ecx
    1f9d:	44                   	inc    esp
    1f9e:	54                   	push   esp
    1f9f:	48                   	dec    eax
    1fa0:	5f                   	pop    edi
    1fa1:	5f                   	pop    edi
    1fa2:	20 33                	and    BYTE PTR [ebx],dh
    1fa4:	32 00                	xor    al,BYTE PTR [eax]
    1fa6:	55                   	push   ebp
    1fa7:	49                   	dec    ecx
    1fa8:	4e                   	dec    esi
    1fa9:	54                   	push   esp
    1faa:	50                   	push   eax
    1fab:	54                   	push   esp
    1fac:	52                   	push   edx
    1fad:	5f                   	pop    edi
    1fae:	4d                   	dec    ebp
    1faf:	41                   	inc    ecx
    1fb0:	58                   	pop    eax
    1fb1:	20 5f 5f             	and    BYTE PTR [edi+0x5f],bl
    1fb4:	55                   	push   ebp
    1fb5:	49                   	dec    ecx
    1fb6:	4e                   	dec    esi
    1fb7:	54                   	push   esp
    1fb8:	50                   	push   eax
    1fb9:	54                   	push   esp
    1fba:	52                   	push   edx
    1fbb:	5f                   	pop    edi
    1fbc:	4d                   	dec    ebp
    1fbd:	41                   	inc    ecx
    1fbe:	58                   	pop    eax
    1fbf:	5f                   	pop    edi
    1fc0:	5f                   	pop    edi
    1fc1:	00 55 49             	add    BYTE PTR [ebp+0x49],dl
    1fc4:	4e                   	dec    esi
    1fc5:	54                   	push   esp
    1fc6:	5f                   	pop    edi
    1fc7:	46                   	inc    esi
    1fc8:	41                   	inc    ecx
    1fc9:	53                   	push   ebx
    1fca:	54                   	push   esp
    1fcb:	31 36                	xor    DWORD PTR [esi],esi
    1fcd:	5f                   	pop    edi
    1fce:	57                   	push   edi
    1fcf:	49                   	dec    ecx
    1fd0:	44                   	inc    esp
    1fd1:	54                   	push   esp
    1fd2:	48                   	dec    eax
    1fd3:	00 5f 5f             	add    BYTE PTR [edi+0x5f],bl
    1fd6:	57                   	push   edi
    1fd7:	49                   	dec    ecx
    1fd8:	4e                   	dec    esi
    1fd9:	54                   	push   esp
    1fda:	5f                   	pop    edi
    1fdb:	54                   	push   esp
    1fdc:	59                   	pop    ecx
    1fdd:	50                   	push   eax
    1fde:	45                   	inc    ebp
    1fdf:	5f                   	pop    edi
    1fe0:	5f                   	pop    edi
    1fe1:	20 75 6e             	and    BYTE PTR [ebp+0x6e],dh
    1fe4:	73 69                	jae    204f <code-0x5fe6>
    1fe6:	67 6e                	outs   dx,BYTE PTR ds:[si]
    1fe8:	65 64 20 69 6e       	gs and BYTE PTR fs:[ecx+0x6e],ch
    1fed:	74 00                	je     1fef <code-0x6046>
    1fef:	5f                   	pop    edi
    1ff0:	5f                   	pop    edi
    1ff1:	4c                   	dec    esp
    1ff2:	4f                   	dec    edi
    1ff3:	4e                   	dec    esi
    1ff4:	47                   	inc    edi
    1ff5:	5f                   	pop    edi
    1ff6:	4d                   	dec    ebp
    1ff7:	41                   	inc    ecx
    1ff8:	58                   	pop    eax
    1ff9:	5f                   	pop    edi
    1ffa:	5f                   	pop    edi
    1ffb:	20 30                	and    BYTE PTR [eax],dh
    1ffd:	78 37                	js     2036 <code-0x5fff>
    1fff:	66 66 66 66 66 66 66 	data16 data16 data16 data16 data16 data16 dec sp
    2006:	4c 
    2007:	00 5f 5f             	add    BYTE PTR [edi+0x5f],bl
    200a:	49                   	dec    ecx
    200b:	4e                   	dec    esi
    200c:	54                   	push   esp
    200d:	31 36                	xor    DWORD PTR [esi],esi
    200f:	5f                   	pop    edi
    2010:	4d                   	dec    ebp
    2011:	41                   	inc    ecx
    2012:	58                   	pop    eax
    2013:	5f                   	pop    edi
    2014:	5f                   	pop    edi
    2015:	20 30                	and    BYTE PTR [eax],dh
    2017:	78 37                	js     2050 <code-0x5fe5>
    2019:	66 66 66 00 5f 5f    	data16 data16 data16 add BYTE PTR [edi+0x5f],bl
    201f:	53                   	push   ebx
    2020:	43                   	inc    ebx
    2021:	48                   	dec    eax
    2022:	41                   	inc    ecx
    2023:	52                   	push   edx
    2024:	5f                   	pop    edi
    2025:	57                   	push   edi
    2026:	49                   	dec    ecx
    2027:	44                   	inc    esp
    2028:	54                   	push   esp
    2029:	48                   	dec    eax
    202a:	5f                   	pop    edi
    202b:	5f                   	pop    edi
    202c:	20 38                	and    BYTE PTR [eax],bh
    202e:	00 5f 5f             	add    BYTE PTR [edi+0x5f],bl
    2031:	55                   	push   ebp
    2032:	49                   	dec    ecx
    2033:	4e                   	dec    esi
    2034:	54                   	push   esp
    2035:	33 32                	xor    esi,DWORD PTR [edx]
    2037:	5f                   	pop    edi
    2038:	43                   	inc    ebx
    2039:	28 63 29             	sub    BYTE PTR [ebx+0x29],ah
    203c:	20 63 20             	and    BYTE PTR [ebx+0x20],ah
    203f:	23 23                	and    esp,DWORD PTR [ebx]
    2041:	20 55 00             	and    BYTE PTR [ebp+0x0],dl
    2044:	5f                   	pop    edi
    2045:	5f                   	pop    edi
    2046:	4c                   	dec    esp
    2047:	44                   	inc    esp
    2048:	42                   	inc    edx
    2049:	4c                   	dec    esp
    204a:	5f                   	pop    edi
    204b:	4d                   	dec    ebp
    204c:	49                   	dec    ecx
    204d:	4e                   	dec    esi
    204e:	5f                   	pop    edi
    204f:	31 30                	xor    DWORD PTR [eax],esi
    2051:	5f                   	pop    edi
    2052:	45                   	inc    ebp
    2053:	58                   	pop    eax
    2054:	50                   	push   eax
    2055:	5f                   	pop    edi
    2056:	5f                   	pop    edi
    2057:	20 28                	and    BYTE PTR [eax],ch
    2059:	2d 34 39 33 31       	sub    eax,0x31333934
    205e:	29 00                	sub    DWORD PTR [eax],eax
    2060:	5f                   	pop    edi
    2061:	5f                   	pop    edi
    2062:	42                   	inc    edx
    2063:	46                   	inc    esi
    2064:	4c                   	dec    esp
    2065:	54                   	push   esp
    2066:	31 36                	xor    DWORD PTR [esi],esi
    2068:	5f                   	pop    edi
    2069:	4e                   	dec    esi
    206a:	4f                   	dec    edi
    206b:	52                   	push   edx
    206c:	4d                   	dec    ebp
    206d:	5f                   	pop    edi
    206e:	4d                   	dec    ebp
    206f:	41                   	inc    ecx
    2070:	58                   	pop    eax
    2071:	5f                   	pop    edi
    2072:	5f                   	pop    edi
    2073:	20 33                	and    BYTE PTR [ebx],dh
    2075:	2e 33 38             	xor    edi,DWORD PTR cs:[eax]
    2078:	39 35 33 31 33 38    	cmp    DWORD PTR ds:0x38333133,esi
    207e:	39 32                	cmp    DWORD PTR [edx],esi
    2080:	35 31 35 33 35       	xor    eax,0x35333531
    2085:	34 37                	xor    al,0x37
    2087:	35 39 30 34 37       	xor    eax,0x37343039
    208c:	30 38                	xor    BYTE PTR [eax],bh
    208e:	30 30                	xor    BYTE PTR [eax],dh
    2090:	33 37                	xor    esi,DWORD PTR [edi]
    2092:	31 34 38             	xor    DWORD PTR [eax+edi*1],esi
    2095:	37                   	aaa
    2096:	38 36                	cmp    BYTE PTR [esi],dh
    2098:	37                   	aaa
    2099:	65 2b 33             	sub    esi,DWORD PTR gs:[ebx]
    209c:	38 42 46             	cmp    BYTE PTR [edx+0x46],al
    209f:	31 36                	xor    DWORD PTR [esi],esi
    20a1:	00 5f 5f             	add    BYTE PTR [edi+0x5f],bl
    20a4:	53                   	push   ebx
    20a5:	49                   	dec    ecx
    20a6:	5a                   	pop    edx
    20a7:	45                   	inc    ebp
    20a8:	4f                   	dec    edi
    20a9:	46                   	inc    esi
    20aa:	5f                   	pop    edi
    20ab:	44                   	inc    esp
    20ac:	4f                   	dec    edi
    20ad:	55                   	push   ebp
    20ae:	42                   	inc    edx
    20af:	4c                   	dec    esp
    20b0:	45                   	inc    ebp
    20b1:	5f                   	pop    edi
    20b2:	5f                   	pop    edi
    20b3:	20 38                	and    BYTE PTR [eax],bh
    20b5:	00 5f 5f             	add    BYTE PTR [edi+0x5f],bl
    20b8:	47                   	inc    edi
    20b9:	4e                   	dec    esi
    20ba:	55                   	push   ebp
    20bb:	43                   	inc    ebx
    20bc:	5f                   	pop    edi
    20bd:	50                   	push   eax
    20be:	41                   	inc    ecx
    20bf:	54                   	push   esp
    20c0:	43                   	inc    ebx
    20c1:	48                   	dec    eax
    20c2:	4c                   	dec    esp
    20c3:	45                   	inc    ebp
    20c4:	56                   	push   esi
    20c5:	45                   	inc    ebp
    20c6:	4c                   	dec    esp
    20c7:	5f                   	pop    edi
    20c8:	5f                   	pop    edi
    20c9:	20 31                	and    BYTE PTR [ecx],dh
    20cb:	00 55 49             	add    BYTE PTR [ebp+0x49],dl
    20ce:	4e                   	dec    esi
    20cf:	54                   	push   esp
    20d0:	5f                   	pop    edi
    20d1:	4c                   	dec    esp
    20d2:	45                   	inc    ebp
    20d3:	41                   	inc    ecx
    20d4:	53                   	push   ebx
    20d5:	54                   	push   esp
    20d6:	36 34 5f             	ss xor al,0x5f
    20d9:	4d                   	dec    ebp
    20da:	41                   	inc    ecx
    20db:	58                   	pop    eax
    20dc:	20 5f 5f             	and    BYTE PTR [edi+0x5f],bl
    20df:	55                   	push   ebp
    20e0:	49                   	dec    ecx
    20e1:	4e                   	dec    esi
    20e2:	54                   	push   esp
    20e3:	5f                   	pop    edi
    20e4:	4c                   	dec    esp
    20e5:	45                   	inc    ebp
    20e6:	41                   	inc    ecx
    20e7:	53                   	push   ebx
    20e8:	54                   	push   esp
    20e9:	36 34 5f             	ss xor al,0x5f
    20ec:	4d                   	dec    ebp
    20ed:	41                   	inc    ecx
    20ee:	58                   	pop    eax
    20ef:	5f                   	pop    edi
    20f0:	5f                   	pop    edi
    20f1:	00 5f 5f             	add    BYTE PTR [edi+0x5f],bl
    20f4:	46                   	inc    esi
    20f5:	4c                   	dec    esp
    20f6:	54                   	push   esp
    20f7:	31 36                	xor    DWORD PTR [esi],esi
    20f9:	5f                   	pop    edi
    20fa:	44                   	inc    esp
    20fb:	45                   	inc    ebp
    20fc:	43                   	inc    ebx
    20fd:	49                   	dec    ecx
    20fe:	4d                   	dec    ebp
    20ff:	41                   	inc    ecx
    2100:	4c                   	dec    esp
    2101:	5f                   	pop    edi
    2102:	44                   	inc    esp
    2103:	49                   	dec    ecx
    2104:	47                   	inc    edi
    2105:	5f                   	pop    edi
    2106:	5f                   	pop    edi
    2107:	20 35 00 5f 5f 57    	and    BYTE PTR ds:0x575f5f00,dh
    210d:	49                   	dec    ecx
    210e:	4e                   	dec    esi
    210f:	54                   	push   esp
    2110:	5f                   	pop    edi
    2111:	4d                   	dec    ebp
    2112:	49                   	dec    ecx
    2113:	4e                   	dec    esi
    2114:	5f                   	pop    edi
    2115:	5f                   	pop    edi
    2116:	20 30                	and    BYTE PTR [eax],dh
    2118:	55                   	push   ebp
    2119:	00 5f 5f             	add    BYTE PTR [edi+0x5f],bl
    211c:	4c                   	dec    esp
    211d:	44                   	inc    esp
    211e:	42                   	inc    edx
    211f:	4c                   	dec    esp
    2120:	5f                   	pop    edi
    2121:	4d                   	dec    ebp
    2122:	41                   	inc    ecx
    2123:	4e                   	dec    esi
    2124:	54                   	push   esp
    2125:	5f                   	pop    edi
    2126:	44                   	inc    esp
    2127:	49                   	dec    ecx
    2128:	47                   	inc    edi
    2129:	5f                   	pop    edi
    212a:	5f                   	pop    edi
    212b:	20 36                	and    BYTE PTR [esi],dh
    212d:	34 00                	xor    al,0x0
    212f:	5f                   	pop    edi
    2130:	5f                   	pop    edi
    2131:	46                   	inc    esi
    2132:	4c                   	dec    esp
    2133:	54                   	push   esp
    2134:	33 32                	xor    esi,DWORD PTR [edx]
    2136:	5f                   	pop    edi
    2137:	49                   	dec    ecx
    2138:	53                   	push   ebx
    2139:	5f                   	pop    edi
    213a:	49                   	dec    ecx
    213b:	45                   	inc    ebp
    213c:	43                   	inc    ebx
    213d:	5f                   	pop    edi
    213e:	36 30 35 35 39 5f 5f 	xor    BYTE PTR ss:0x5f5f3935,dh
    2145:	20 31                	and    BYTE PTR [ecx],dh
    2147:	00 49 4e             	add    BYTE PTR [ecx+0x4e],cl
    214a:	54                   	push   esp
    214b:	5f                   	pop    edi
    214c:	46                   	inc    esi
    214d:	41                   	inc    ecx
    214e:	53                   	push   ebx
    214f:	54                   	push   esp
    2150:	33 32                	xor    esi,DWORD PTR [edx]
    2152:	5f                   	pop    edi
    2153:	4d                   	dec    ebp
    2154:	49                   	dec    ecx
    2155:	4e                   	dec    esi
    2156:	00 5f 5f             	add    BYTE PTR [edi+0x5f],bl
    2159:	46                   	inc    esi
    215a:	4c                   	dec    esp
    215b:	54                   	push   esp
    215c:	5f                   	pop    edi
    215d:	4e                   	dec    esi
    215e:	4f                   	dec    edi
    215f:	52                   	push   edx
    2160:	4d                   	dec    ebp
    2161:	5f                   	pop    edi
    2162:	4d                   	dec    ebp
    2163:	41                   	inc    ecx
    2164:	58                   	pop    eax
    2165:	5f                   	pop    edi
    2166:	5f                   	pop    edi
    2167:	20 33                	and    BYTE PTR [ebx],dh
    2169:	2e 34 30             	cs xor al,0x30
    216c:	32 38                	xor    bh,BYTE PTR [eax]
    216e:	32 33                	xor    dh,BYTE PTR [ebx]
    2170:	34 36                	xor    al,0x36
    2172:	36 33 38             	xor    edi,DWORD PTR ss:[eax]
    2175:	35 32 38 38 35       	xor    eax,0x35383832
    217a:	39 38                	cmp    DWORD PTR [eax],edi
    217c:	31 31                	xor    DWORD PTR [ecx],esi
    217e:	37                   	aaa
    217f:	30 34 31             	xor    BYTE PTR [ecx+esi*1],dh
    2182:	38 33                	cmp    BYTE PTR [ebx],dh
    2184:	34 38                	xor    al,0x38
    2186:	34 35                	xor    al,0x35
    2188:	31 36                	xor    DWORD PTR [esi],esi
    218a:	39 32                	cmp    DWORD PTR [edx],esi
    218c:	35 65 2b 33 38       	xor    eax,0x38332b65
    2191:	46                   	inc    esi
    2192:	00 5f 5f             	add    BYTE PTR [edi+0x5f],bl
    2195:	53                   	push   ebx
    2196:	54                   	push   esp
    2197:	44                   	inc    esp
    2198:	43                   	inc    ebx
    2199:	5f                   	pop    edi
    219a:	55                   	push   ebp
    219b:	54                   	push   esp
    219c:	46                   	inc    esi
    219d:	5f                   	pop    edi
    219e:	31 36                	xor    DWORD PTR [esi],esi
    21a0:	5f                   	pop    edi
    21a1:	5f                   	pop    edi
    21a2:	20 31                	and    BYTE PTR [ecx],dh
    21a4:	00 5f 5f             	add    BYTE PTR [edi+0x5f],bl
    21a7:	4c                   	dec    esp
    21a8:	44                   	inc    esp
    21a9:	42                   	inc    edx
    21aa:	4c                   	dec    esp
    21ab:	5f                   	pop    edi
    21ac:	45                   	inc    ebp
    21ad:	50                   	push   eax
    21ae:	53                   	push   ebx
    21af:	49                   	dec    ecx
    21b0:	4c                   	dec    esp
    21b1:	4f                   	dec    edi
    21b2:	4e                   	dec    esi
    21b3:	5f                   	pop    edi
    21b4:	5f                   	pop    edi
    21b5:	20 31                	and    BYTE PTR [ecx],dh
    21b7:	2e 30 38             	xor    BYTE PTR cs:[eax],bh
    21ba:	34 32                	xor    al,0x32
    21bc:	30 32                	xor    BYTE PTR [edx],dh
    21be:	31 37                	xor    DWORD PTR [edi],esi
    21c0:	32 34 38             	xor    dh,BYTE PTR [eax+edi*1]
    21c3:	35 35 30 34 34       	xor    eax,0x34343035
    21c8:	33 34 30             	xor    esi,DWORD PTR [eax+esi*1]
    21cb:	30 37                	xor    BYTE PTR [edi],dh
    21cd:	34 35                	xor    al,0x35
    21cf:	32 38                	xor    bh,BYTE PTR [eax]
    21d1:	30 30                	xor    BYTE PTR [eax],dh
    21d3:	38 36                	cmp    BYTE PTR [esi],dh
    21d5:	39 39                	cmp    DWORD PTR [ecx],edi
    21d7:	34 31                	xor    al,0x31
    21d9:	37                   	aaa
    21da:	31 65 2d             	xor    DWORD PTR [ebp+0x2d],esp
    21dd:	31 39                	xor    DWORD PTR [ecx],edi
    21df:	4c                   	dec    esp
    21e0:	00 49 4e             	add    BYTE PTR [ecx+0x4e],cl
    21e3:	54                   	push   esp
    21e4:	36 34 5f             	ss xor al,0x5f
    21e7:	4d                   	dec    ebp
    21e8:	41                   	inc    ecx
    21e9:	58                   	pop    eax
    21ea:	20 5f 5f             	and    BYTE PTR [edi+0x5f],bl
    21ed:	49                   	dec    ecx
    21ee:	4e                   	dec    esi
    21ef:	54                   	push   esp
    21f0:	36 34 5f             	ss xor al,0x5f
    21f3:	4d                   	dec    ebp
    21f4:	41                   	inc    ecx
    21f5:	58                   	pop    eax
    21f6:	5f                   	pop    edi
    21f7:	5f                   	pop    edi
    21f8:	00 55 49             	add    BYTE PTR [ebp+0x49],dl
    21fb:	4e                   	dec    esi
    21fc:	54                   	push   esp
    21fd:	5f                   	pop    edi
    21fe:	46                   	inc    esi
    21ff:	41                   	inc    ecx
    2200:	53                   	push   ebx
    2201:	54                   	push   esp
    2202:	33 32                	xor    esi,DWORD PTR [edx]
    2204:	5f                   	pop    edi
    2205:	4d                   	dec    ebp
    2206:	41                   	inc    ecx
    2207:	58                   	pop    eax
    2208:	00 55 49             	add    BYTE PTR [ebp+0x49],dl
    220b:	4e                   	dec    esi
    220c:	54                   	push   esp
    220d:	33 32                	xor    esi,DWORD PTR [edx]
    220f:	5f                   	pop    edi
    2210:	43                   	inc    ebx
    2211:	28 63 29             	sub    BYTE PTR [ebx+0x29],ah
    2214:	20 5f 5f             	and    BYTE PTR [edi+0x5f],bl
    2217:	55                   	push   ebp
    2218:	49                   	dec    ecx
    2219:	4e                   	dec    esi
    221a:	54                   	push   esp
    221b:	33 32                	xor    esi,DWORD PTR [edx]
    221d:	5f                   	pop    edi
    221e:	43                   	inc    ebx
    221f:	28 63 29             	sub    BYTE PTR [ebx+0x29],ah
    2222:	00 49 4e             	add    BYTE PTR [ecx+0x4e],cl
    2225:	54                   	push   esp
    2226:	5f                   	pop    edi
    2227:	4c                   	dec    esp
    2228:	45                   	inc    ebp
    2229:	41                   	inc    ecx
    222a:	53                   	push   ebx
    222b:	54                   	push   esp
    222c:	33 32                	xor    esi,DWORD PTR [edx]
    222e:	5f                   	pop    edi
    222f:	4d                   	dec    ebp
    2230:	49                   	dec    ecx
    2231:	4e                   	dec    esi
    2232:	00 69 64             	add    BYTE PTR [ecx+0x64],ch
    2235:	74 5f                	je     2296 <code-0x5d9f>
    2237:	65 6e                	outs   dx,BYTE PTR gs:[esi]
    2239:	74 72                	je     22ad <code-0x5d88>
    223b:	79 00                	jns    223d <code-0x5df8>
    223d:	5f                   	pop    edi
    223e:	5f                   	pop    edi
    223f:	4c                   	dec    esp
    2240:	44                   	inc    esp
    2241:	42                   	inc    edx
    2242:	4c                   	dec    esp
    2243:	5f                   	pop    edi
    2244:	48                   	dec    eax
    2245:	41                   	inc    ecx
    2246:	53                   	push   ebx
    2247:	5f                   	pop    edi
    2248:	49                   	dec    ecx
    2249:	4e                   	dec    esi
    224a:	46                   	inc    esi
    224b:	49                   	dec    ecx
    224c:	4e                   	dec    esi
    224d:	49                   	dec    ecx
    224e:	54                   	push   esp
    224f:	59                   	pop    ecx
    2250:	5f                   	pop    edi
    2251:	5f                   	pop    edi
    2252:	20 31                	and    BYTE PTR [ecx],dh
    2254:	00 5f 5f             	add    BYTE PTR [edi+0x5f],bl
    2257:	55                   	push   ebp
    2258:	49                   	dec    ecx
    2259:	4e                   	dec    esi
    225a:	54                   	push   esp
    225b:	5f                   	pop    edi
    225c:	46                   	inc    esi
    225d:	41                   	inc    ecx
    225e:	53                   	push   ebx
    225f:	54                   	push   esp
    2260:	36 34 5f             	ss xor al,0x5f
    2263:	54                   	push   esp
    2264:	59                   	pop    ecx
    2265:	50                   	push   eax
    2266:	45                   	inc    ebp
    2267:	5f                   	pop    edi
    2268:	5f                   	pop    edi
    2269:	20 6c 6f 6e          	and    BYTE PTR [edi+ebp*2+0x6e],ch
    226d:	67 20 6c 6f          	and    BYTE PTR [si+0x6f],ch
    2271:	6e                   	outs   dx,BYTE PTR ds:[esi]
    2272:	67 20 75 6e          	and    BYTE PTR [di+0x6e],dh
    2276:	73 69                	jae    22e1 <code-0x5d54>
    2278:	67 6e                	outs   dx,BYTE PTR ds:[si]
    227a:	65 64 20 69 6e       	gs and BYTE PTR fs:[ecx+0x6e],ch
    227f:	74 00                	je     2281 <code-0x5db4>
    2281:	5f                   	pop    edi
    2282:	5f                   	pop    edi
    2283:	47                   	inc    edi
    2284:	43                   	inc    ebx
    2285:	43                   	inc    ebx
    2286:	5f                   	pop    edi
    2287:	49                   	dec    ecx
    2288:	45                   	inc    ebp
    2289:	43                   	inc    ebx
    228a:	5f                   	pop    edi
    228b:	35 35 39 5f 43       	xor    eax,0x435f3935
    2290:	4f                   	dec    edi
    2291:	4d                   	dec    ebp
    2292:	50                   	push   eax
    2293:	4c                   	dec    esp
    2294:	45                   	inc    ebp
    2295:	58                   	pop    eax
    2296:	20 32                	and    BYTE PTR [edx],dh
    2298:	00 55 49             	add    BYTE PTR [ebp+0x49],dl
    229b:	4e                   	dec    esi
    229c:	54                   	push   esp
    229d:	5f                   	pop    edi
    229e:	46                   	inc    esi
    229f:	41                   	inc    ecx
    22a0:	53                   	push   ebx
    22a1:	54                   	push   esp
    22a2:	36 34 5f             	ss xor al,0x5f
    22a5:	57                   	push   edi
    22a6:	49                   	dec    ecx
    22a7:	44                   	inc    esp
    22a8:	54                   	push   esp
    22a9:	48                   	dec    eax
    22aa:	00 5f 5f             	add    BYTE PTR [edi+0x5f],bl
    22ad:	53                   	push   ebx
    22ae:	49                   	dec    ecx
    22af:	5a                   	pop    edx
    22b0:	45                   	inc    ebp
    22b1:	4f                   	dec    edi
    22b2:	46                   	inc    esi
    22b3:	5f                   	pop    edi
    22b4:	57                   	push   edi
    22b5:	43                   	inc    ebx
    22b6:	48                   	dec    eax
    22b7:	41                   	inc    ecx
    22b8:	52                   	push   edx
    22b9:	5f                   	pop    edi
    22ba:	54                   	push   esp
    22bb:	5f                   	pop    edi
    22bc:	5f                   	pop    edi
    22bd:	20 34 00             	and    BYTE PTR [eax+eax*1],dh
    22c0:	5f                   	pop    edi
    22c1:	5f                   	pop    edi
    22c2:	46                   	inc    esi
    22c3:	4c                   	dec    esp
    22c4:	54                   	push   esp
    22c5:	31 32                	xor    DWORD PTR [edx],esi
    22c7:	38 5f 4d             	cmp    BYTE PTR [edi+0x4d],bl
    22ca:	49                   	dec    ecx
    22cb:	4e                   	dec    esi
    22cc:	5f                   	pop    edi
    22cd:	31 30                	xor    DWORD PTR [eax],esi
    22cf:	5f                   	pop    edi
    22d0:	45                   	inc    ebp
    22d1:	58                   	pop    eax
    22d2:	50                   	push   eax
    22d3:	5f                   	pop    edi
    22d4:	5f                   	pop    edi
    22d5:	20 28                	and    BYTE PTR [eax],ch
    22d7:	2d 34 39 33 31       	sub    eax,0x31333934
    22dc:	29 00                	sub    DWORD PTR [eax],eax
    22de:	5f                   	pop    edi
    22df:	5f                   	pop    edi
    22e0:	46                   	inc    esi
    22e1:	4c                   	dec    esp
    22e2:	4f                   	dec    edi
    22e3:	41                   	inc    ecx
    22e4:	54                   	push   esp
    22e5:	5f                   	pop    edi
    22e6:	57                   	push   edi
    22e7:	4f                   	dec    edi
    22e8:	52                   	push   edx
    22e9:	44                   	inc    esp
    22ea:	5f                   	pop    edi
    22eb:	4f                   	dec    edi
    22ec:	52                   	push   edx
    22ed:	44                   	inc    esp
    22ee:	45                   	inc    ebp
    22ef:	52                   	push   edx
    22f0:	5f                   	pop    edi
    22f1:	5f                   	pop    edi
    22f2:	20 5f 5f             	and    BYTE PTR [edi+0x5f],bl
    22f5:	4f                   	dec    edi
    22f6:	52                   	push   edx
    22f7:	44                   	inc    esp
    22f8:	45                   	inc    ebp
    22f9:	52                   	push   edx
    22fa:	5f                   	pop    edi
    22fb:	4c                   	dec    esp
    22fc:	49                   	dec    ecx
    22fd:	54                   	push   esp
    22fe:	54                   	push   esp
    22ff:	4c                   	dec    esp
    2300:	45                   	inc    ebp
    2301:	5f                   	pop    edi
    2302:	45                   	inc    ebp
    2303:	4e                   	dec    esi
    2304:	44                   	inc    esp
    2305:	49                   	dec    ecx
    2306:	41                   	inc    ecx
    2307:	4e                   	dec    esi
    2308:	5f                   	pop    edi
    2309:	5f                   	pop    edi
    230a:	00 5f 5f             	add    BYTE PTR [edi+0x5f],bl
    230d:	47                   	inc    edi
    230e:	43                   	inc    ebx
    230f:	43                   	inc    ebx
    2310:	5f                   	pop    edi
    2311:	48                   	dec    eax
    2312:	41                   	inc    ecx
    2313:	56                   	push   esi
    2314:	45                   	inc    ebp
    2315:	5f                   	pop    edi
    2316:	53                   	push   ebx
    2317:	59                   	pop    ecx
    2318:	4e                   	dec    esi
    2319:	43                   	inc    ebx
    231a:	5f                   	pop    edi
    231b:	43                   	inc    ebx
    231c:	4f                   	dec    edi
    231d:	4d                   	dec    ebp
    231e:	50                   	push   eax
    231f:	41                   	inc    ecx
    2320:	52                   	push   edx
    2321:	45                   	inc    ebp
    2322:	5f                   	pop    edi
    2323:	41                   	inc    ecx
    2324:	4e                   	dec    esi
    2325:	44                   	inc    esp
    2326:	5f                   	pop    edi
    2327:	53                   	push   ebx
    2328:	57                   	push   edi
    2329:	41                   	inc    ecx
    232a:	50                   	push   eax
    232b:	5f                   	pop    edi
    232c:	32 20                	xor    ah,BYTE PTR [eax]
    232e:	31 00                	xor    DWORD PTR [eax],eax
    2330:	5f                   	pop    edi
    2331:	5f                   	pop    edi
    2332:	53                   	push   ebx
    2333:	49                   	dec    ecx
    2334:	5a                   	pop    edx
    2335:	45                   	inc    ebp
    2336:	5f                   	pop    edi
    2337:	57                   	push   edi
    2338:	49                   	dec    ecx
    2339:	44                   	inc    esp
    233a:	54                   	push   esp
    233b:	48                   	dec    eax
    233c:	5f                   	pop    edi
    233d:	5f                   	pop    edi
    233e:	20 33                	and    BYTE PTR [ebx],dh
    2340:	32 00                	xor    al,BYTE PTR [eax]
    2342:	5f                   	pop    edi
    2343:	5f                   	pop    edi
    2344:	44                   	inc    esp
    2345:	45                   	inc    ebp
    2346:	43                   	inc    ebx
    2347:	33 32                	xor    esi,DWORD PTR [edx]
    2349:	5f                   	pop    edi
    234a:	4d                   	dec    ebp
    234b:	41                   	inc    ecx
    234c:	4e                   	dec    esi
    234d:	54                   	push   esp
    234e:	5f                   	pop    edi
    234f:	44                   	inc    esp
    2350:	49                   	dec    ecx
    2351:	47                   	inc    edi
    2352:	5f                   	pop    edi
    2353:	5f                   	pop    edi
    2354:	20 37                	and    BYTE PTR [edi],dh
    2356:	00 49 4e             	add    BYTE PTR [ecx+0x4e],cl
    2359:	54                   	push   esp
    235a:	50                   	push   eax
    235b:	54                   	push   esp
    235c:	52                   	push   edx
    235d:	5f                   	pop    edi
    235e:	4d                   	dec    ebp
    235f:	49                   	dec    ecx
    2360:	4e                   	dec    esi
    2361:	00 5f 5f             	add    BYTE PTR [edi+0x5f],bl
    2364:	46                   	inc    esi
    2365:	4c                   	dec    esp
    2366:	54                   	push   esp
    2367:	33 32                	xor    esi,DWORD PTR [edx]
    2369:	5f                   	pop    edi
    236a:	44                   	inc    esp
    236b:	45                   	inc    ebp
    236c:	4e                   	dec    esi
    236d:	4f                   	dec    edi
    236e:	52                   	push   edx
    236f:	4d                   	dec    ebp
    2370:	5f                   	pop    edi
    2371:	4d                   	dec    ebp
    2372:	49                   	dec    ecx
    2373:	4e                   	dec    esi
    2374:	5f                   	pop    edi
    2375:	5f                   	pop    edi
    2376:	20 31                	and    BYTE PTR [ecx],dh
    2378:	2e 34 30             	cs xor al,0x30
    237b:	31 32                	xor    DWORD PTR [edx],esi
    237d:	39 38                	cmp    DWORD PTR [eax],edi
    237f:	34 36                	xor    al,0x36
    2381:	34 33                	xor    al,0x33
    2383:	32 34 38             	xor    dh,BYTE PTR [eax+edi*1]
    2386:	31 37                	xor    DWORD PTR [edi],esi
    2388:	30 37                	xor    BYTE PTR [edi],dh
    238a:	30 39                	xor    BYTE PTR [ecx],bh
    238c:	32 33                	xor    dh,BYTE PTR [ebx]
    238e:	37                   	aaa
    238f:	32 39                	xor    bh,BYTE PTR [ecx]
    2391:	35 38 33 32 38       	xor    eax,0x38323338
    2396:	39 39                	cmp    DWORD PTR [ecx],edi
    2398:	31 36                	xor    DWORD PTR [esi],esi
    239a:	31 33                	xor    DWORD PTR [ebx],esi
    239c:	65 2d 34 35 46 33    	gs sub eax,0x33463534
    23a2:	32 00                	xor    al,BYTE PTR [eax]
    23a4:	5f                   	pop    edi
    23a5:	5f                   	pop    edi
    23a6:	44                   	inc    esp
    23a7:	45                   	inc    ebp
    23a8:	43                   	inc    ebx
    23a9:	36 34 5f             	ss xor al,0x5f
    23ac:	4d                   	dec    ebp
    23ad:	49                   	dec    ecx
    23ae:	4e                   	dec    esi
    23af:	5f                   	pop    edi
    23b0:	45                   	inc    ebp
    23b1:	58                   	pop    eax
    23b2:	50                   	push   eax
    23b3:	5f                   	pop    edi
    23b4:	5f                   	pop    edi
    23b5:	20 28                	and    BYTE PTR [eax],ch
    23b7:	2d 33 38 32 29       	sub    eax,0x29323833
    23bc:	00 5f 5f             	add    BYTE PTR [edi+0x5f],bl
    23bf:	53                   	push   ebx
    23c0:	49                   	dec    ecx
    23c1:	47                   	inc    edi
    23c2:	5f                   	pop    edi
    23c3:	41                   	inc    ecx
    23c4:	54                   	push   esp
    23c5:	4f                   	dec    edi
    23c6:	4d                   	dec    ebp
    23c7:	49                   	dec    ecx
    23c8:	43                   	inc    ebx
    23c9:	5f                   	pop    edi
    23ca:	4d                   	dec    ebp
    23cb:	49                   	dec    ecx
    23cc:	4e                   	dec    esi
    23cd:	5f                   	pop    edi
    23ce:	5f                   	pop    edi
    23cf:	20 28                	and    BYTE PTR [eax],ch
    23d1:	2d 5f 5f 53 49       	sub    eax,0x49535f5f
    23d6:	47                   	inc    edi
    23d7:	5f                   	pop    edi
    23d8:	41                   	inc    ecx
    23d9:	54                   	push   esp
    23da:	4f                   	dec    edi
    23db:	4d                   	dec    ebp
    23dc:	49                   	dec    ecx
    23dd:	43                   	inc    ebx
    23de:	5f                   	pop    edi
    23df:	4d                   	dec    ebp
    23e0:	41                   	inc    ecx
    23e1:	58                   	pop    eax
    23e2:	5f                   	pop    edi
    23e3:	5f                   	pop    edi
    23e4:	20 2d 20 31 29 00    	and    BYTE PTR ds:0x293120,ch
    23ea:	55                   	push   ebp
    23eb:	49                   	dec    ecx
    23ec:	4e                   	dec    esi
    23ed:	54                   	push   esp
    23ee:	33 32                	xor    esi,DWORD PTR [edx]
    23f0:	5f                   	pop    edi
    23f1:	43                   	inc    ebx
    23f2:	00 5f 5f             	add    BYTE PTR [edi+0x5f],bl
    23f5:	49                   	dec    ecx
    23f6:	4e                   	dec    esi
    23f7:	54                   	push   esp
    23f8:	33 32                	xor    esi,DWORD PTR [edx]
    23fa:	5f                   	pop    edi
    23fb:	4d                   	dec    ebp
    23fc:	41                   	inc    ecx
    23fd:	58                   	pop    eax
    23fe:	5f                   	pop    edi
    23ff:	5f                   	pop    edi
    2400:	20 30                	and    BYTE PTR [eax],dh
    2402:	78 37                	js     243b <code-0x5bfa>
    2404:	66 66 66 66 66 66 66 	data16 data16 data16 data16 data16 data16 data16 add BYTE PTR [edi+0x5f],bl
    240b:	00 5f 5f 
    240e:	4c                   	dec    esp
    240f:	4f                   	dec    edi
    2410:	4e                   	dec    esi
    2411:	47                   	inc    edi
    2412:	5f                   	pop    edi
    2413:	57                   	push   edi
    2414:	49                   	dec    ecx
    2415:	44                   	inc    esp
    2416:	54                   	push   esp
    2417:	48                   	dec    eax
    2418:	5f                   	pop    edi
    2419:	5f                   	pop    edi
    241a:	20 33                	and    BYTE PTR [ebx],dh
    241c:	32 00                	xor    al,BYTE PTR [eax]
    241e:	5f                   	pop    edi
    241f:	5f                   	pop    edi
    2420:	41                   	inc    ecx
    2421:	54                   	push   esp
    2422:	4f                   	dec    edi
    2423:	4d                   	dec    ebp
    2424:	49                   	dec    ecx
    2425:	43                   	inc    ebx
    2426:	5f                   	pop    edi
    2427:	41                   	inc    ecx
    2428:	43                   	inc    ebx
    2429:	51                   	push   ecx
    242a:	55                   	push   ebp
    242b:	49                   	dec    ecx
    242c:	52                   	push   edx
    242d:	45                   	inc    ebp
    242e:	20 32                	and    BYTE PTR [edx],dh
    2430:	00 5f 5f             	add    BYTE PTR [edi+0x5f],bl
    2433:	55                   	push   ebp
    2434:	49                   	dec    ecx
    2435:	4e                   	dec    esi
    2436:	54                   	push   esp
    2437:	31 36                	xor    DWORD PTR [esi],esi
    2439:	5f                   	pop    edi
    243a:	43                   	inc    ebx
    243b:	28 63 29             	sub    BYTE PTR [ebx+0x29],ah
    243e:	20 63 00             	and    BYTE PTR [ebx+0x0],ah
    2441:	49                   	dec    ecx
    2442:	4e                   	dec    esi
    2443:	54                   	push   esp
    2444:	36 34 5f             	ss xor al,0x5f
    2447:	4d                   	dec    ebp
    2448:	49                   	dec    ecx
    2449:	4e                   	dec    esi
    244a:	20 28                	and    BYTE PTR [eax],ch
    244c:	2d 49 4e 54 36       	sub    eax,0x36544e49
    2451:	34 5f                	xor    al,0x5f
    2453:	4d                   	dec    ebp
    2454:	41                   	inc    ecx
    2455:	58                   	pop    eax
    2456:	20 2d 20 31 29 00    	and    BYTE PTR ds:0x293120,ch
    245c:	5f                   	pop    edi
    245d:	5f                   	pop    edi
    245e:	53                   	push   ebx
    245f:	45                   	inc    ebp
    2460:	47                   	inc    edi
    2461:	5f                   	pop    edi
    2462:	47                   	inc    edi
    2463:	53                   	push   ebx
    2464:	20 31                	and    BYTE PTR [ecx],dh
    2466:	00 75 69             	add    BYTE PTR [ebp+0x69],dh
    2469:	6e                   	outs   dx,BYTE PTR ds:[esi]
    246a:	74 31                	je     249d <code-0x5b98>
    246c:	36 5f                	ss pop edi
    246e:	74 00                	je     2470 <code-0x5bc5>
    2470:	5f                   	pop    edi
    2471:	5f                   	pop    edi
    2472:	46                   	inc    esi
    2473:	4c                   	dec    esp
    2474:	54                   	push   esp
    2475:	31 36                	xor    DWORD PTR [esi],esi
    2477:	5f                   	pop    edi
    2478:	48                   	dec    eax
    2479:	41                   	inc    ecx
    247a:	53                   	push   ebx
    247b:	5f                   	pop    edi
    247c:	44                   	inc    esp
    247d:	45                   	inc    ebp
    247e:	4e                   	dec    esi
    247f:	4f                   	dec    edi
    2480:	52                   	push   edx
    2481:	4d                   	dec    ebp
    2482:	5f                   	pop    edi
    2483:	5f                   	pop    edi
    2484:	20 31                	and    BYTE PTR [ecx],dh
    2486:	00 55 49             	add    BYTE PTR [ebp+0x49],dl
    2489:	4e                   	dec    esi
    248a:	54                   	push   esp
    248b:	5f                   	pop    edi
    248c:	4c                   	dec    esp
    248d:	45                   	inc    ebp
    248e:	41                   	inc    ecx
    248f:	53                   	push   ebx
    2490:	54                   	push   esp
    2491:	38 5f 4d             	cmp    BYTE PTR [edi+0x4d],bl
    2494:	41                   	inc    ecx
    2495:	58                   	pop    eax
    2496:	20 5f 5f             	and    BYTE PTR [edi+0x5f],bl
    2499:	55                   	push   ebp
    249a:	49                   	dec    ecx
    249b:	4e                   	dec    esi
    249c:	54                   	push   esp
    249d:	5f                   	pop    edi
    249e:	4c                   	dec    esp
    249f:	45                   	inc    ebp
    24a0:	41                   	inc    ecx
    24a1:	53                   	push   ebx
    24a2:	54                   	push   esp
    24a3:	38 5f 4d             	cmp    BYTE PTR [edi+0x4d],bl
    24a6:	41                   	inc    ecx
    24a7:	58                   	pop    eax
    24a8:	5f                   	pop    edi
    24a9:	5f                   	pop    edi
    24aa:	00 5f 5f             	add    BYTE PTR [edi+0x5f],bl
    24ad:	55                   	push   ebp
    24ae:	49                   	dec    ecx
    24af:	4e                   	dec    esi
    24b0:	54                   	push   esp
    24b1:	4d                   	dec    ebp
    24b2:	41                   	inc    ecx
    24b3:	58                   	pop    eax
    24b4:	5f                   	pop    edi
    24b5:	54                   	push   esp
    24b6:	59                   	pop    ecx
    24b7:	50                   	push   eax
    24b8:	45                   	inc    ebp
    24b9:	5f                   	pop    edi
    24ba:	5f                   	pop    edi
    24bb:	20 6c 6f 6e          	and    BYTE PTR [edi+ebp*2+0x6e],ch
    24bf:	67 20 6c 6f          	and    BYTE PTR [si+0x6f],ch
    24c3:	6e                   	outs   dx,BYTE PTR ds:[esi]
    24c4:	67 20 75 6e          	and    BYTE PTR [di+0x6e],dh
    24c8:	73 69                	jae    2533 <code-0x5b02>
    24ca:	67 6e                	outs   dx,BYTE PTR ds:[si]
    24cc:	65 64 20 69 6e       	gs and BYTE PTR fs:[ecx+0x6e],ch
    24d1:	74 00                	je     24d3 <code-0x5b62>
    24d3:	49                   	dec    ecx
    24d4:	4e                   	dec    esi
    24d5:	54                   	push   esp
    24d6:	5f                   	pop    edi
    24d7:	46                   	inc    esi
    24d8:	41                   	inc    ecx
    24d9:	53                   	push   ebx
    24da:	54                   	push   esp
    24db:	36 34 5f             	ss xor al,0x5f
    24de:	4d                   	dec    ebp
    24df:	41                   	inc    ecx
    24e0:	58                   	pop    eax
    24e1:	20 5f 5f             	and    BYTE PTR [edi+0x5f],bl
    24e4:	49                   	dec    ecx
    24e5:	4e                   	dec    esi
    24e6:	54                   	push   esp
    24e7:	5f                   	pop    edi
    24e8:	46                   	inc    esi
    24e9:	41                   	inc    ecx
    24ea:	53                   	push   ebx
    24eb:	54                   	push   esp
    24ec:	36 34 5f             	ss xor al,0x5f
    24ef:	4d                   	dec    ebp
    24f0:	41                   	inc    ecx
    24f1:	58                   	pop    eax
    24f2:	5f                   	pop    edi
    24f3:	5f                   	pop    edi
    24f4:	00 5f 5f             	add    BYTE PTR [edi+0x5f],bl
    24f7:	53                   	push   ebx
    24f8:	49                   	dec    ecx
    24f9:	47                   	inc    edi
    24fa:	5f                   	pop    edi
    24fb:	41                   	inc    ecx
    24fc:	54                   	push   esp
    24fd:	4f                   	dec    edi
    24fe:	4d                   	dec    ebp
    24ff:	49                   	dec    ecx
    2500:	43                   	inc    ebx
    2501:	5f                   	pop    edi
    2502:	57                   	push   edi
    2503:	49                   	dec    ecx
    2504:	44                   	inc    esp
    2505:	54                   	push   esp
    2506:	48                   	dec    eax
    2507:	5f                   	pop    edi
    2508:	5f                   	pop    edi
    2509:	20 33                	and    BYTE PTR [ebx],dh
    250b:	32 00                	xor    al,BYTE PTR [eax]
    250d:	55                   	push   ebp
    250e:	49                   	dec    ecx
    250f:	4e                   	dec    esi
    2510:	54                   	push   esp
    2511:	36 34 5f             	ss xor al,0x5f
    2514:	43                   	inc    ebx
    2515:	28 63 29             	sub    BYTE PTR [ebx+0x29],ah
    2518:	20 5f 5f             	and    BYTE PTR [edi+0x5f],bl
    251b:	55                   	push   ebp
    251c:	49                   	dec    ecx
    251d:	4e                   	dec    esi
    251e:	54                   	push   esp
    251f:	36 34 5f             	ss xor al,0x5f
    2522:	43                   	inc    ebx
    2523:	28 63 29             	sub    BYTE PTR [ebx+0x29],ah
    2526:	00 55 49             	add    BYTE PTR [ebp+0x49],dl
    2529:	4e                   	dec    esi
    252a:	54                   	push   esp
    252b:	5f                   	pop    edi
    252c:	4c                   	dec    esp
    252d:	45                   	inc    ebp
    252e:	41                   	inc    ecx
    252f:	53                   	push   ebx
    2530:	54                   	push   esp
    2531:	38 5f 57             	cmp    BYTE PTR [edi+0x57],bl
    2534:	49                   	dec    ecx
    2535:	44                   	inc    esp
    2536:	54                   	push   esp
    2537:	48                   	dec    eax
    2538:	00 5f 5f             	add    BYTE PTR [edi+0x5f],bl
    253b:	53                   	push   ebx
    253c:	48                   	dec    eax
    253d:	52                   	push   edx
    253e:	54                   	push   esp
    253f:	5f                   	pop    edi
    2540:	4d                   	dec    ebp
    2541:	41                   	inc    ecx
    2542:	58                   	pop    eax
    2543:	5f                   	pop    edi
    2544:	5f                   	pop    edi
    2545:	20 30                	and    BYTE PTR [eax],dh
    2547:	78 37                	js     2580 <code-0x5ab5>
    2549:	66 66 66 00 5f 5f    	data16 data16 data16 add BYTE PTR [edi+0x5f],bl
    254f:	42                   	inc    edx
    2550:	46                   	inc    esi
    2551:	4c                   	dec    esp
    2552:	54                   	push   esp
    2553:	31 36                	xor    DWORD PTR [esi],esi
    2555:	5f                   	pop    edi
    2556:	4d                   	dec    ebp
    2557:	41                   	inc    ecx
    2558:	4e                   	dec    esi
    2559:	54                   	push   esp
    255a:	5f                   	pop    edi
    255b:	44                   	inc    esp
    255c:	49                   	dec    ecx
    255d:	47                   	inc    edi
    255e:	5f                   	pop    edi
    255f:	5f                   	pop    edi
    2560:	20 38                	and    BYTE PTR [eax],bh
    2562:	00 5f 5f             	add    BYTE PTR [edi+0x5f],bl
    2565:	4f                   	dec    edi
    2566:	52                   	push   edx
    2567:	44                   	inc    esp
    2568:	45                   	inc    ebp
    2569:	52                   	push   edx
    256a:	5f                   	pop    edi
    256b:	50                   	push   eax
    256c:	44                   	inc    esp
    256d:	50                   	push   eax
    256e:	5f                   	pop    edi
    256f:	45                   	inc    ebp
    2570:	4e                   	dec    esi
    2571:	44                   	inc    esp
    2572:	49                   	dec    ecx
    2573:	41                   	inc    ecx
    2574:	4e                   	dec    esi
    2575:	5f                   	pop    edi
    2576:	5f                   	pop    edi
    2577:	20 33                	and    BYTE PTR [ebx],dh
    2579:	34 31                	xor    al,0x31
    257b:	32 00                	xor    al,BYTE PTR [eax]
    257d:	5f                   	pop    edi
    257e:	5f                   	pop    edi
    257f:	55                   	push   ebp
    2580:	49                   	dec    ecx
    2581:	4e                   	dec    esi
    2582:	54                   	push   esp
    2583:	5f                   	pop    edi
    2584:	4c                   	dec    esp
    2585:	45                   	inc    ebp
    2586:	41                   	inc    ecx
    2587:	53                   	push   ebx
    2588:	54                   	push   esp
    2589:	31 36                	xor    DWORD PTR [esi],esi
    258b:	5f                   	pop    edi
    258c:	54                   	push   esp
    258d:	59                   	pop    ecx
    258e:	50                   	push   eax
    258f:	45                   	inc    ebp
    2590:	5f                   	pop    edi
    2591:	5f                   	pop    edi
    2592:	20 73 68             	and    BYTE PTR [ebx+0x68],dh
    2595:	6f                   	outs   dx,DWORD PTR ds:[esi]
    2596:	72 74                	jb     260c <code-0x5a29>
    2598:	20 75 6e             	and    BYTE PTR [ebp+0x6e],dh
    259b:	73 69                	jae    2606 <code-0x5a2f>
    259d:	67 6e                	outs   dx,BYTE PTR ds:[si]
    259f:	65 64 20 69 6e       	gs and BYTE PTR fs:[ecx+0x6e],ch
    25a4:	74 00                	je     25a6 <code-0x5a8f>
    25a6:	49                   	dec    ecx
    25a7:	4e                   	dec    esi
    25a8:	54                   	push   esp
    25a9:	5f                   	pop    edi
    25aa:	4c                   	dec    esp
    25ab:	45                   	inc    ebp
    25ac:	41                   	inc    ecx
    25ad:	53                   	push   ebx
    25ae:	54                   	push   esp
    25af:	38 5f 4d             	cmp    BYTE PTR [edi+0x4d],bl
    25b2:	49                   	dec    ecx
    25b3:	4e                   	dec    esi
    25b4:	00 5f 5f             	add    BYTE PTR [edi+0x5f],bl
    25b7:	46                   	inc    esi
    25b8:	4c                   	dec    esp
    25b9:	54                   	push   esp
    25ba:	5f                   	pop    edi
    25bb:	44                   	inc    esp
    25bc:	45                   	inc    ebp
    25bd:	43                   	inc    ebx
    25be:	49                   	dec    ecx
    25bf:	4d                   	dec    ebp
    25c0:	41                   	inc    ecx
    25c1:	4c                   	dec    esp
    25c2:	5f                   	pop    edi
    25c3:	44                   	inc    esp
    25c4:	49                   	dec    ecx
    25c5:	47                   	inc    edi
    25c6:	5f                   	pop    edi
    25c7:	5f                   	pop    edi
    25c8:	20 39                	and    BYTE PTR [ecx],bh
    25ca:	00 5f 5f             	add    BYTE PTR [edi+0x5f],bl
    25cd:	63 6f 64             	arpl   WORD PTR [edi+0x64],ebp
    25d0:	65 5f                	gs pop edi
    25d2:	6d                   	ins    DWORD PTR es:[edi],dx
    25d3:	6f                   	outs   dx,DWORD PTR ds:[esi]
    25d4:	64 65 6c             	fs gs ins BYTE PTR es:[edi],dx
    25d7:	5f                   	pop    edi
    25d8:	33 32                	xor    esi,DWORD PTR [edx]
    25da:	5f                   	pop    edi
    25db:	5f                   	pop    edi
    25dc:	20 31                	and    BYTE PTR [ecx],dh
    25de:	00 5f 5f             	add    BYTE PTR [edi+0x5f],bl
    25e1:	4c                   	dec    esp
    25e2:	44                   	inc    esp
    25e3:	42                   	inc    edx
    25e4:	4c                   	dec    esp
    25e5:	5f                   	pop    edi
    25e6:	4d                   	dec    ebp
    25e7:	49                   	dec    ecx
    25e8:	4e                   	dec    esi
    25e9:	5f                   	pop    edi
    25ea:	45                   	inc    ebp
    25eb:	58                   	pop    eax
    25ec:	50                   	push   eax
    25ed:	5f                   	pop    edi
    25ee:	5f                   	pop    edi
    25ef:	20 28                	and    BYTE PTR [eax],ch
    25f1:	2d 31 36 33 38       	sub    eax,0x38333631
    25f6:	31 29                	xor    DWORD PTR [ecx],ebp
    25f8:	00 5f 5f             	add    BYTE PTR [edi+0x5f],bl
    25fb:	57                   	push   edi
    25fc:	49                   	dec    ecx
    25fd:	4e                   	dec    esi
    25fe:	54                   	push   esp
    25ff:	5f                   	pop    edi
    2600:	57                   	push   edi
    2601:	49                   	dec    ecx
    2602:	44                   	inc    esp
    2603:	54                   	push   esp
    2604:	48                   	dec    eax
    2605:	5f                   	pop    edi
    2606:	5f                   	pop    edi
    2607:	20 33                	and    BYTE PTR [ebx],dh
    2609:	32 00                	xor    al,BYTE PTR [eax]
    260b:	5f                   	pop    edi
    260c:	5f                   	pop    edi
    260d:	46                   	inc    esi
    260e:	4c                   	dec    esp
    260f:	54                   	push   esp
    2610:	36 34 58             	ss xor al,0x58
    2613:	5f                   	pop    edi
    2614:	4d                   	dec    ebp
    2615:	49                   	dec    ecx
    2616:	4e                   	dec    esi
    2617:	5f                   	pop    edi
    2618:	5f                   	pop    edi
    2619:	20 33                	and    BYTE PTR [ebx],dh
    261b:	2e 33 36             	xor    esi,DWORD PTR cs:[esi]
    261e:	32 31                	xor    dh,BYTE PTR [ecx]
    2620:	30 33                	xor    BYTE PTR [ebx],dh
    2622:	31 34 33             	xor    DWORD PTR [ebx+esi*1],esi
    2625:	31 31                	xor    DWORD PTR [ecx],esi
    2627:	32 30                	xor    dh,BYTE PTR [eax]
    2629:	39 33                	cmp    DWORD PTR [ebx],esi
    262b:	35 30 36 32 36       	xor    eax,0x36323630
    2630:	32 36                	xor    dh,BYTE PTR [esi]
    2632:	37                   	aaa
    2633:	37                   	aaa
    2634:	38 31                	cmp    BYTE PTR [ecx],dh
    2636:	37                   	aaa
    2637:	33 32                	xor    esi,DWORD PTR [edx]
    2639:	31 37                	xor    DWORD PTR [edi],esi
    263b:	35 32 36 30 65       	xor    eax,0x65303632
    2640:	2d 34 39 33 32       	sub    eax,0x32333934
    2645:	46                   	inc    esi
    2646:	36 34 78             	ss xor al,0x78
    2649:	00 49 4e             	add    BYTE PTR [ecx+0x4e],cl
    264c:	54                   	push   esp
    264d:	5f                   	pop    edi
    264e:	4c                   	dec    esp
    264f:	45                   	inc    ebp
    2650:	41                   	inc    ecx
    2651:	53                   	push   ebx
    2652:	54                   	push   esp
    2653:	36 34 5f             	ss xor al,0x5f
    2656:	4d                   	dec    ebp
    2657:	49                   	dec    ecx
    2658:	4e                   	dec    esi
    2659:	20 28                	and    BYTE PTR [eax],ch
    265b:	2d 49 4e 54 5f       	sub    eax,0x5f544e49
    2660:	4c                   	dec    esp
    2661:	45                   	inc    ebp
    2662:	41                   	inc    ecx
    2663:	53                   	push   ebx
    2664:	54                   	push   esp
    2665:	36 34 5f             	ss xor al,0x5f
    2668:	4d                   	dec    ebp
    2669:	41                   	inc    ecx
    266a:	58                   	pop    eax
    266b:	20 2d 20 31 29 00    	and    BYTE PTR ds:0x293120,ch
    2671:	55                   	push   ebp
    2672:	49                   	dec    ecx
    2673:	4e                   	dec    esi
    2674:	54                   	push   esp
    2675:	5f                   	pop    edi
    2676:	46                   	inc    esi
    2677:	41                   	inc    ecx
    2678:	53                   	push   ebx
    2679:	54                   	push   esp
    267a:	38 5f 4d             	cmp    BYTE PTR [edi+0x4d],bl
    267d:	41                   	inc    ecx
    267e:	58                   	pop    eax
    267f:	00 5f 5f             	add    BYTE PTR [edi+0x5f],bl
    2682:	49                   	dec    ecx
    2683:	4e                   	dec    esi
    2684:	54                   	push   esp
    2685:	5f                   	pop    edi
    2686:	46                   	inc    esi
    2687:	41                   	inc    ecx
    2688:	53                   	push   ebx
    2689:	54                   	push   esp
    268a:	38 5f 4d             	cmp    BYTE PTR [edi+0x4d],bl
    268d:	41                   	inc    ecx
    268e:	58                   	pop    eax
    268f:	5f                   	pop    edi
    2690:	5f                   	pop    edi
    2691:	20 30                	and    BYTE PTR [eax],dh
    2693:	78 37                	js     26cc <code-0x5969>
    2695:	66 00 5f 5f          	data16 add BYTE PTR [edi+0x5f],bl
    2699:	52                   	push   edx
    269a:	45                   	inc    ebp
    269b:	47                   	inc    edi
    269c:	49                   	dec    ecx
    269d:	53                   	push   ebx
    269e:	54                   	push   esp
    269f:	45                   	inc    ebp
    26a0:	52                   	push   edx
    26a1:	5f                   	pop    edi
    26a2:	50                   	push   eax
    26a3:	52                   	push   edx
    26a4:	45                   	inc    ebp
    26a5:	46                   	inc    esi
    26a6:	49                   	dec    ecx
    26a7:	58                   	pop    eax
    26a8:	5f                   	pop    edi
    26a9:	5f                   	pop    edi
    26aa:	20 00                	and    BYTE PTR [eax],al
    26ac:	5f                   	pop    edi
    26ad:	5f                   	pop    edi
    26ae:	46                   	inc    esi
    26af:	4c                   	dec    esp
    26b0:	54                   	push   esp
    26b1:	33 32                	xor    esi,DWORD PTR [edx]
    26b3:	5f                   	pop    edi
    26b4:	45                   	inc    ebp
    26b5:	50                   	push   eax
    26b6:	53                   	push   ebx
    26b7:	49                   	dec    ecx
    26b8:	4c                   	dec    esp
    26b9:	4f                   	dec    edi
    26ba:	4e                   	dec    esi
    26bb:	5f                   	pop    edi
    26bc:	5f                   	pop    edi
    26bd:	20 31                	and    BYTE PTR [ecx],dh
    26bf:	2e 31 39             	xor    DWORD PTR cs:[ecx],edi
    26c2:	32 30                	xor    dh,BYTE PTR [eax]
    26c4:	39 32                	cmp    DWORD PTR [edx],esi
    26c6:	38 39                	cmp    BYTE PTR [ecx],bh
    26c8:	35 35 30 37 38       	xor    eax,0x38373035
    26cd:	31 32                	xor    DWORD PTR [edx],esi
    26cf:	35 30 30 30 30       	xor    eax,0x30303030
    26d4:	30 30                	xor    BYTE PTR [eax],dh
    26d6:	30 30                	xor    BYTE PTR [eax],dh
    26d8:	30 30                	xor    BYTE PTR [eax],dh
    26da:	30 30                	xor    BYTE PTR [eax],dh
    26dc:	30 30                	xor    BYTE PTR [eax],dh
    26de:	30 30                	xor    BYTE PTR [eax],dh
    26e0:	30 30                	xor    BYTE PTR [eax],dh
    26e2:	30 65 2d             	xor    BYTE PTR [ebp+0x2d],ah
    26e5:	37                   	aaa
    26e6:	46                   	inc    esi
    26e7:	33 32                	xor    esi,DWORD PTR [edx]
    26e9:	00 49 4e             	add    BYTE PTR [ecx+0x4e],cl
    26ec:	54                   	push   esp
    26ed:	5f                   	pop    edi
    26ee:	46                   	inc    esi
    26ef:	41                   	inc    ecx
    26f0:	53                   	push   ebx
    26f1:	54                   	push   esp
    26f2:	36 34 5f             	ss xor al,0x5f
    26f5:	4d                   	dec    ebp
    26f6:	49                   	dec    ecx
    26f7:	4e                   	dec    esi
    26f8:	20 28                	and    BYTE PTR [eax],ch
    26fa:	2d 49 4e 54 5f       	sub    eax,0x5f544e49
    26ff:	46                   	inc    esi
    2700:	41                   	inc    ecx
    2701:	53                   	push   ebx
    2702:	54                   	push   esp
    2703:	36 34 5f             	ss xor al,0x5f
    2706:	4d                   	dec    ebp
    2707:	41                   	inc    ecx
    2708:	58                   	pop    eax
    2709:	20 2d 20 31 29 00    	and    BYTE PTR ds:0x293120,ch
    270f:	55                   	push   ebp
    2710:	49                   	dec    ecx
    2711:	4e                   	dec    esi
    2712:	54                   	push   esp
    2713:	31 36                	xor    DWORD PTR [esi],esi
    2715:	5f                   	pop    edi
    2716:	4d                   	dec    ebp
    2717:	41                   	inc    ecx
    2718:	58                   	pop    eax
    2719:	20 5f 5f             	and    BYTE PTR [edi+0x5f],bl
    271c:	55                   	push   ebp
    271d:	49                   	dec    ecx
    271e:	4e                   	dec    esi
    271f:	54                   	push   esp
    2720:	31 36                	xor    DWORD PTR [esi],esi
    2722:	5f                   	pop    edi
    2723:	4d                   	dec    ebp
    2724:	41                   	inc    ecx
    2725:	58                   	pop    eax
    2726:	5f                   	pop    edi
    2727:	5f                   	pop    edi
    2728:	00 53 49             	add    BYTE PTR [ebx+0x49],dl
    272b:	47                   	inc    edi
    272c:	5f                   	pop    edi
    272d:	41                   	inc    ecx
    272e:	54                   	push   esp
    272f:	4f                   	dec    edi
    2730:	4d                   	dec    ebp
    2731:	49                   	dec    ecx
    2732:	43                   	inc    ebx
    2733:	5f                   	pop    edi
    2734:	57                   	push   edi
    2735:	49                   	dec    ecx
    2736:	44                   	inc    esp
    2737:	54                   	push   esp
    2738:	48                   	dec    eax
    2739:	20 5f 5f             	and    BYTE PTR [edi+0x5f],bl
    273c:	53                   	push   ebx
    273d:	49                   	dec    ecx
    273e:	47                   	inc    edi
    273f:	5f                   	pop    edi
    2740:	41                   	inc    ecx
    2741:	54                   	push   esp
    2742:	4f                   	dec    edi
    2743:	4d                   	dec    ebp
    2744:	49                   	dec    ecx
    2745:	43                   	inc    ebx
    2746:	5f                   	pop    edi
    2747:	57                   	push   edi
    2748:	49                   	dec    ecx
    2749:	44                   	inc    esp
    274a:	54                   	push   esp
    274b:	48                   	dec    eax
    274c:	5f                   	pop    edi
    274d:	5f                   	pop    edi
    274e:	00 5f 5f             	add    BYTE PTR [edi+0x5f],bl
    2751:	44                   	inc    esp
    2752:	45                   	inc    ebp
    2753:	43                   	inc    ebx
    2754:	36 34 5f             	ss xor al,0x5f
    2757:	4d                   	dec    ebp
    2758:	41                   	inc    ecx
    2759:	58                   	pop    eax
    275a:	5f                   	pop    edi
    275b:	45                   	inc    ebp
    275c:	58                   	pop    eax
    275d:	50                   	push   eax
    275e:	5f                   	pop    edi
    275f:	5f                   	pop    edi
    2760:	20 33                	and    BYTE PTR [ebx],dh
    2762:	38 35 00 5f 5f 69    	cmp    BYTE PTR ds:0x695f5f00,dh
    2768:	33 38                	xor    edi,DWORD PTR [eax]
    276a:	36 20 31             	and    BYTE PTR ss:[ecx],dh
    276d:	00 5f 5f             	add    BYTE PTR [edi+0x5f],bl
    2770:	46                   	inc    esi
    2771:	4c                   	dec    esp
    2772:	54                   	push   esp
    2773:	33 32                	xor    esi,DWORD PTR [edx]
    2775:	58                   	pop    eax
    2776:	5f                   	pop    edi
    2777:	4d                   	dec    ebp
    2778:	49                   	dec    ecx
    2779:	4e                   	dec    esi
    277a:	5f                   	pop    edi
    277b:	31 30                	xor    DWORD PTR [eax],esi
    277d:	5f                   	pop    edi
    277e:	45                   	inc    ebp
    277f:	58                   	pop    eax
    2780:	50                   	push   eax
    2781:	5f                   	pop    edi
    2782:	5f                   	pop    edi
    2783:	20 28                	and    BYTE PTR [eax],ch
    2785:	2d 33 30 37 29       	sub    eax,0x29373033
    278a:	00 5f 5f             	add    BYTE PTR [edi+0x5f],bl
    278d:	42                   	inc    edx
    278e:	46                   	inc    esi
    278f:	4c                   	dec    esp
    2790:	54                   	push   esp
    2791:	31 36                	xor    DWORD PTR [esi],esi
    2793:	5f                   	pop    edi
    2794:	48                   	dec    eax
    2795:	41                   	inc    ecx
    2796:	53                   	push   ebx
    2797:	5f                   	pop    edi
    2798:	49                   	dec    ecx
    2799:	4e                   	dec    esi
    279a:	46                   	inc    esi
    279b:	49                   	dec    ecx
    279c:	4e                   	dec    esi
    279d:	49                   	dec    ecx
    279e:	54                   	push   esp
    279f:	59                   	pop    ecx
    27a0:	5f                   	pop    edi
    27a1:	5f                   	pop    edi
    27a2:	20 31                	and    BYTE PTR [ecx],dh
    27a4:	00 49 4e             	add    BYTE PTR [ecx+0x4e],cl
    27a7:	54                   	push   esp
    27a8:	36 34 5f             	ss xor al,0x5f
    27ab:	43                   	inc    ebx
    27ac:	28 63 29             	sub    BYTE PTR [ebx+0x29],ah
    27af:	20 5f 5f             	and    BYTE PTR [edi+0x5f],bl
    27b2:	49                   	dec    ecx
    27b3:	4e                   	dec    esi
    27b4:	54                   	push   esp
    27b5:	36 34 5f             	ss xor al,0x5f
    27b8:	43                   	inc    ebx
    27b9:	28 63 29             	sub    BYTE PTR [ebx+0x29],ah
    27bc:	00 55 49             	add    BYTE PTR [ebp+0x49],dl
    27bf:	4e                   	dec    esi
    27c0:	54                   	push   esp
    27c1:	36 34 5f             	ss xor al,0x5f
    27c4:	43                   	inc    ebx
    27c5:	00 57 49             	add    BYTE PTR [edi+0x49],dl
    27c8:	4e                   	dec    esi
    27c9:	54                   	push   esp
    27ca:	5f                   	pop    edi
    27cb:	4d                   	dec    ebp
    27cc:	41                   	inc    ecx
    27cd:	58                   	pop    eax
    27ce:	20 5f 5f             	and    BYTE PTR [edi+0x5f],bl
    27d1:	57                   	push   edi
    27d2:	49                   	dec    ecx
    27d3:	4e                   	dec    esi
    27d4:	54                   	push   esp
    27d5:	5f                   	pop    edi
    27d6:	4d                   	dec    ebp
    27d7:	41                   	inc    ecx
    27d8:	58                   	pop    eax
    27d9:	5f                   	pop    edi
    27da:	5f                   	pop    edi
    27db:	00 5f 5f             	add    BYTE PTR [edi+0x5f],bl
    27de:	43                   	inc    ebx
    27df:	48                   	dec    eax
    27e0:	41                   	inc    ecx
    27e1:	52                   	push   edx
    27e2:	33 32                	xor    esi,DWORD PTR [edx]
    27e4:	5f                   	pop    edi
    27e5:	54                   	push   esp
    27e6:	59                   	pop    ecx
    27e7:	50                   	push   eax
    27e8:	45                   	inc    ebp
    27e9:	5f                   	pop    edi
    27ea:	5f                   	pop    edi
    27eb:	20 75 6e             	and    BYTE PTR [ebp+0x6e],dh
    27ee:	73 69                	jae    2859 <code-0x57dc>
    27f0:	67 6e                	outs   dx,BYTE PTR ds:[si]
    27f2:	65 64 20 69 6e       	gs and BYTE PTR fs:[ecx+0x6e],ch
    27f7:	74 00                	je     27f9 <code-0x583c>
    27f9:	5f                   	pop    edi
    27fa:	5f                   	pop    edi
    27fb:	42                   	inc    edx
    27fc:	46                   	inc    esi
    27fd:	4c                   	dec    esp
    27fe:	54                   	push   esp
    27ff:	31 36                	xor    DWORD PTR [esi],esi
    2801:	5f                   	pop    edi
    2802:	4d                   	dec    ebp
    2803:	49                   	dec    ecx
    2804:	4e                   	dec    esi
    2805:	5f                   	pop    edi
    2806:	5f                   	pop    edi
    2807:	20 31                	and    BYTE PTR [ecx],dh
    2809:	2e 31 37             	xor    DWORD PTR cs:[edi],esi
    280c:	35 34 39 34 33       	xor    eax,0x33343934
    2811:	35 30 38 32 32       	xor    eax,0x32323830
    2816:	32 38                	xor    bh,BYTE PTR [eax]
    2818:	37                   	aaa
    2819:	35 30 37 39 36       	xor    eax,0x36393730
    281e:	38 37                	cmp    BYTE PTR [edi],dh
    2820:	33 36                	xor    esi,DWORD PTR [esi]
    2822:	35 33 37 32 32       	xor    eax,0x32323733
    2827:	32 32                	xor    dh,BYTE PTR [edx]
    2829:	34 35                	xor    al,0x35
    282b:	36 38 65 2d          	cmp    BYTE PTR ss:[ebp+0x2d],ah
    282f:	33 38                	xor    edi,DWORD PTR [eax]
    2831:	42                   	inc    edx
    2832:	46                   	inc    esi
    2833:	31 36                	xor    DWORD PTR [esi],esi
    2835:	00 5f 5f             	add    BYTE PTR [edi+0x5f],bl
    2838:	46                   	inc    esi
    2839:	4c                   	dec    esp
    283a:	54                   	push   esp
    283b:	36 34 58             	ss xor al,0x58
    283e:	5f                   	pop    edi
    283f:	48                   	dec    eax
    2840:	41                   	inc    ecx
    2841:	53                   	push   ebx
    2842:	5f                   	pop    edi
    2843:	49                   	dec    ecx
    2844:	4e                   	dec    esi
    2845:	46                   	inc    esi
    2846:	49                   	dec    ecx
    2847:	4e                   	dec    esi
    2848:	49                   	dec    ecx
    2849:	54                   	push   esp
    284a:	59                   	pop    ecx
    284b:	5f                   	pop    edi
    284c:	5f                   	pop    edi
    284d:	20 31                	and    BYTE PTR [ecx],dh
    284f:	00 5f 5f             	add    BYTE PTR [edi+0x5f],bl
    2852:	49                   	dec    ecx
    2853:	4e                   	dec    esi
    2854:	54                   	push   esp
    2855:	4d                   	dec    ebp
    2856:	41                   	inc    ecx
    2857:	58                   	pop    eax
    2858:	5f                   	pop    edi
    2859:	43                   	inc    ebx
    285a:	28 63 29             	sub    BYTE PTR [ebx+0x29],ah
    285d:	20 63 20             	and    BYTE PTR [ebx+0x20],ah
    2860:	23 23                	and    esp,DWORD PTR [ebx]
    2862:	20 4c 4c 00          	and    BYTE PTR [esp+ecx*2+0x0],cl
    2866:	5f                   	pop    edi
    2867:	5f                   	pop    edi
    2868:	44                   	inc    esp
    2869:	45                   	inc    ebp
    286a:	43                   	inc    ebx
    286b:	31 32                	xor    DWORD PTR [edx],esi
    286d:	38 5f 4d             	cmp    BYTE PTR [edi+0x4d],bl
    2870:	49                   	dec    ecx
    2871:	4e                   	dec    esi
    2872:	5f                   	pop    edi
    2873:	5f                   	pop    edi
    2874:	20 31                	and    BYTE PTR [ecx],dh
    2876:	45                   	inc    ebp
    2877:	2d 36 31 34 33       	sub    eax,0x33343136
    287c:	44                   	inc    esp
    287d:	4c                   	dec    esp
    287e:	00 5f 5f             	add    BYTE PTR [edi+0x5f],bl
    2881:	46                   	inc    esi
    2882:	4c                   	dec    esp
    2883:	54                   	push   esp
    2884:	33 32                	xor    esi,DWORD PTR [edx]
    2886:	58                   	pop    eax
    2887:	5f                   	pop    edi
    2888:	4d                   	dec    ebp
    2889:	49                   	dec    ecx
    288a:	4e                   	dec    esi
    288b:	5f                   	pop    edi
    288c:	45                   	inc    ebp
    288d:	58                   	pop    eax
    288e:	50                   	push   eax
    288f:	5f                   	pop    edi
    2890:	5f                   	pop    edi
    2891:	20 28                	and    BYTE PTR [eax],ch
    2893:	2d 31 30 32 31       	sub    eax,0x31323031
    2898:	29 00                	sub    DWORD PTR [eax],eax
    289a:	55                   	push   ebp
    289b:	49                   	dec    ecx
    289c:	4e                   	dec    esi
    289d:	54                   	push   esp
    289e:	5f                   	pop    edi
    289f:	46                   	inc    esi
    28a0:	41                   	inc    ecx
    28a1:	53                   	push   ebx
    28a2:	54                   	push   esp
    28a3:	36 34 5f             	ss xor al,0x5f
    28a6:	4d                   	dec    ebp
    28a7:	41                   	inc    ecx
    28a8:	58                   	pop    eax
    28a9:	00 49 4e             	add    BYTE PTR [ecx+0x4e],cl
    28ac:	54                   	push   esp
    28ad:	5f                   	pop    edi
    28ae:	4c                   	dec    esp
    28af:	45                   	inc    ebp
    28b0:	41                   	inc    ecx
    28b1:	53                   	push   ebx
    28b2:	54                   	push   esp
    28b3:	36 34 5f             	ss xor al,0x5f
    28b6:	4d                   	dec    ebp
    28b7:	41                   	inc    ecx
    28b8:	58                   	pop    eax
    28b9:	20 5f 5f             	and    BYTE PTR [edi+0x5f],bl
    28bc:	49                   	dec    ecx
    28bd:	4e                   	dec    esi
    28be:	54                   	push   esp
    28bf:	5f                   	pop    edi
    28c0:	4c                   	dec    esp
    28c1:	45                   	inc    ebp
    28c2:	41                   	inc    ecx
    28c3:	53                   	push   ebx
    28c4:	54                   	push   esp
    28c5:	36 34 5f             	ss xor al,0x5f
    28c8:	4d                   	dec    ebp
    28c9:	41                   	inc    ecx
    28ca:	58                   	pop    eax
    28cb:	5f                   	pop    edi
    28cc:	5f                   	pop    edi
    28cd:	00 49 4e             	add    BYTE PTR [ecx+0x4e],cl
    28d0:	54                   	push   esp
    28d1:	5f                   	pop    edi
    28d2:	4c                   	dec    esp
    28d3:	45                   	inc    ebp
    28d4:	41                   	inc    ecx
    28d5:	53                   	push   ebx
    28d6:	54                   	push   esp
    28d7:	36 34 5f             	ss xor al,0x5f
    28da:	4d                   	dec    ebp
    28db:	49                   	dec    ecx
    28dc:	4e                   	dec    esi
    28dd:	00 5f 5f             	add    BYTE PTR [edi+0x5f],bl
    28e0:	47                   	inc    edi
    28e1:	43                   	inc    ebx
    28e2:	43                   	inc    ebx
    28e3:	5f                   	pop    edi
    28e4:	44                   	inc    esp
    28e5:	45                   	inc    ebp
    28e6:	53                   	push   ebx
    28e7:	54                   	push   esp
    28e8:	52                   	push   edx
    28e9:	55                   	push   ebp
    28ea:	43                   	inc    ebx
    28eb:	54                   	push   esp
    28ec:	49                   	dec    ecx
    28ed:	56                   	push   esi
    28ee:	45                   	inc    ebp
    28ef:	5f                   	pop    edi
    28f0:	53                   	push   ebx
    28f1:	49                   	dec    ecx
    28f2:	5a                   	pop    edx
    28f3:	45                   	inc    ebp
    28f4:	20 36                	and    BYTE PTR [esi],dh
    28f6:	34 00                	xor    al,0x0
    28f8:	5f                   	pop    edi
    28f9:	5f                   	pop    edi
    28fa:	42                   	inc    edx
    28fb:	46                   	inc    esi
    28fc:	4c                   	dec    esp
    28fd:	54                   	push   esp
    28fe:	31 36                	xor    DWORD PTR [esi],esi
    2900:	5f                   	pop    edi
    2901:	4d                   	dec    ebp
    2902:	41                   	inc    ecx
    2903:	58                   	pop    eax
    2904:	5f                   	pop    edi
    2905:	45                   	inc    ebp
    2906:	58                   	pop    eax
    2907:	50                   	push   eax
    2908:	5f                   	pop    edi
    2909:	5f                   	pop    edi
    290a:	20 31                	and    BYTE PTR [ecx],dh
    290c:	32 38                	xor    bh,BYTE PTR [eax]
    290e:	00 5f 5f             	add    BYTE PTR [edi+0x5f],bl
    2911:	55                   	push   ebp
    2912:	49                   	dec    ecx
    2913:	4e                   	dec    esi
    2914:	54                   	push   esp
    2915:	5f                   	pop    edi
    2916:	46                   	inc    esi
    2917:	41                   	inc    ecx
    2918:	53                   	push   ebx
    2919:	54                   	push   esp
    291a:	38 5f 54             	cmp    BYTE PTR [edi+0x54],bl
    291d:	59                   	pop    ecx
    291e:	50                   	push   eax
    291f:	45                   	inc    ebp
    2920:	5f                   	pop    edi
    2921:	5f                   	pop    edi
    2922:	20 75 6e             	and    BYTE PTR [ebp+0x6e],dh
    2925:	73 69                	jae    2990 <code-0x56a5>
    2927:	67 6e                	outs   dx,BYTE PTR ds:[si]
    2929:	65 64 20 63 68       	gs and BYTE PTR fs:[ebx+0x68],ah
    292e:	61                   	popa
    292f:	72 00                	jb     2931 <code-0x5704>
    2931:	5f                   	pop    edi
    2932:	5f                   	pop    edi
    2933:	49                   	dec    ecx
    2934:	4e                   	dec    esi
    2935:	54                   	push   esp
    2936:	33 32                	xor    esi,DWORD PTR [edx]
    2938:	5f                   	pop    edi
    2939:	43                   	inc    ebx
    293a:	28 63 29             	sub    BYTE PTR [ebx+0x29],ah
    293d:	20 63 00             	and    BYTE PTR [ebx+0x0],ah
    2940:	5f                   	pop    edi
    2941:	5f                   	pop    edi
    2942:	4c                   	dec    esp
    2943:	44                   	inc    esp
    2944:	42                   	inc    edx
    2945:	4c                   	dec    esp
    2946:	5f                   	pop    edi
    2947:	48                   	dec    eax
    2948:	41                   	inc    ecx
    2949:	53                   	push   ebx
    294a:	5f                   	pop    edi
    294b:	51                   	push   ecx
    294c:	55                   	push   ebp
    294d:	49                   	dec    ecx
    294e:	45                   	inc    ebp
    294f:	54                   	push   esp
    2950:	5f                   	pop    edi
    2951:	4e                   	dec    esi
    2952:	41                   	inc    ecx
    2953:	4e                   	dec    esi
    2954:	5f                   	pop    edi
    2955:	5f                   	pop    edi
    2956:	20 31                	and    BYTE PTR [ecx],dh
    2958:	00 5f 5f             	add    BYTE PTR [edi+0x5f],bl
    295b:	49                   	dec    ecx
    295c:	4e                   	dec    esi
    295d:	54                   	push   esp
    295e:	38 5f 54             	cmp    BYTE PTR [edi+0x54],bl
    2961:	59                   	pop    ecx
    2962:	50                   	push   eax
    2963:	45                   	inc    ebp
    2964:	5f                   	pop    edi
    2965:	5f                   	pop    edi
    2966:	20 73 69             	and    BYTE PTR [ebx+0x69],dh
    2969:	67 6e                	outs   dx,BYTE PTR ds:[si]
    296b:	65 64 20 63 68       	gs and BYTE PTR fs:[ebx+0x68],ah
    2970:	61                   	popa
    2971:	72 00                	jb     2973 <code-0x56c2>
    2973:	5f                   	pop    edi
    2974:	5f                   	pop    edi
    2975:	55                   	push   ebp
    2976:	53                   	push   ebx
    2977:	45                   	inc    ebp
    2978:	52                   	push   edx
    2979:	5f                   	pop    edi
    297a:	4c                   	dec    esp
    297b:	41                   	inc    ecx
    297c:	42                   	inc    edx
    297d:	45                   	inc    ebp
    297e:	4c                   	dec    esp
    297f:	5f                   	pop    edi
    2980:	50                   	push   eax
    2981:	52                   	push   edx
    2982:	45                   	inc    ebp
    2983:	46                   	inc    esi
    2984:	49                   	dec    ecx
    2985:	58                   	pop    eax
    2986:	5f                   	pop    edi
    2987:	5f                   	pop    edi
    2988:	20 00                	and    BYTE PTR [eax],al
    298a:	5f                   	pop    edi
    298b:	5f                   	pop    edi
    298c:	43                   	inc    ebx
    298d:	48                   	dec    eax
    298e:	41                   	inc    ecx
    298f:	52                   	push   edx
    2990:	38 5f 54             	cmp    BYTE PTR [edi+0x54],bl
    2993:	59                   	pop    ecx
    2994:	50                   	push   eax
    2995:	45                   	inc    ebp
    2996:	5f                   	pop    edi
    2997:	5f                   	pop    edi
    2998:	20 75 6e             	and    BYTE PTR [ebp+0x6e],dh
    299b:	73 69                	jae    2a06 <code-0x562f>
    299d:	67 6e                	outs   dx,BYTE PTR ds:[si]
    299f:	65 64 20 63 68       	gs and BYTE PTR fs:[ebx+0x68],ah
    29a4:	61                   	popa
    29a5:	72 00                	jb     29a7 <code-0x568e>
    29a7:	55                   	push   ebp
    29a8:	49                   	dec    ecx
    29a9:	4e                   	dec    esi
    29aa:	54                   	push   esp
    29ab:	4d                   	dec    ebp
    29ac:	41                   	inc    ecx
    29ad:	58                   	pop    eax
    29ae:	5f                   	pop    edi
    29af:	4d                   	dec    ebp
    29b0:	41                   	inc    ecx
    29b1:	58                   	pop    eax
    29b2:	00 5f 5f             	add    BYTE PTR [edi+0x5f],bl
    29b5:	6c                   	ins    BYTE PTR es:[edi],dx
    29b6:	69 6e 75 78 20 31 00 	imul   ebp,DWORD PTR [esi+0x75],0x312078
    29bd:	55                   	push   ebp
    29be:	49                   	dec    ecx
    29bf:	4e                   	dec    esi
    29c0:	54                   	push   esp
    29c1:	5f                   	pop    edi
    29c2:	4c                   	dec    esp
    29c3:	45                   	inc    ebp
    29c4:	41                   	inc    ecx
    29c5:	53                   	push   ebx
    29c6:	54                   	push   esp
    29c7:	33 32                	xor    esi,DWORD PTR [edx]
    29c9:	5f                   	pop    edi
    29ca:	57                   	push   edi
    29cb:	49                   	dec    ecx
    29cc:	44                   	inc    esp
    29cd:	54                   	push   esp
    29ce:	48                   	dec    eax
    29cf:	20 5f 5f             	and    BYTE PTR [edi+0x5f],bl
    29d2:	49                   	dec    ecx
    29d3:	4e                   	dec    esi
    29d4:	54                   	push   esp
    29d5:	5f                   	pop    edi
    29d6:	4c                   	dec    esp
    29d7:	45                   	inc    ebp
    29d8:	41                   	inc    ecx
    29d9:	53                   	push   ebx
    29da:	54                   	push   esp
    29db:	33 32                	xor    esi,DWORD PTR [edx]
    29dd:	5f                   	pop    edi
    29de:	57                   	push   edi
    29df:	49                   	dec    ecx
    29e0:	44                   	inc    esp
    29e1:	54                   	push   esp
    29e2:	48                   	dec    eax
    29e3:	5f                   	pop    edi
    29e4:	5f                   	pop    edi
    29e5:	00 6f 66             	add    BYTE PTR [edi+0x66],ch
    29e8:	66 73 65             	data16 jae 2a50 <code-0x55e5>
    29eb:	74 5f                	je     2a4c <code-0x55e9>
    29ed:	6c                   	ins    BYTE PTR es:[edi],dx
    29ee:	6f                   	outs   dx,DWORD PTR ds:[esi]
    29ef:	77 00                	ja     29f1 <code-0x5644>
    29f1:	68 61 6e 64 6c       	push   0x6c646e61
    29f6:	65 72 00             	gs jb  29f9 <code-0x563c>
    29f9:	5f                   	pop    edi
    29fa:	5f                   	pop    edi
    29fb:	55                   	push   ebp
    29fc:	49                   	dec    ecx
    29fd:	4e                   	dec    esi
    29fe:	54                   	push   esp
    29ff:	33 32                	xor    esi,DWORD PTR [edx]
    2a01:	5f                   	pop    edi
    2a02:	54                   	push   esp
    2a03:	59                   	pop    ecx
    2a04:	50                   	push   eax
    2a05:	45                   	inc    ebp
    2a06:	5f                   	pop    edi
    2a07:	5f                   	pop    edi
    2a08:	20 75 6e             	and    BYTE PTR [ebp+0x6e],dh
    2a0b:	73 69                	jae    2a76 <code-0x55bf>
    2a0d:	67 6e                	outs   dx,BYTE PTR ds:[si]
    2a0f:	65 64 20 69 6e       	gs and BYTE PTR fs:[ecx+0x6e],ch
    2a14:	74 00                	je     2a16 <code-0x561f>
    2a16:	5f                   	pop    edi
    2a17:	5f                   	pop    edi
    2a18:	53                   	push   ebx
    2a19:	54                   	push   esp
    2a1a:	44                   	inc    esp
    2a1b:	43                   	inc    ebx
    2a1c:	5f                   	pop    edi
    2a1d:	56                   	push   esi
    2a1e:	45                   	inc    ebp
    2a1f:	52                   	push   edx
    2a20:	53                   	push   ebx
    2a21:	49                   	dec    ecx
    2a22:	4f                   	dec    edi
    2a23:	4e                   	dec    esi
    2a24:	5f                   	pop    edi
    2a25:	53                   	push   ebx
    2a26:	54                   	push   esp
    2a27:	44                   	inc    esp
    2a28:	49                   	dec    ecx
    2a29:	4e                   	dec    esi
    2a2a:	54                   	push   esp
    2a2b:	5f                   	pop    edi
    2a2c:	48                   	dec    eax
    2a2d:	5f                   	pop    edi
    2a2e:	5f                   	pop    edi
    2a2f:	20 32                	and    BYTE PTR [edx],dh
    2a31:	30 32                	xor    BYTE PTR [edx],dh
    2a33:	33 31                	xor    esi,DWORD PTR [ecx]
    2a35:	31 4c 00 5f          	xor    DWORD PTR [eax+eax*1+0x5f],ecx
    2a39:	5f                   	pop    edi
    2a3a:	55                   	push   ebp
    2a3b:	49                   	dec    ecx
    2a3c:	4e                   	dec    esi
    2a3d:	54                   	push   esp
    2a3e:	5f                   	pop    edi
    2a3f:	46                   	inc    esi
    2a40:	41                   	inc    ecx
    2a41:	53                   	push   ebx
    2a42:	54                   	push   esp
    2a43:	36 34 5f             	ss xor al,0x5f
    2a46:	4d                   	dec    ebp
    2a47:	41                   	inc    ecx
    2a48:	58                   	pop    eax
    2a49:	5f                   	pop    edi
    2a4a:	5f                   	pop    edi
    2a4b:	20 30                	and    BYTE PTR [eax],dh
    2a4d:	78 66                	js     2ab5 <code-0x5580>
    2a4f:	66 66 66 66 66 66 66 	data16 data16 data16 data16 data16 data16 data16 data16 data16 data16 data16 data16 data16 data16
    2a56:	66 66 66 66 66 66 66 
    2a5d:	66 55                	push   bp
    2a5f:	4c                   	dec    esp
    2a60:	4c                   	dec    esp
    2a61:	00 5f 5f             	add    BYTE PTR [edi+0x5f],bl
    2a64:	55                   	push   ebp
    2a65:	49                   	dec    ecx
    2a66:	4e                   	dec    esi
    2a67:	54                   	push   esp
    2a68:	5f                   	pop    edi
    2a69:	46                   	inc    esi
    2a6a:	41                   	inc    ecx
    2a6b:	53                   	push   ebx
    2a6c:	54                   	push   esp
    2a6d:	33 32                	xor    esi,DWORD PTR [edx]
    2a6f:	5f                   	pop    edi
    2a70:	4d                   	dec    ebp
    2a71:	41                   	inc    ecx
    2a72:	58                   	pop    eax
    2a73:	5f                   	pop    edi
    2a74:	5f                   	pop    edi
    2a75:	20 30                	and    BYTE PTR [eax],dh
    2a77:	78 66                	js     2adf <code-0x5556>
    2a79:	66 66 66 66 66 66 66 	data16 data16 data16 data16 data16 data16 push bp
    2a80:	55 
    2a81:	00 5f 5f             	add    BYTE PTR [edi+0x5f],bl
    2a84:	49                   	dec    ecx
    2a85:	4e                   	dec    esi
    2a86:	54                   	push   esp
    2a87:	36 34 5f             	ss xor al,0x5f
    2a8a:	43                   	inc    ebx
    2a8b:	28 63 29             	sub    BYTE PTR [ebx+0x29],ah
    2a8e:	20 63 20             	and    BYTE PTR [ebx+0x20],ah
    2a91:	23 23                	and    esp,DWORD PTR [ebx]
    2a93:	20 4c 4c 00          	and    BYTE PTR [esp+ecx*2+0x0],cl
    2a97:	5f                   	pop    edi
    2a98:	5f                   	pop    edi
    2a99:	46                   	inc    esi
    2a9a:	4c                   	dec    esp
    2a9b:	54                   	push   esp
    2a9c:	31 32                	xor    DWORD PTR [edx],esi
    2a9e:	38 5f 45             	cmp    BYTE PTR [edi+0x45],bl
    2aa1:	50                   	push   eax
    2aa2:	53                   	push   ebx
    2aa3:	49                   	dec    ecx
    2aa4:	4c                   	dec    esp
    2aa5:	4f                   	dec    edi
    2aa6:	4e                   	dec    esi
    2aa7:	5f                   	pop    edi
    2aa8:	5f                   	pop    edi
    2aa9:	20 31                	and    BYTE PTR [ecx],dh
    2aab:	2e 39 32             	cmp    DWORD PTR cs:[edx],esi
    2aae:	35 39 32 39 39       	xor    eax,0x39393239
    2ab3:	34 34                	xor    al,0x34
    2ab5:	33 38                	xor    edi,DWORD PTR [eax]
    2ab7:	37                   	aaa
    2ab8:	32 33                	xor    dh,BYTE PTR [ebx]
    2aba:	35 38 35 33 30       	xor    eax,0x30333538
    2abf:	35 35 39 37 37       	xor    eax,0x37373935
    2ac4:	39 34 32             	cmp    DWORD PTR [edx+esi*1],esi
    2ac7:	35 38 34 39 32       	xor    eax,0x32393438
    2acc:	37                   	aaa
    2acd:	33 32                	xor    esi,DWORD PTR [edx]
    2acf:	65 2d 33 34 46 31    	gs sub eax,0x31463433
    2ad5:	32 38                	xor    bh,BYTE PTR [eax]
    2ad7:	00 55 49             	add    BYTE PTR [ebp+0x49],dl
    2ada:	4e                   	dec    esi
    2adb:	54                   	push   esp
    2adc:	5f                   	pop    edi
    2add:	4c                   	dec    esp
    2ade:	45                   	inc    ebp
    2adf:	41                   	inc    ecx
    2ae0:	53                   	push   ebx
    2ae1:	54                   	push   esp
    2ae2:	31 36                	xor    DWORD PTR [esi],esi
    2ae4:	5f                   	pop    edi
    2ae5:	4d                   	dec    ebp
    2ae6:	41                   	inc    ecx
    2ae7:	58                   	pop    eax
    2ae8:	00 55 49             	add    BYTE PTR [ebp+0x49],dl
    2aeb:	4e                   	dec    esi
    2aec:	54                   	push   esp
    2aed:	50                   	push   eax
    2aee:	54                   	push   esp
    2aef:	52                   	push   edx
    2af0:	5f                   	pop    edi
    2af1:	57                   	push   edi
    2af2:	49                   	dec    ecx
    2af3:	44                   	inc    esp
    2af4:	54                   	push   esp
    2af5:	48                   	dec    eax
    2af6:	20 5f 5f             	and    BYTE PTR [edi+0x5f],bl
    2af9:	49                   	dec    ecx
    2afa:	4e                   	dec    esi
    2afb:	54                   	push   esp
    2afc:	50                   	push   eax
    2afd:	54                   	push   esp
    2afe:	52                   	push   edx
    2aff:	5f                   	pop    edi
    2b00:	57                   	push   edi
    2b01:	49                   	dec    ecx
    2b02:	44                   	inc    esp
    2b03:	54                   	push   esp
    2b04:	48                   	dec    eax
    2b05:	5f                   	pop    edi
    2b06:	5f                   	pop    edi
    2b07:	00 5f 5f             	add    BYTE PTR [edi+0x5f],bl
    2b0a:	53                   	push   ebx
    2b0b:	49                   	dec    ecx
    2b0c:	5a                   	pop    edx
    2b0d:	45                   	inc    ebp
    2b0e:	4f                   	dec    edi
    2b0f:	46                   	inc    esi
    2b10:	5f                   	pop    edi
    2b11:	4c                   	dec    esp
    2b12:	4f                   	dec    edi
    2b13:	4e                   	dec    esi
    2b14:	47                   	inc    edi
    2b15:	5f                   	pop    edi
    2b16:	4c                   	dec    esp
    2b17:	4f                   	dec    edi
    2b18:	4e                   	dec    esi
    2b19:	47                   	inc    edi
    2b1a:	5f                   	pop    edi
    2b1b:	5f                   	pop    edi
    2b1c:	20 38                	and    BYTE PTR [eax],bh
    2b1e:	00 5f 5f             	add    BYTE PTR [edi+0x5f],bl
    2b21:	46                   	inc    esi
    2b22:	4c                   	dec    esp
    2b23:	54                   	push   esp
    2b24:	31 36                	xor    DWORD PTR [esi],esi
    2b26:	5f                   	pop    edi
    2b27:	45                   	inc    ebp
    2b28:	50                   	push   eax
    2b29:	53                   	push   ebx
    2b2a:	49                   	dec    ecx
    2b2b:	4c                   	dec    esp
    2b2c:	4f                   	dec    edi
    2b2d:	4e                   	dec    esi
    2b2e:	5f                   	pop    edi
    2b2f:	5f                   	pop    edi
    2b30:	20 39                	and    BYTE PTR [ecx],bh
    2b32:	2e 37                	cs aaa
    2b34:	36 35 36 32 35 30    	ss xor eax,0x30353236
    2b3a:	30 30                	xor    BYTE PTR [eax],dh
    2b3c:	30 30                	xor    BYTE PTR [eax],dh
    2b3e:	30 30                	xor    BYTE PTR [eax],dh
    2b40:	30 30                	xor    BYTE PTR [eax],dh
    2b42:	30 30                	xor    BYTE PTR [eax],dh
    2b44:	30 30                	xor    BYTE PTR [eax],dh
    2b46:	30 30                	xor    BYTE PTR [eax],dh
    2b48:	30 30                	xor    BYTE PTR [eax],dh
    2b4a:	30 30                	xor    BYTE PTR [eax],dh
    2b4c:	30 30                	xor    BYTE PTR [eax],dh
    2b4e:	30 30                	xor    BYTE PTR [eax],dh
    2b50:	30 30                	xor    BYTE PTR [eax],dh
    2b52:	30 30                	xor    BYTE PTR [eax],dh
    2b54:	30 30                	xor    BYTE PTR [eax],dh
    2b56:	65 2d 34 46 31 36    	gs sub eax,0x36314634
    2b5c:	00 5f 5f             	add    BYTE PTR [edi+0x5f],bl
    2b5f:	55                   	push   ebp
    2b60:	49                   	dec    ecx
    2b61:	4e                   	dec    esi
    2b62:	54                   	push   esp
    2b63:	38 5f 54             	cmp    BYTE PTR [edi+0x54],bl
    2b66:	59                   	pop    ecx
    2b67:	50                   	push   eax
    2b68:	45                   	inc    ebp
    2b69:	5f                   	pop    edi
    2b6a:	5f                   	pop    edi
    2b6b:	20 75 6e             	and    BYTE PTR [ebp+0x6e],dh
    2b6e:	73 69                	jae    2bd9 <code-0x545c>
    2b70:	67 6e                	outs   dx,BYTE PTR ds:[si]
    2b72:	65 64 20 63 68       	gs and BYTE PTR fs:[ebx+0x68],ah
    2b77:	61                   	popa
    2b78:	72 00                	jb     2b7a <code-0x54bb>
    2b7a:	5f                   	pop    edi
    2b7b:	5f                   	pop    edi
    2b7c:	53                   	push   ebx
    2b7d:	48                   	dec    eax
    2b7e:	52                   	push   edx
    2b7f:	54                   	push   esp
    2b80:	5f                   	pop    edi
    2b81:	57                   	push   edi
    2b82:	49                   	dec    ecx
    2b83:	44                   	inc    esp
    2b84:	54                   	push   esp
    2b85:	48                   	dec    eax
    2b86:	5f                   	pop    edi
    2b87:	5f                   	pop    edi
    2b88:	20 31                	and    BYTE PTR [ecx],dh
    2b8a:	36 00 55 49          	add    BYTE PTR ss:[ebp+0x49],dl
    2b8e:	4e                   	dec    esi
    2b8f:	54                   	push   esp
    2b90:	33 32                	xor    esi,DWORD PTR [edx]
    2b92:	5f                   	pop    edi
    2b93:	4d                   	dec    ebp
    2b94:	41                   	inc    ecx
    2b95:	58                   	pop    eax
    2b96:	00 49 4e             	add    BYTE PTR [ecx+0x4e],cl
    2b99:	54                   	push   esp
    2b9a:	33 32                	xor    esi,DWORD PTR [edx]
    2b9c:	5f                   	pop    edi
    2b9d:	4d                   	dec    ebp
    2b9e:	41                   	inc    ecx
    2b9f:	58                   	pop    eax
    2ba0:	20 5f 5f             	and    BYTE PTR [edi+0x5f],bl
    2ba3:	49                   	dec    ecx
    2ba4:	4e                   	dec    esi
    2ba5:	54                   	push   esp
    2ba6:	33 32                	xor    esi,DWORD PTR [edx]
    2ba8:	5f                   	pop    edi
    2ba9:	4d                   	dec    ebp
    2baa:	41                   	inc    ecx
    2bab:	58                   	pop    eax
    2bac:	5f                   	pop    edi
    2bad:	5f                   	pop    edi
    2bae:	00 5f 5f             	add    BYTE PTR [edi+0x5f],bl
    2bb1:	46                   	inc    esi
    2bb2:	4c                   	dec    esp
    2bb3:	54                   	push   esp
    2bb4:	36 34 5f             	ss xor al,0x5f
    2bb7:	4e                   	dec    esi
    2bb8:	4f                   	dec    edi
    2bb9:	52                   	push   edx
    2bba:	4d                   	dec    ebp
    2bbb:	5f                   	pop    edi
    2bbc:	4d                   	dec    ebp
    2bbd:	41                   	inc    ecx
    2bbe:	58                   	pop    eax
    2bbf:	5f                   	pop    edi
    2bc0:	5f                   	pop    edi
    2bc1:	20 31                	and    BYTE PTR [ecx],dh
    2bc3:	2e 37                	cs aaa
    2bc5:	39 37                	cmp    DWORD PTR [edi],esi
    2bc7:	36 39 33             	cmp    DWORD PTR ss:[ebx],esi
    2bca:	31 33                	xor    DWORD PTR [ebx],esi
    2bcc:	34 38                	xor    al,0x38
    2bce:	36 32 33             	xor    dh,BYTE PTR ss:[ebx]
    2bd1:	31 35 37 30 38 31    	xor    DWORD PTR ds:0x31383037,esi
    2bd7:	34 35                	xor    al,0x35
    2bd9:	32 37                	xor    dh,BYTE PTR [edi]
    2bdb:	34 32                	xor    al,0x32
    2bdd:	33 37                	xor    esi,DWORD PTR [edi]
    2bdf:	33 31                	xor    esi,DWORD PTR [ecx]
    2be1:	37                   	aaa
    2be2:	30 34 33             	xor    BYTE PTR [ebx+esi*1],dh
    2be5:	35 37 65 2b 33       	xor    eax,0x332b6537
    2bea:	30 38                	xor    BYTE PTR [eax],bh
    2bec:	46                   	inc    esi
    2bed:	36 34 00             	ss xor al,0x0
    2bf0:	5f                   	pop    edi
    2bf1:	5f                   	pop    edi
    2bf2:	49                   	dec    ecx
    2bf3:	4e                   	dec    esi
    2bf4:	54                   	push   esp
    2bf5:	5f                   	pop    edi
    2bf6:	4c                   	dec    esp
    2bf7:	45                   	inc    ebp
    2bf8:	41                   	inc    ecx
    2bf9:	53                   	push   ebx
    2bfa:	54                   	push   esp
    2bfb:	36 34 5f             	ss xor al,0x5f
    2bfe:	54                   	push   esp
    2bff:	59                   	pop    ecx
    2c00:	50                   	push   eax
    2c01:	45                   	inc    ebp
    2c02:	5f                   	pop    edi
    2c03:	5f                   	pop    edi
    2c04:	20 6c 6f 6e          	and    BYTE PTR [edi+ebp*2+0x6e],ch
    2c08:	67 20 6c 6f          	and    BYTE PTR [si+0x6f],ch
    2c0c:	6e                   	outs   dx,BYTE PTR ds:[esi]
    2c0d:	67 20 69 6e          	and    BYTE PTR [bx+di+0x6e],ch
    2c11:	74 00                	je     2c13 <code-0x5422>
    2c13:	49                   	dec    ecx
    2c14:	4e                   	dec    esi
    2c15:	54                   	push   esp
    2c16:	5f                   	pop    edi
    2c17:	4c                   	dec    esp
    2c18:	45                   	inc    ebp
    2c19:	41                   	inc    ecx
    2c1a:	53                   	push   ebx
    2c1b:	54                   	push   esp
    2c1c:	33 32                	xor    esi,DWORD PTR [edx]
    2c1e:	5f                   	pop    edi
    2c1f:	4d                   	dec    ebp
    2c20:	49                   	dec    ecx
    2c21:	4e                   	dec    esi
    2c22:	20 28                	and    BYTE PTR [eax],ch
    2c24:	2d 49 4e 54 5f       	sub    eax,0x5f544e49
    2c29:	4c                   	dec    esp
    2c2a:	45                   	inc    ebp
    2c2b:	41                   	inc    ecx
    2c2c:	53                   	push   ebx
    2c2d:	54                   	push   esp
    2c2e:	33 32                	xor    esi,DWORD PTR [edx]
    2c30:	5f                   	pop    edi
    2c31:	4d                   	dec    ebp
    2c32:	41                   	inc    ecx
    2c33:	58                   	pop    eax
    2c34:	20 2d 20 31 29 00    	and    BYTE PTR ds:0x293120,ch
    2c3a:	5f                   	pop    edi
    2c3b:	5f                   	pop    edi
    2c3c:	53                   	push   ebx
    2c3d:	49                   	dec    ecx
    2c3e:	5a                   	pop    edx
    2c3f:	45                   	inc    ebp
    2c40:	4f                   	dec    edi
    2c41:	46                   	inc    esi
    2c42:	5f                   	pop    edi
    2c43:	50                   	push   eax
    2c44:	4f                   	dec    edi
    2c45:	49                   	dec    ecx
    2c46:	4e                   	dec    esi
    2c47:	54                   	push   esp
    2c48:	45                   	inc    ebp
    2c49:	52                   	push   edx
    2c4a:	5f                   	pop    edi
    2c4b:	5f                   	pop    edi
    2c4c:	20 34 00             	and    BYTE PTR [eax+eax*1],dh
    2c4f:	43                   	inc    ebx
    2c50:	4f                   	dec    edi
    2c51:	44                   	inc    esp
    2c52:	45                   	inc    ebp
    2c53:	5f                   	pop    edi
    2c54:	53                   	push   ebx
    2c55:	45                   	inc    ebp
    2c56:	47                   	inc    edi
    2c57:	4d                   	dec    ebp
    2c58:	45                   	inc    ebp
    2c59:	4e                   	dec    esi
    2c5a:	54                   	push   esp
    2c5b:	5f                   	pop    edi
    2c5c:	4f                   	dec    edi
    2c5d:	46                   	inc    esi
    2c5e:	46                   	inc    esi
    2c5f:	53                   	push   ebx
    2c60:	45                   	inc    ebp
    2c61:	54                   	push   esp
    2c62:	20 28                	and    BYTE PTR [eax],ch
    2c64:	28 75 69             	sub    BYTE PTR [ebp+0x69],dh
    2c67:	6e                   	outs   dx,BYTE PTR ds:[esi]
    2c68:	74 31                	je     2c9b <code-0x539a>
    2c6a:	36 5f                	ss pop edi
    2c6c:	74 29                	je     2c97 <code-0x539e>
    2c6e:	38 29                	cmp    BYTE PTR [ecx],ch
    2c70:	00 5f 5f             	add    BYTE PTR [edi+0x5f],bl
    2c73:	42                   	inc    edx
    2c74:	46                   	inc    esi
    2c75:	4c                   	dec    esp
    2c76:	54                   	push   esp
    2c77:	31 36                	xor    DWORD PTR [esi],esi
    2c79:	5f                   	pop    edi
    2c7a:	4d                   	dec    ebp
    2c7b:	49                   	dec    ecx
    2c7c:	4e                   	dec    esi
    2c7d:	5f                   	pop    edi
    2c7e:	31 30                	xor    DWORD PTR [eax],esi
    2c80:	5f                   	pop    edi
    2c81:	45                   	inc    ebp
    2c82:	58                   	pop    eax
    2c83:	50                   	push   eax
    2c84:	5f                   	pop    edi
    2c85:	5f                   	pop    edi
    2c86:	20 28                	and    BYTE PTR [eax],ch
    2c88:	2d 33 37 29 00       	sub    eax,0x293733
    2c8d:	57                   	push   edi
    2c8e:	43                   	inc    ebx
    2c8f:	48                   	dec    eax
    2c90:	41                   	inc    ecx
    2c91:	52                   	push   edx
    2c92:	5f                   	pop    edi
    2c93:	4d                   	dec    ebp
    2c94:	41                   	inc    ecx
    2c95:	58                   	pop    eax
    2c96:	20 5f 5f             	and    BYTE PTR [edi+0x5f],bl
    2c99:	57                   	push   edi
    2c9a:	43                   	inc    ebx
    2c9b:	48                   	dec    eax
    2c9c:	41                   	inc    ecx
    2c9d:	52                   	push   edx
    2c9e:	5f                   	pop    edi
    2c9f:	4d                   	dec    ebp
    2ca0:	41                   	inc    ecx
    2ca1:	58                   	pop    eax
    2ca2:	5f                   	pop    edi
    2ca3:	5f                   	pop    edi
    2ca4:	00 5f 5f             	add    BYTE PTR [edi+0x5f],bl
    2ca7:	46                   	inc    esi
    2ca8:	4c                   	dec    esp
    2ca9:	54                   	push   esp
    2caa:	36 34 5f             	ss xor al,0x5f
    2cad:	45                   	inc    ebp
    2cae:	50                   	push   eax
    2caf:	53                   	push   ebx
    2cb0:	49                   	dec    ecx
    2cb1:	4c                   	dec    esp
    2cb2:	4f                   	dec    edi
    2cb3:	4e                   	dec    esi
    2cb4:	5f                   	pop    edi
    2cb5:	5f                   	pop    edi
    2cb6:	20 32                	and    BYTE PTR [edx],dh
    2cb8:	2e 32 32             	xor    dh,BYTE PTR cs:[edx]
    2cbb:	30 34 34             	xor    BYTE PTR [esp+esi*1],dh
    2cbe:	36 30 34 39          	xor    BYTE PTR ss:[ecx+edi*1],dh
    2cc2:	32 35 30 33 31 33    	xor    dh,BYTE PTR ds:0x33313330
    2cc8:	30 38                	xor    BYTE PTR [eax],bh
    2cca:	30 38                	xor    BYTE PTR [eax],bh
    2ccc:	34 37                	xor    al,0x37
    2cce:	32 36                	xor    dh,BYTE PTR [esi]
    2cd0:	33 33                	xor    esi,DWORD PTR [ebx]
    2cd2:	33 36                	xor    esi,DWORD PTR [esi]
    2cd4:	31 38                	xor    DWORD PTR [eax],edi
    2cd6:	31 36                	xor    DWORD PTR [esi],esi
    2cd8:	34 30                	xor    al,0x30
    2cda:	36 32 65 2d          	xor    ah,BYTE PTR ss:[ebp+0x2d]
    2cde:	31 36                	xor    DWORD PTR [esi],esi
    2ce0:	46                   	inc    esi
    2ce1:	36 34 00             	ss xor al,0x0
    2ce4:	5f                   	pop    edi
    2ce5:	5f                   	pop    edi
    2ce6:	46                   	inc    esi
    2ce7:	4c                   	dec    esp
    2ce8:	54                   	push   esp
    2ce9:	36 34 58             	ss xor al,0x58
    2cec:	5f                   	pop    edi
    2ced:	4d                   	dec    ebp
    2cee:	41                   	inc    ecx
    2cef:	4e                   	dec    esi
    2cf0:	54                   	push   esp
    2cf1:	5f                   	pop    edi
    2cf2:	44                   	inc    esp
    2cf3:	49                   	dec    ecx
    2cf4:	47                   	inc    edi
    2cf5:	5f                   	pop    edi
    2cf6:	5f                   	pop    edi
    2cf7:	20 36                	and    BYTE PTR [esi],dh
    2cf9:	34 00                	xor    al,0x0
    2cfb:	5f                   	pop    edi
    2cfc:	5f                   	pop    edi
    2cfd:	50                   	push   eax
    2cfe:	54                   	push   esp
    2cff:	52                   	push   edx
    2d00:	44                   	inc    esp
    2d01:	49                   	dec    ecx
    2d02:	46                   	inc    esi
    2d03:	46                   	inc    esi
    2d04:	5f                   	pop    edi
    2d05:	57                   	push   edi
    2d06:	49                   	dec    ecx
    2d07:	44                   	inc    esp
    2d08:	54                   	push   esp
    2d09:	48                   	dec    eax
    2d0a:	5f                   	pop    edi
    2d0b:	5f                   	pop    edi
    2d0c:	20 33                	and    BYTE PTR [ebx],dh
    2d0e:	32 00                	xor    al,BYTE PTR [eax]
    2d10:	6f                   	outs   dx,DWORD PTR ds:[esi]
    2d11:	66 66 73 65          	data16 data16 jae 2d7a <code-0x52bb>
    2d15:	74 5f                	je     2d76 <code-0x52bf>
    2d17:	68 69 67 68 00       	push   0x686769
    2d1c:	5f                   	pop    edi
    2d1d:	5f                   	pop    edi
    2d1e:	46                   	inc    esi
    2d1f:	4c                   	dec    esp
    2d20:	54                   	push   esp
    2d21:	5f                   	pop    edi
    2d22:	44                   	inc    esp
    2d23:	45                   	inc    ebp
    2d24:	4e                   	dec    esi
    2d25:	4f                   	dec    edi
    2d26:	52                   	push   edx
    2d27:	4d                   	dec    ebp
    2d28:	5f                   	pop    edi
    2d29:	4d                   	dec    ebp
    2d2a:	49                   	dec    ecx
    2d2b:	4e                   	dec    esi
    2d2c:	5f                   	pop    edi
    2d2d:	5f                   	pop    edi
    2d2e:	20 31                	and    BYTE PTR [ecx],dh
    2d30:	2e 34 30             	cs xor al,0x30
    2d33:	31 32                	xor    DWORD PTR [edx],esi
    2d35:	39 38                	cmp    DWORD PTR [eax],edi
    2d37:	34 36                	xor    al,0x36
    2d39:	34 33                	xor    al,0x33
    2d3b:	32 34 38             	xor    dh,BYTE PTR [eax+edi*1]
    2d3e:	31 37                	xor    DWORD PTR [edi],esi
    2d40:	30 37                	xor    BYTE PTR [edi],dh
    2d42:	30 39                	xor    BYTE PTR [ecx],bh
    2d44:	32 33                	xor    dh,BYTE PTR [ebx]
    2d46:	37                   	aaa
    2d47:	32 39                	xor    bh,BYTE PTR [ecx]
    2d49:	35 38 33 32 38       	xor    eax,0x38323338
    2d4e:	39 39                	cmp    DWORD PTR [ecx],edi
    2d50:	31 36                	xor    DWORD PTR [esi],esi
    2d52:	31 33                	xor    DWORD PTR [ebx],esi
    2d54:	65 2d 34 35 46 00    	gs sub eax,0x463534
    2d5a:	5f                   	pop    edi
    2d5b:	5f                   	pop    edi
    2d5c:	49                   	dec    ecx
    2d5d:	4e                   	dec    esi
    2d5e:	54                   	push   esp
    2d5f:	5f                   	pop    edi
    2d60:	57                   	push   edi
    2d61:	49                   	dec    ecx
    2d62:	44                   	inc    esp
    2d63:	54                   	push   esp
    2d64:	48                   	dec    eax
    2d65:	5f                   	pop    edi
    2d66:	5f                   	pop    edi
    2d67:	20 33                	and    BYTE PTR [ebx],dh
    2d69:	32 00                	xor    al,BYTE PTR [eax]
    2d6b:	5f                   	pop    edi
    2d6c:	5f                   	pop    edi
    2d6d:	4c                   	dec    esp
    2d6e:	44                   	inc    esp
    2d6f:	42                   	inc    edx
    2d70:	4c                   	dec    esp
    2d71:	5f                   	pop    edi
    2d72:	44                   	inc    esp
    2d73:	45                   	inc    ebp
    2d74:	43                   	inc    ebx
    2d75:	49                   	dec    ecx
    2d76:	4d                   	dec    ebp
    2d77:	41                   	inc    ecx
    2d78:	4c                   	dec    esp
    2d79:	5f                   	pop    edi
    2d7a:	44                   	inc    esp
    2d7b:	49                   	dec    ecx
    2d7c:	47                   	inc    edi
    2d7d:	5f                   	pop    edi
    2d7e:	5f                   	pop    edi
    2d7f:	20 32                	and    BYTE PTR [edx],dh
    2d81:	31 00                	xor    DWORD PTR [eax],eax
    2d83:	5f                   	pop    edi
    2d84:	5f                   	pop    edi
    2d85:	47                   	inc    edi
    2d86:	43                   	inc    ebx
    2d87:	43                   	inc    ebx
    2d88:	5f                   	pop    edi
    2d89:	41                   	inc    ecx
    2d8a:	54                   	push   esp
    2d8b:	4f                   	dec    edi
    2d8c:	4d                   	dec    ebp
    2d8d:	49                   	dec    ecx
    2d8e:	43                   	inc    ebx
    2d8f:	5f                   	pop    edi
    2d90:	50                   	push   eax
    2d91:	4f                   	dec    edi
    2d92:	49                   	dec    ecx
    2d93:	4e                   	dec    esi
    2d94:	54                   	push   esp
    2d95:	45                   	inc    ebp
    2d96:	52                   	push   edx
    2d97:	5f                   	pop    edi
    2d98:	4c                   	dec    esp
    2d99:	4f                   	dec    edi
    2d9a:	43                   	inc    ebx
    2d9b:	4b                   	dec    ebx
    2d9c:	5f                   	pop    edi
    2d9d:	46                   	inc    esi
    2d9e:	52                   	push   edx
    2d9f:	45                   	inc    ebp
    2da0:	45                   	inc    ebp
    2da1:	20 32                	and    BYTE PTR [edx],dh
    2da3:	00 5f 5f             	add    BYTE PTR [edi+0x5f],bl
    2da6:	55                   	push   ebp
    2da7:	49                   	dec    ecx
    2da8:	4e                   	dec    esi
    2da9:	54                   	push   esp
    2daa:	36 34 5f             	ss xor al,0x5f
    2dad:	43                   	inc    ebx
    2dae:	28 63 29             	sub    BYTE PTR [ebx+0x29],ah
    2db1:	20 63 20             	and    BYTE PTR [ebx+0x20],ah
    2db4:	23 23                	and    esp,DWORD PTR [ebx]
    2db6:	20 55 4c             	and    BYTE PTR [ebp+0x4c],dl
    2db9:	4c                   	dec    esp
    2dba:	00 55 49             	add    BYTE PTR [ebp+0x49],dl
    2dbd:	4e                   	dec    esi
    2dbe:	54                   	push   esp
    2dbf:	4d                   	dec    ebp
    2dc0:	41                   	inc    ecx
    2dc1:	58                   	pop    eax
    2dc2:	5f                   	pop    edi
    2dc3:	57                   	push   edi
    2dc4:	49                   	dec    ecx
    2dc5:	44                   	inc    esp
    2dc6:	54                   	push   esp
    2dc7:	48                   	dec    eax
    2dc8:	20 5f 5f             	and    BYTE PTR [edi+0x5f],bl
    2dcb:	49                   	dec    ecx
    2dcc:	4e                   	dec    esi
    2dcd:	54                   	push   esp
    2dce:	4d                   	dec    ebp
    2dcf:	41                   	inc    ecx
    2dd0:	58                   	pop    eax
    2dd1:	5f                   	pop    edi
    2dd2:	57                   	push   edi
    2dd3:	49                   	dec    ecx
    2dd4:	44                   	inc    esp
    2dd5:	54                   	push   esp
    2dd6:	48                   	dec    eax
    2dd7:	5f                   	pop    edi
    2dd8:	5f                   	pop    edi
    2dd9:	00 5f 5f             	add    BYTE PTR [edi+0x5f],bl
    2ddc:	53                   	push   ebx
    2ddd:	45                   	inc    ebp
    2dde:	47                   	inc    edi
    2ddf:	5f                   	pop    edi
    2de0:	46                   	inc    esi
    2de1:	53                   	push   ebx
    2de2:	20 31                	and    BYTE PTR [ecx],dh
    2de4:	00 55 49             	add    BYTE PTR [ebp+0x49],dl
    2de7:	4e                   	dec    esi
    2de8:	54                   	push   esp
    2de9:	31 36                	xor    DWORD PTR [esi],esi
    2deb:	5f                   	pop    edi
    2dec:	57                   	push   edi
    2ded:	49                   	dec    ecx
    2dee:	44                   	inc    esp
    2def:	54                   	push   esp
    2df0:	48                   	dec    eax
    2df1:	00 5f 5f             	add    BYTE PTR [edi+0x5f],bl
    2df4:	42                   	inc    edx
    2df5:	46                   	inc    esi
    2df6:	4c                   	dec    esp
    2df7:	54                   	push   esp
    2df8:	31 36                	xor    DWORD PTR [esi],esi
    2dfa:	5f                   	pop    edi
    2dfb:	48                   	dec    eax
    2dfc:	41                   	inc    ecx
    2dfd:	53                   	push   ebx
    2dfe:	5f                   	pop    edi
    2dff:	51                   	push   ecx
    2e00:	55                   	push   ebp
    2e01:	49                   	dec    ecx
    2e02:	45                   	inc    ebp
    2e03:	54                   	push   esp
    2e04:	5f                   	pop    edi
    2e05:	4e                   	dec    esi
    2e06:	41                   	inc    ecx
    2e07:	4e                   	dec    esi
    2e08:	5f                   	pop    edi
    2e09:	5f                   	pop    edi
    2e0a:	20 31                	and    BYTE PTR [ecx],dh
    2e0c:	00 55 49             	add    BYTE PTR [ebp+0x49],dl
    2e0f:	4e                   	dec    esi
    2e10:	54                   	push   esp
    2e11:	36 34 5f             	ss xor al,0x5f
    2e14:	4d                   	dec    ebp
    2e15:	41                   	inc    ecx
    2e16:	58                   	pop    eax
    2e17:	20 5f 5f             	and    BYTE PTR [edi+0x5f],bl
    2e1a:	55                   	push   ebp
    2e1b:	49                   	dec    ecx
    2e1c:	4e                   	dec    esi
    2e1d:	54                   	push   esp
    2e1e:	36 34 5f             	ss xor al,0x5f
    2e21:	4d                   	dec    ebp
    2e22:	41                   	inc    ecx
    2e23:	58                   	pop    eax
    2e24:	5f                   	pop    edi
    2e25:	5f                   	pop    edi
    2e26:	00 5f 5f             	add    BYTE PTR [edi+0x5f],bl
    2e29:	47                   	inc    edi
    2e2a:	43                   	inc    ebx
    2e2b:	43                   	inc    ebx
    2e2c:	5f                   	pop    edi
    2e2d:	41                   	inc    ecx
    2e2e:	54                   	push   esp
    2e2f:	4f                   	dec    edi
    2e30:	4d                   	dec    ebp
    2e31:	49                   	dec    ecx
    2e32:	43                   	inc    ebx
    2e33:	5f                   	pop    edi
    2e34:	43                   	inc    ebx
    2e35:	48                   	dec    eax
    2e36:	41                   	inc    ecx
    2e37:	52                   	push   edx
    2e38:	33 32                	xor    esi,DWORD PTR [edx]
    2e3a:	5f                   	pop    edi
    2e3b:	54                   	push   esp
    2e3c:	5f                   	pop    edi
    2e3d:	4c                   	dec    esp
    2e3e:	4f                   	dec    edi
    2e3f:	43                   	inc    ebx
    2e40:	4b                   	dec    ebx
    2e41:	5f                   	pop    edi
    2e42:	46                   	inc    esi
    2e43:	52                   	push   edx
    2e44:	45                   	inc    ebp
    2e45:	45                   	inc    ebp
    2e46:	20 32                	and    BYTE PTR [edx],dh
    2e48:	00 55 49             	add    BYTE PTR [ebp+0x49],dl
    2e4b:	4e                   	dec    esi
    2e4c:	54                   	push   esp
    2e4d:	4d                   	dec    ebp
    2e4e:	41                   	inc    ecx
    2e4f:	58                   	pop    eax
    2e50:	5f                   	pop    edi
    2e51:	43                   	inc    ebx
    2e52:	28 63 29             	sub    BYTE PTR [ebx+0x29],ah
    2e55:	20 5f 5f             	and    BYTE PTR [edi+0x5f],bl
    2e58:	55                   	push   ebp
    2e59:	49                   	dec    ecx
    2e5a:	4e                   	dec    esi
    2e5b:	54                   	push   esp
    2e5c:	4d                   	dec    ebp
    2e5d:	41                   	inc    ecx
    2e5e:	58                   	pop    eax
    2e5f:	5f                   	pop    edi
    2e60:	43                   	inc    ebx
    2e61:	28 63 29             	sub    BYTE PTR [ebx+0x29],ah
    2e64:	00 5f 5f             	add    BYTE PTR [edi+0x5f],bl
    2e67:	57                   	push   edi
    2e68:	43                   	inc    ebx
    2e69:	48                   	dec    eax
    2e6a:	41                   	inc    ecx
    2e6b:	52                   	push   edx
    2e6c:	5f                   	pop    edi
    2e6d:	54                   	push   esp
    2e6e:	59                   	pop    ecx
    2e6f:	50                   	push   eax
    2e70:	45                   	inc    ebp
    2e71:	5f                   	pop    edi
    2e72:	5f                   	pop    edi
    2e73:	20 6c 6f 6e          	and    BYTE PTR [edi+ebp*2+0x6e],ch
    2e77:	67 20 69 6e          	and    BYTE PTR [bx+di+0x6e],ch
    2e7b:	74 00                	je     2e7d <code-0x51b8>
    2e7d:	5f                   	pop    edi
    2e7e:	5f                   	pop    edi
    2e7f:	75 6e                	jne    2eef <code-0x5146>
    2e81:	69 78 20 31 00 5f 5f 	imul   edi,DWORD PTR [eax+0x20],0x5f5f0031
    2e88:	55                   	push   ebp
    2e89:	49                   	dec    ecx
    2e8a:	4e                   	dec    esi
    2e8b:	54                   	push   esp
    2e8c:	4d                   	dec    ebp
    2e8d:	41                   	inc    ecx
    2e8e:	58                   	pop    eax
    2e8f:	5f                   	pop    edi
    2e90:	4d                   	dec    ebp
    2e91:	41                   	inc    ecx
    2e92:	58                   	pop    eax
    2e93:	5f                   	pop    edi
    2e94:	5f                   	pop    edi
    2e95:	20 30                	and    BYTE PTR [eax],dh
    2e97:	78 66                	js     2eff <code-0x5136>
    2e99:	66 66 66 66 66 66 66 	data16 data16 data16 data16 data16 data16 data16 data16 data16 data16 data16 data16 data16 data16
    2ea0:	66 66 66 66 66 66 66 
    2ea7:	66 55                	push   bp
    2ea9:	4c                   	dec    esp
    2eaa:	4c                   	dec    esp
    2eab:	00 5f 5f             	add    BYTE PTR [edi+0x5f],bl
    2eae:	43                   	inc    ebx
    2eaf:	48                   	dec    eax
    2eb0:	41                   	inc    ecx
    2eb1:	52                   	push   edx
    2eb2:	5f                   	pop    edi
    2eb3:	42                   	inc    edx
    2eb4:	49                   	dec    ecx
    2eb5:	54                   	push   esp
    2eb6:	5f                   	pop    edi
    2eb7:	5f                   	pop    edi
    2eb8:	20 38                	and    BYTE PTR [eax],bh
    2eba:	00 5f 5f             	add    BYTE PTR [edi+0x5f],bl
    2ebd:	41                   	inc    ecx
    2ebe:	54                   	push   esp
    2ebf:	4f                   	dec    edi
    2ec0:	4d                   	dec    ebp
    2ec1:	49                   	dec    ecx
    2ec2:	43                   	inc    ebx
    2ec3:	5f                   	pop    edi
    2ec4:	52                   	push   edx
    2ec5:	45                   	inc    ebp
    2ec6:	4c                   	dec    esp
    2ec7:	41                   	inc    ecx
    2ec8:	58                   	pop    eax
    2ec9:	45                   	inc    ebp
    2eca:	44                   	inc    esp
    2ecb:	20 30                	and    BYTE PTR [eax],dh
    2ecd:	00 5f 5f             	add    BYTE PTR [edi+0x5f],bl
    2ed0:	53                   	push   ebx
    2ed1:	54                   	push   esp
    2ed2:	44                   	inc    esp
    2ed3:	43                   	inc    ebx
    2ed4:	5f                   	pop    edi
    2ed5:	48                   	dec    eax
    2ed6:	4f                   	dec    edi
    2ed7:	53                   	push   ebx
    2ed8:	54                   	push   esp
    2ed9:	45                   	inc    ebp
    2eda:	44                   	inc    esp
    2edb:	5f                   	pop    edi
    2edc:	5f                   	pop    edi
    2edd:	20 30                	and    BYTE PTR [eax],dh
    2edf:	00 55 49             	add    BYTE PTR [ebp+0x49],dl
    2ee2:	4e                   	dec    esi
    2ee3:	54                   	push   esp
    2ee4:	5f                   	pop    edi
    2ee5:	4c                   	dec    esp
    2ee6:	45                   	inc    ebp
    2ee7:	41                   	inc    ecx
    2ee8:	53                   	push   ebx
    2ee9:	54                   	push   esp
    2eea:	38 5f 4d             	cmp    BYTE PTR [edi+0x4d],bl
    2eed:	41                   	inc    ecx
    2eee:	58                   	pop    eax
    2eef:	00 5f 5f             	add    BYTE PTR [edi+0x5f],bl
    2ef2:	4d                   	dec    ebp
    2ef3:	4d                   	dec    ebp
    2ef4:	58                   	pop    eax
    2ef5:	5f                   	pop    edi
    2ef6:	5f                   	pop    edi
    2ef7:	20 31                	and    BYTE PTR [ecx],dh
    2ef9:	00 5f 5f             	add    BYTE PTR [edi+0x5f],bl
    2efc:	49                   	dec    ecx
    2efd:	4e                   	dec    esi
    2efe:	54                   	push   esp
    2eff:	50                   	push   eax
    2f00:	54                   	push   esp
    2f01:	52                   	push   edx
    2f02:	5f                   	pop    edi
    2f03:	4d                   	dec    ebp
    2f04:	41                   	inc    ecx
    2f05:	58                   	pop    eax
    2f06:	5f                   	pop    edi
    2f07:	5f                   	pop    edi
    2f08:	20 30                	and    BYTE PTR [eax],dh
    2f0a:	78 37                	js     2f43 <code-0x50f2>
    2f0c:	66 66 66 66 66 66 66 	data16 data16 data16 data16 data16 data16 data16 add BYTE PTR [ecx+0x4e],cl
    2f13:	00 49 4e 
    2f16:	54                   	push   esp
    2f17:	5f                   	pop    edi
    2f18:	4c                   	dec    esp
    2f19:	45                   	inc    ebp
    2f1a:	41                   	inc    ecx
    2f1b:	53                   	push   ebx
    2f1c:	54                   	push   esp
    2f1d:	38 5f 4d             	cmp    BYTE PTR [edi+0x4d],bl
    2f20:	49                   	dec    ecx
    2f21:	4e                   	dec    esi
    2f22:	20 28                	and    BYTE PTR [eax],ch
    2f24:	2d 49 4e 54 5f       	sub    eax,0x5f544e49
    2f29:	4c                   	dec    esp
    2f2a:	45                   	inc    ebp
    2f2b:	41                   	inc    ecx
    2f2c:	53                   	push   ebx
    2f2d:	54                   	push   esp
    2f2e:	38 5f 4d             	cmp    BYTE PTR [edi+0x4d],bl
    2f31:	41                   	inc    ecx
    2f32:	58                   	pop    eax
    2f33:	20 2d 20 31 29 00    	and    BYTE PTR ds:0x293120,ch
    2f39:	53                   	push   ebx
    2f3a:	49                   	dec    ecx
    2f3b:	47                   	inc    edi
    2f3c:	5f                   	pop    edi
    2f3d:	41                   	inc    ecx
    2f3e:	54                   	push   esp
    2f3f:	4f                   	dec    edi
    2f40:	4d                   	dec    ebp
    2f41:	49                   	dec    ecx
    2f42:	43                   	inc    ebx
    2f43:	5f                   	pop    edi
    2f44:	57                   	push   edi
    2f45:	49                   	dec    ecx
    2f46:	44                   	inc    esp
    2f47:	54                   	push   esp
    2f48:	48                   	dec    eax
    2f49:	00 5f 5f             	add    BYTE PTR [edi+0x5f],bl
    2f4c:	46                   	inc    esi
    2f4d:	4c                   	dec    esp
    2f4e:	54                   	push   esp
    2f4f:	31 36                	xor    DWORD PTR [esi],esi
    2f51:	5f                   	pop    edi
    2f52:	48                   	dec    eax
    2f53:	41                   	inc    ecx
    2f54:	53                   	push   ebx
    2f55:	5f                   	pop    edi
    2f56:	51                   	push   ecx
    2f57:	55                   	push   ebp
    2f58:	49                   	dec    ecx
    2f59:	45                   	inc    ebp
    2f5a:	54                   	push   esp
    2f5b:	5f                   	pop    edi
    2f5c:	4e                   	dec    esi
    2f5d:	41                   	inc    ecx
    2f5e:	4e                   	dec    esi
    2f5f:	5f                   	pop    edi
    2f60:	5f                   	pop    edi
    2f61:	20 31                	and    BYTE PTR [ecx],dh
    2f63:	00 5f 5f             	add    BYTE PTR [edi+0x5f],bl
    2f66:	46                   	inc    esi
    2f67:	4c                   	dec    esp
    2f68:	54                   	push   esp
    2f69:	33 32                	xor    esi,DWORD PTR [edx]
    2f6b:	58                   	pop    eax
    2f6c:	5f                   	pop    edi
    2f6d:	44                   	inc    esp
    2f6e:	45                   	inc    ebp
    2f6f:	4e                   	dec    esi
    2f70:	4f                   	dec    edi
    2f71:	52                   	push   edx
    2f72:	4d                   	dec    ebp
    2f73:	5f                   	pop    edi
    2f74:	4d                   	dec    ebp
    2f75:	49                   	dec    ecx
    2f76:	4e                   	dec    esi
    2f77:	5f                   	pop    edi
    2f78:	5f                   	pop    edi
    2f79:	20 34 2e             	and    BYTE PTR [esi+ebp*1],dh
    2f7c:	39 34 30             	cmp    DWORD PTR [eax+esi*1],esi
    2f7f:	36 35 36 34 35 38    	ss xor eax,0x38353436
    2f85:	34 31                	xor    al,0x31
    2f87:	32 34 36             	xor    dh,BYTE PTR [esi+esi*1]
    2f8a:	35 34 34 31 37       	xor    eax,0x37313434
    2f8f:	36 35 36 38 37 39    	ss xor eax,0x39373836
    2f95:	32 38                	xor    bh,BYTE PTR [eax]
    2f97:	36 38 32             	cmp    BYTE PTR ss:[edx],dh
    2f9a:	32 31                	xor    dh,BYTE PTR [ecx]
    2f9c:	33 37                	xor    esi,DWORD PTR [edi]
    2f9e:	32 65 2d             	xor    ah,BYTE PTR [ebp+0x2d]
    2fa1:	33 32                	xor    esi,DWORD PTR [edx]
    2fa3:	34 46                	xor    al,0x46
    2fa5:	33 32                	xor    esi,DWORD PTR [edx]
    2fa7:	78 00                	js     2fa9 <code-0x508c>
    2fa9:	57                   	push   edi
    2faa:	49                   	dec    ecx
    2fab:	4e                   	dec    esi
    2fac:	54                   	push   esp
    2fad:	5f                   	pop    edi
    2fae:	57                   	push   edi
    2faf:	49                   	dec    ecx
    2fb0:	44                   	inc    esp
    2fb1:	54                   	push   esp
    2fb2:	48                   	dec    eax
    2fb3:	20 5f 5f             	and    BYTE PTR [edi+0x5f],bl
    2fb6:	57                   	push   edi
    2fb7:	49                   	dec    ecx
    2fb8:	4e                   	dec    esi
    2fb9:	54                   	push   esp
    2fba:	5f                   	pop    edi
    2fbb:	57                   	push   edi
    2fbc:	49                   	dec    ecx
    2fbd:	44                   	inc    esp
    2fbe:	54                   	push   esp
    2fbf:	48                   	dec    eax
    2fc0:	5f                   	pop    edi
    2fc1:	5f                   	pop    edi
    2fc2:	00 55 49             	add    BYTE PTR [ebp+0x49],dl
    2fc5:	4e                   	dec    esi
    2fc6:	54                   	push   esp
    2fc7:	33 32                	xor    esi,DWORD PTR [edx]
    2fc9:	5f                   	pop    edi
    2fca:	57                   	push   edi
    2fcb:	49                   	dec    ecx
    2fcc:	44                   	inc    esp
    2fcd:	54                   	push   esp
    2fce:	48                   	dec    eax
    2fcf:	20 33                	and    BYTE PTR [ebx],dh
    2fd1:	32 00                	xor    al,BYTE PTR [eax]
    2fd3:	49                   	dec    ecx
    2fd4:	4e                   	dec    esi
    2fd5:	54                   	push   esp
    2fd6:	4d                   	dec    ebp
    2fd7:	41                   	inc    ecx
    2fd8:	58                   	pop    eax
    2fd9:	5f                   	pop    edi
    2fda:	4d                   	dec    ebp
    2fdb:	41                   	inc    ecx
    2fdc:	58                   	pop    eax
    2fdd:	20 5f 5f             	and    BYTE PTR [edi+0x5f],bl
    2fe0:	49                   	dec    ecx
    2fe1:	4e                   	dec    esi
    2fe2:	54                   	push   esp
    2fe3:	4d                   	dec    ebp
    2fe4:	41                   	inc    ecx
    2fe5:	58                   	pop    eax
    2fe6:	5f                   	pop    edi
    2fe7:	4d                   	dec    ebp
    2fe8:	41                   	inc    ecx
    2fe9:	58                   	pop    eax
    2fea:	5f                   	pop    edi
    2feb:	5f                   	pop    edi
    2fec:	00 49 4e             	add    BYTE PTR [ecx+0x4e],cl
    2fef:	54                   	push   esp
    2ff0:	38 5f 43             	cmp    BYTE PTR [edi+0x43],bl
    2ff3:	28 63 29             	sub    BYTE PTR [ebx+0x29],ah
    2ff6:	20 5f 5f             	and    BYTE PTR [edi+0x5f],bl
    2ff9:	49                   	dec    ecx
    2ffa:	4e                   	dec    esi
    2ffb:	54                   	push   esp
    2ffc:	38 5f 43             	cmp    BYTE PTR [edi+0x43],bl
    2fff:	28 63 29             	sub    BYTE PTR [ebx+0x29],ah
    3002:	00 5f 5f             	add    BYTE PTR [edi+0x5f],bl
    3005:	47                   	inc    edi
    3006:	43                   	inc    ebx
    3007:	43                   	inc    ebx
    3008:	5f                   	pop    edi
    3009:	41                   	inc    ecx
    300a:	54                   	push   esp
    300b:	4f                   	dec    edi
    300c:	4d                   	dec    ebp
    300d:	49                   	dec    ecx
    300e:	43                   	inc    ebx
    300f:	5f                   	pop    edi
    3010:	4c                   	dec    esp
    3011:	4c                   	dec    esp
    3012:	4f                   	dec    edi
    3013:	4e                   	dec    esi
    3014:	47                   	inc    edi
    3015:	5f                   	pop    edi
    3016:	4c                   	dec    esp
    3017:	4f                   	dec    edi
    3018:	43                   	inc    ebx
    3019:	4b                   	dec    ebx
    301a:	5f                   	pop    edi
    301b:	46                   	inc    esi
    301c:	52                   	push   edx
    301d:	45                   	inc    ebp
    301e:	45                   	inc    ebp
    301f:	20 32                	and    BYTE PTR [edx],dh
    3021:	00 5f 5f             	add    BYTE PTR [edi+0x5f],bl
    3024:	46                   	inc    esi
    3025:	4c                   	dec    esp
    3026:	54                   	push   esp
    3027:	5f                   	pop    edi
    3028:	4d                   	dec    ebp
    3029:	41                   	inc    ecx
    302a:	58                   	pop    eax
    302b:	5f                   	pop    edi
    302c:	45                   	inc    ebp
    302d:	58                   	pop    eax
    302e:	50                   	push   eax
    302f:	5f                   	pop    edi
    3030:	5f                   	pop    edi
    3031:	20 31                	and    BYTE PTR [ecx],dh
    3033:	32 38                	xor    bh,BYTE PTR [eax]
    3035:	00 5f 5f             	add    BYTE PTR [edi+0x5f],bl
    3038:	41                   	inc    ecx
    3039:	54                   	push   esp
    303a:	4f                   	dec    edi
    303b:	4d                   	dec    ebp
    303c:	49                   	dec    ecx
    303d:	43                   	inc    ebx
    303e:	5f                   	pop    edi
    303f:	41                   	inc    ecx
    3040:	43                   	inc    ebx
    3041:	51                   	push   ecx
    3042:	5f                   	pop    edi
    3043:	52                   	push   edx
    3044:	45                   	inc    ebp
    3045:	4c                   	dec    esp
    3046:	20 34 00             	and    BYTE PTR [eax+eax*1],dh
    3049:	5f                   	pop    edi
    304a:	5f                   	pop    edi
    304b:	49                   	dec    ecx
    304c:	4e                   	dec    esi
    304d:	54                   	push   esp
    304e:	36 34 5f             	ss xor al,0x5f
    3051:	4d                   	dec    ebp
    3052:	41                   	inc    ecx
    3053:	58                   	pop    eax
    3054:	5f                   	pop    edi
    3055:	5f                   	pop    edi
    3056:	20 30                	and    BYTE PTR [eax],dh
    3058:	78 37                	js     3091 <code-0x4fa4>
    305a:	66 66 66 66 66 66 66 	data16 data16 data16 data16 data16 data16 data16 data16 data16 data16 data16 data16 data16 data16
    3061:	66 66 66 66 66 66 66 
    3068:	66 4c                	dec    sp
    306a:	4c                   	dec    esp
    306b:	00 5f 5f             	add    BYTE PTR [edi+0x5f],bl
    306e:	44                   	inc    esp
    306f:	45                   	inc    ebp
    3070:	43                   	inc    ebx
    3071:	33 32                	xor    esi,DWORD PTR [edx]
    3073:	5f                   	pop    edi
    3074:	4d                   	dec    ebp
    3075:	49                   	dec    ecx
    3076:	4e                   	dec    esi
    3077:	5f                   	pop    edi
    3078:	45                   	inc    ebp
    3079:	58                   	pop    eax
    307a:	50                   	push   eax
    307b:	5f                   	pop    edi
    307c:	5f                   	pop    edi
    307d:	20 28                	and    BYTE PTR [eax],ch
    307f:	2d 39 34 29 00       	sub    eax,0x293439
    3084:	49                   	dec    ecx
    3085:	4e                   	dec    esi
    3086:	54                   	push   esp
    3087:	33 32                	xor    esi,DWORD PTR [edx]
    3089:	5f                   	pop    edi
    308a:	4d                   	dec    ebp
    308b:	49                   	dec    ecx
    308c:	4e                   	dec    esi
    308d:	00 5f 5f             	add    BYTE PTR [edi+0x5f],bl
    3090:	46                   	inc    esi
    3091:	4c                   	dec    esp
    3092:	54                   	push   esp
    3093:	5f                   	pop    edi
    3094:	4d                   	dec    ebp
    3095:	49                   	dec    ecx
    3096:	4e                   	dec    esi
    3097:	5f                   	pop    edi
    3098:	5f                   	pop    edi
    3099:	20 31                	and    BYTE PTR [ecx],dh
    309b:	2e 31 37             	xor    DWORD PTR cs:[edi],esi
    309e:	35 34 39 34 33       	xor    eax,0x33343934
    30a3:	35 30 38 32 32       	xor    eax,0x32323830
    30a8:	32 38                	xor    bh,BYTE PTR [eax]
    30aa:	37                   	aaa
    30ab:	35 30 37 39 36       	xor    eax,0x36393730
    30b0:	38 37                	cmp    BYTE PTR [edi],dh
    30b2:	33 36                	xor    esi,DWORD PTR [esi]
    30b4:	35 33 37 32 32       	xor    eax,0x32323733
    30b9:	32 32                	xor    dh,BYTE PTR [edx]
    30bb:	34 35                	xor    al,0x35
    30bd:	36 38 65 2d          	cmp    BYTE PTR ss:[ebp+0x2d],ah
    30c1:	33 38                	xor    edi,DWORD PTR [eax]
    30c3:	46                   	inc    esi
    30c4:	00 55 49             	add    BYTE PTR [ebp+0x49],dl
    30c7:	4e                   	dec    esi
    30c8:	54                   	push   esp
    30c9:	5f                   	pop    edi
    30ca:	46                   	inc    esi
    30cb:	41                   	inc    ecx
    30cc:	53                   	push   ebx
    30cd:	54                   	push   esp
    30ce:	38 5f 4d             	cmp    BYTE PTR [edi+0x4d],bl
    30d1:	41                   	inc    ecx
    30d2:	58                   	pop    eax
    30d3:	20 5f 5f             	and    BYTE PTR [edi+0x5f],bl
    30d6:	55                   	push   ebp
    30d7:	49                   	dec    ecx
    30d8:	4e                   	dec    esi
    30d9:	54                   	push   esp
    30da:	5f                   	pop    edi
    30db:	46                   	inc    esi
    30dc:	41                   	inc    ecx
    30dd:	53                   	push   ebx
    30de:	54                   	push   esp
    30df:	38 5f 4d             	cmp    BYTE PTR [edi+0x4d],bl
    30e2:	41                   	inc    ecx
    30e3:	58                   	pop    eax
    30e4:	5f                   	pop    edi
    30e5:	5f                   	pop    edi
    30e6:	00 5f 5f             	add    BYTE PTR [edi+0x5f],bl
    30e9:	49                   	dec    ecx
    30ea:	4e                   	dec    esi
    30eb:	54                   	push   esp
    30ec:	50                   	push   eax
    30ed:	54                   	push   esp
    30ee:	52                   	push   edx
    30ef:	5f                   	pop    edi
    30f0:	54                   	push   esp
    30f1:	59                   	pop    ecx
    30f2:	50                   	push   eax
    30f3:	45                   	inc    ebp
    30f4:	5f                   	pop    edi
    30f5:	5f                   	pop    edi
    30f6:	20 69 6e             	and    BYTE PTR [ecx+0x6e],ch
    30f9:	74 00                	je     30fb <code-0x4f3a>
    30fb:	5f                   	pop    edi
    30fc:	5f                   	pop    edi
    30fd:	44                   	inc    esp
    30fe:	45                   	inc    ebp
    30ff:	43                   	inc    ebx
    3100:	5f                   	pop    edi
    3101:	45                   	inc    ebp
    3102:	56                   	push   esi
    3103:	41                   	inc    ecx
    3104:	4c                   	dec    esp
    3105:	5f                   	pop    edi
    3106:	4d                   	dec    ebp
    3107:	45                   	inc    ebp
    3108:	54                   	push   esp
    3109:	48                   	dec    eax
    310a:	4f                   	dec    edi
    310b:	44                   	inc    esp
    310c:	5f                   	pop    edi
    310d:	5f                   	pop    edi
    310e:	20 32                	and    BYTE PTR [edx],dh
    3110:	00 49 4e             	add    BYTE PTR [ecx+0x4e],cl
    3113:	54                   	push   esp
    3114:	50                   	push   eax
    3115:	54                   	push   esp
    3116:	52                   	push   edx
    3117:	5f                   	pop    edi
    3118:	4d                   	dec    ebp
    3119:	49                   	dec    ecx
    311a:	4e                   	dec    esi
    311b:	20 28                	and    BYTE PTR [eax],ch
    311d:	2d 49 4e 54 50       	sub    eax,0x50544e49
    3122:	54                   	push   esp
    3123:	52                   	push   edx
    3124:	5f                   	pop    edi
    3125:	4d                   	dec    ebp
    3126:	41                   	inc    ecx
    3127:	58                   	pop    eax
    3128:	20 2d 20 31 29 00    	and    BYTE PTR ds:0x293120,ch
    312e:	5f                   	pop    edi
    312f:	5f                   	pop    edi
    3130:	46                   	inc    esi
    3131:	58                   	pop    eax
    3132:	53                   	push   ebx
    3133:	52                   	push   edx
    3134:	5f                   	pop    edi
    3135:	5f                   	pop    edi
    3136:	20 31                	and    BYTE PTR [ecx],dh
    3138:	00 5f 5f             	add    BYTE PTR [edi+0x5f],bl
    313b:	49                   	dec    ecx
    313c:	4e                   	dec    esi
    313d:	54                   	push   esp
    313e:	5f                   	pop    edi
    313f:	4c                   	dec    esp
    3140:	45                   	inc    ebp
    3141:	41                   	inc    ecx
    3142:	53                   	push   ebx
    3143:	54                   	push   esp
    3144:	33 32                	xor    esi,DWORD PTR [edx]
    3146:	5f                   	pop    edi
    3147:	57                   	push   edi
    3148:	49                   	dec    ecx
    3149:	44                   	inc    esp
    314a:	54                   	push   esp
    314b:	48                   	dec    eax
    314c:	5f                   	pop    edi
    314d:	5f                   	pop    edi
    314e:	20 33                	and    BYTE PTR [ebx],dh
    3150:	32 00                	xor    al,BYTE PTR [eax]
    3152:	5f                   	pop    edi
    3153:	5f                   	pop    edi
    3154:	47                   	inc    edi
    3155:	4e                   	dec    esi
    3156:	55                   	push   ebp
    3157:	43                   	inc    ebx
    3158:	5f                   	pop    edi
    3159:	57                   	push   edi
    315a:	49                   	dec    ecx
    315b:	44                   	inc    esp
    315c:	45                   	inc    ebp
    315d:	5f                   	pop    edi
    315e:	45                   	inc    ebp
    315f:	58                   	pop    eax
    3160:	45                   	inc    ebp
    3161:	43                   	inc    ebx
    3162:	55                   	push   ebp
    3163:	54                   	push   esp
    3164:	49                   	dec    ecx
    3165:	4f                   	dec    edi
    3166:	4e                   	dec    esi
    3167:	5f                   	pop    edi
    3168:	43                   	inc    ebx
    3169:	48                   	dec    eax
    316a:	41                   	inc    ecx
    316b:	52                   	push   edx
    316c:	53                   	push   ebx
    316d:	45                   	inc    ebp
    316e:	54                   	push   esp
    316f:	5f                   	pop    edi
    3170:	4e                   	dec    esi
    3171:	41                   	inc    ecx
    3172:	4d                   	dec    ebp
    3173:	45                   	inc    ebp
    3174:	20 22                	and    BYTE PTR [edx],ah
    3176:	55                   	push   ebp
    3177:	54                   	push   esp
    3178:	46                   	inc    esi
    3179:	2d 33 32 4c 45       	sub    eax,0x454c3233
    317e:	22 00                	and    al,BYTE PTR [eax]
    3180:	5f                   	pop    edi
    3181:	5f                   	pop    edi
    3182:	55                   	push   ebp
    3183:	49                   	dec    ecx
    3184:	4e                   	dec    esi
    3185:	54                   	push   esp
    3186:	5f                   	pop    edi
    3187:	46                   	inc    esi
    3188:	41                   	inc    ecx
    3189:	53                   	push   ebx
    318a:	54                   	push   esp
    318b:	33 32                	xor    esi,DWORD PTR [edx]
    318d:	5f                   	pop    edi
    318e:	54                   	push   esp
    318f:	59                   	pop    ecx
    3190:	50                   	push   eax
    3191:	45                   	inc    ebp
    3192:	5f                   	pop    edi
    3193:	5f                   	pop    edi
    3194:	20 75 6e             	and    BYTE PTR [ebp+0x6e],dh
    3197:	73 69                	jae    3202 <code-0x4e33>
    3199:	67 6e                	outs   dx,BYTE PTR ds:[si]
    319b:	65 64 20 69 6e       	gs and BYTE PTR fs:[ecx+0x6e],ch
    31a0:	74 00                	je     31a2 <code-0x4e93>
    31a2:	53                   	push   ebx
    31a3:	49                   	dec    ecx
    31a4:	5a                   	pop    edx
    31a5:	45                   	inc    ebp
    31a6:	5f                   	pop    edi
    31a7:	57                   	push   edi
    31a8:	49                   	dec    ecx
    31a9:	44                   	inc    esp
    31aa:	54                   	push   esp
    31ab:	48                   	dec    eax
    31ac:	20 5f 5f             	and    BYTE PTR [edi+0x5f],bl
    31af:	53                   	push   ebx
    31b0:	49                   	dec    ecx
    31b1:	5a                   	pop    edx
    31b2:	45                   	inc    ebp
    31b3:	5f                   	pop    edi
    31b4:	57                   	push   edi
    31b5:	49                   	dec    ecx
    31b6:	44                   	inc    esp
    31b7:	54                   	push   esp
    31b8:	48                   	dec    eax
    31b9:	5f                   	pop    edi
    31ba:	5f                   	pop    edi
    31bb:	00 55 49             	add    BYTE PTR [ebp+0x49],dl
    31be:	4e                   	dec    esi
    31bf:	54                   	push   esp
    31c0:	36 34 5f             	ss xor al,0x5f
    31c3:	4d                   	dec    ebp
    31c4:	41                   	inc    ecx
    31c5:	58                   	pop    eax
    31c6:	00 5f 5f             	add    BYTE PTR [edi+0x5f],bl
    31c9:	6c                   	ins    BYTE PTR es:[edi],dx
    31ca:	69 6e 75 78 5f 5f 20 	imul   ebp,DWORD PTR [esi+0x75],0x205f5f78
    31d1:	31 00                	xor    DWORD PTR [eax],eax
    31d3:	50                   	push   eax
    31d4:	54                   	push   esp
    31d5:	52                   	push   edx
    31d6:	44                   	inc    esp
    31d7:	49                   	dec    ecx
    31d8:	46                   	inc    esi
    31d9:	46                   	inc    esi
    31da:	5f                   	pop    edi
    31db:	57                   	push   edi
    31dc:	49                   	dec    ecx
    31dd:	44                   	inc    esp
    31de:	54                   	push   esp
    31df:	48                   	dec    eax
    31e0:	20 5f 5f             	and    BYTE PTR [edi+0x5f],bl
    31e3:	50                   	push   eax
    31e4:	54                   	push   esp
    31e5:	52                   	push   edx
    31e6:	44                   	inc    esp
    31e7:	49                   	dec    ecx
    31e8:	46                   	inc    esi
    31e9:	46                   	inc    esi
    31ea:	5f                   	pop    edi
    31eb:	57                   	push   edi
    31ec:	49                   	dec    ecx
    31ed:	44                   	inc    esp
    31ee:	54                   	push   esp
    31ef:	48                   	dec    eax
    31f0:	5f                   	pop    edi
    31f1:	5f                   	pop    edi
    31f2:	00 5f 5f             	add    BYTE PTR [edi+0x5f],bl
    31f5:	53                   	push   ebx
    31f6:	49                   	dec    ecx
    31f7:	5a                   	pop    edx
    31f8:	45                   	inc    ebp
    31f9:	5f                   	pop    edi
    31fa:	54                   	push   esp
    31fb:	59                   	pop    ecx
    31fc:	50                   	push   eax
    31fd:	45                   	inc    ebp
    31fe:	5f                   	pop    edi
    31ff:	5f                   	pop    edi
    3200:	20 75 6e             	and    BYTE PTR [ebp+0x6e],dh
    3203:	73 69                	jae    326e <code-0x4dc7>
    3205:	67 6e                	outs   dx,BYTE PTR ds:[si]
    3207:	65 64 20 69 6e       	gs and BYTE PTR fs:[ecx+0x6e],ch
    320c:	74 00                	je     320e <code-0x4e27>
    320e:	57                   	push   edi
    320f:	43                   	inc    ebx
    3210:	48                   	dec    eax
    3211:	41                   	inc    ecx
    3212:	52                   	push   edx
    3213:	5f                   	pop    edi
    3214:	4d                   	dec    ebp
    3215:	49                   	dec    ecx
    3216:	4e                   	dec    esi
    3217:	20 5f 5f             	and    BYTE PTR [edi+0x5f],bl
    321a:	57                   	push   edi
    321b:	43                   	inc    ebx
    321c:	48                   	dec    eax
    321d:	41                   	inc    ecx
    321e:	52                   	push   edx
    321f:	5f                   	pop    edi
    3220:	4d                   	dec    ebp
    3221:	49                   	dec    ecx
    3222:	4e                   	dec    esi
    3223:	5f                   	pop    edi
    3224:	5f                   	pop    edi
    3225:	00 5f 5f             	add    BYTE PTR [edi+0x5f],bl
    3228:	46                   	inc    esi
    3229:	4c                   	dec    esp
    322a:	54                   	push   esp
    322b:	31 32                	xor    DWORD PTR [edx],esi
    322d:	38 5f 44             	cmp    BYTE PTR [edi+0x44],bl
    3230:	45                   	inc    ebp
    3231:	43                   	inc    ebx
    3232:	49                   	dec    ecx
    3233:	4d                   	dec    ebp
    3234:	41                   	inc    ecx
    3235:	4c                   	dec    esp
    3236:	5f                   	pop    edi
    3237:	44                   	inc    esp
    3238:	49                   	dec    ecx
    3239:	47                   	inc    edi
    323a:	5f                   	pop    edi
    323b:	5f                   	pop    edi
    323c:	20 33                	and    BYTE PTR [ebx],dh
    323e:	36 00 5f 5f          	add    BYTE PTR ss:[edi+0x5f],bl
    3242:	46                   	inc    esi
    3243:	4c                   	dec    esp
    3244:	54                   	push   esp
    3245:	36 34 5f             	ss xor al,0x5f
    3248:	4d                   	dec    ebp
    3249:	49                   	dec    ecx
    324a:	4e                   	dec    esi
    324b:	5f                   	pop    edi
    324c:	45                   	inc    ebp
    324d:	58                   	pop    eax
    324e:	50                   	push   eax
    324f:	5f                   	pop    edi
    3250:	5f                   	pop    edi
    3251:	20 28                	and    BYTE PTR [eax],ch
    3253:	2d 31 30 32 31       	sub    eax,0x31323031
    3258:	29 00                	sub    DWORD PTR [eax],eax
    325a:	72 65                	jb     32c1 <code-0x4d74>
    325c:	67 69 73 74 65 72 5f 	imul   esi,DWORD PTR [bp+di+0x74],0x695f7265
    3263:	69 
    3264:	6e                   	outs   dx,BYTE PTR ds:[esi]
    3265:	74 00                	je     3267 <code-0x4dce>
    3267:	5f                   	pop    edi
    3268:	5f                   	pop    edi
    3269:	47                   	inc    edi
    326a:	43                   	inc    ebx
    326b:	43                   	inc    ebx
    326c:	5f                   	pop    edi
    326d:	41                   	inc    ecx
    326e:	54                   	push   esp
    326f:	4f                   	dec    edi
    3270:	4d                   	dec    ebp
    3271:	49                   	dec    ecx
    3272:	43                   	inc    ebx
    3273:	5f                   	pop    edi
    3274:	53                   	push   ebx
    3275:	48                   	dec    eax
    3276:	4f                   	dec    edi
    3277:	52                   	push   edx
    3278:	54                   	push   esp
    3279:	5f                   	pop    edi
    327a:	4c                   	dec    esp
    327b:	4f                   	dec    edi
    327c:	43                   	inc    ebx
    327d:	4b                   	dec    ebx
    327e:	5f                   	pop    edi
    327f:	46                   	inc    esi
    3280:	52                   	push   edx
    3281:	45                   	inc    ebp
    3282:	45                   	inc    ebp
    3283:	20 32                	and    BYTE PTR [edx],dh
    3285:	00 5f 5f             	add    BYTE PTR [edi+0x5f],bl
    3288:	46                   	inc    esi
    3289:	4c                   	dec    esp
    328a:	54                   	push   esp
    328b:	36 34 58             	ss xor al,0x58
    328e:	5f                   	pop    edi
    328f:	44                   	inc    esp
    3290:	45                   	inc    ebp
    3291:	43                   	inc    ebx
    3292:	49                   	dec    ecx
    3293:	4d                   	dec    ebp
    3294:	41                   	inc    ecx
    3295:	4c                   	dec    esp
    3296:	5f                   	pop    edi
    3297:	44                   	inc    esp
    3298:	49                   	dec    ecx
    3299:	47                   	inc    edi
    329a:	5f                   	pop    edi
    329b:	5f                   	pop    edi
    329c:	20 32                	and    BYTE PTR [edx],dh
    329e:	31 00                	xor    DWORD PTR [eax],eax
    32a0:	5f                   	pop    edi
    32a1:	5f                   	pop    edi
    32a2:	55                   	push   ebp
    32a3:	49                   	dec    ecx
    32a4:	4e                   	dec    esi
    32a5:	54                   	push   esp
    32a6:	5f                   	pop    edi
    32a7:	4c                   	dec    esp
    32a8:	45                   	inc    ebp
    32a9:	41                   	inc    ecx
    32aa:	53                   	push   ebx
    32ab:	54                   	push   esp
    32ac:	33 32                	xor    esi,DWORD PTR [edx]
    32ae:	5f                   	pop    edi
    32af:	54                   	push   esp
    32b0:	59                   	pop    ecx
    32b1:	50                   	push   eax
    32b2:	45                   	inc    ebp
    32b3:	5f                   	pop    edi
    32b4:	5f                   	pop    edi
    32b5:	20 75 6e             	and    BYTE PTR [ebp+0x6e],dh
    32b8:	73 69                	jae    3323 <code-0x4d12>
    32ba:	67 6e                	outs   dx,BYTE PTR ds:[si]
    32bc:	65 64 20 69 6e       	gs and BYTE PTR fs:[ecx+0x6e],ch
    32c1:	74 00                	je     32c3 <code-0x4d72>
    32c3:	5f                   	pop    edi
    32c4:	5f                   	pop    edi
    32c5:	46                   	inc    esi
    32c6:	4c                   	dec    esp
    32c7:	54                   	push   esp
    32c8:	33 32                	xor    esi,DWORD PTR [edx]
    32ca:	58                   	pop    eax
    32cb:	5f                   	pop    edi
    32cc:	49                   	dec    ecx
    32cd:	53                   	push   ebx
    32ce:	5f                   	pop    edi
    32cf:	49                   	dec    ecx
    32d0:	45                   	inc    ebp
    32d1:	43                   	inc    ebx
    32d2:	5f                   	pop    edi
    32d3:	36 30 35 35 39 5f 5f 	xor    BYTE PTR ss:0x5f5f3935,dh
    32da:	20 31                	and    BYTE PTR [ecx],dh
    32dc:	00 5f 5f             	add    BYTE PTR [edi+0x5f],bl
    32df:	46                   	inc    esi
    32e0:	4c                   	dec    esp
    32e1:	54                   	push   esp
    32e2:	5f                   	pop    edi
    32e3:	45                   	inc    ebp
    32e4:	50                   	push   eax
    32e5:	53                   	push   ebx
    32e6:	49                   	dec    ecx
    32e7:	4c                   	dec    esp
    32e8:	4f                   	dec    edi
    32e9:	4e                   	dec    esi
    32ea:	5f                   	pop    edi
    32eb:	5f                   	pop    edi
    32ec:	20 31                	and    BYTE PTR [ecx],dh
    32ee:	2e 31 39             	xor    DWORD PTR cs:[ecx],edi
    32f1:	32 30                	xor    dh,BYTE PTR [eax]
    32f3:	39 32                	cmp    DWORD PTR [edx],esi
    32f5:	38 39                	cmp    BYTE PTR [ecx],bh
    32f7:	35 35 30 37 38       	xor    eax,0x38373035
    32fc:	31 32                	xor    DWORD PTR [edx],esi
    32fe:	35 30 30 30 30       	xor    eax,0x30303030
    3303:	30 30                	xor    BYTE PTR [eax],dh
    3305:	30 30                	xor    BYTE PTR [eax],dh
    3307:	30 30                	xor    BYTE PTR [eax],dh
    3309:	30 30                	xor    BYTE PTR [eax],dh
    330b:	30 30                	xor    BYTE PTR [eax],dh
    330d:	30 30                	xor    BYTE PTR [eax],dh
    330f:	30 30                	xor    BYTE PTR [eax],dh
    3311:	30 65 2d             	xor    BYTE PTR [ebp+0x2d],ah
    3314:	37                   	aaa
    3315:	46                   	inc    esi
    3316:	00 5f 5f             	add    BYTE PTR [edi+0x5f],bl
    3319:	46                   	inc    esi
    331a:	4c                   	dec    esp
    331b:	54                   	push   esp
    331c:	31 32                	xor    DWORD PTR [edx],esi
    331e:	38 5f 49             	cmp    BYTE PTR [edi+0x49],bl
    3321:	53                   	push   ebx
    3322:	5f                   	pop    edi
    3323:	49                   	dec    ecx
    3324:	45                   	inc    ebp
    3325:	43                   	inc    ebx
    3326:	5f                   	pop    edi
    3327:	36 30 35 35 39 5f 5f 	xor    BYTE PTR ss:0x5f5f3935,dh
    332e:	20 31                	and    BYTE PTR [ecx],dh
    3330:	00 57 49             	add    BYTE PTR [edi+0x49],dl
    3333:	4e                   	dec    esi
    3334:	54                   	push   esp
    3335:	5f                   	pop    edi
    3336:	57                   	push   edi
    3337:	49                   	dec    ecx
    3338:	44                   	inc    esp
    3339:	54                   	push   esp
    333a:	48                   	dec    eax
    333b:	00 55 49             	add    BYTE PTR [ebp+0x49],dl
    333e:	4e                   	dec    esi
    333f:	54                   	push   esp
    3340:	38 5f 43             	cmp    BYTE PTR [edi+0x43],bl
    3343:	00 5f 5f             	add    BYTE PTR [edi+0x5f],bl
    3346:	44                   	inc    esp
    3347:	42                   	inc    edx
    3348:	4c                   	dec    esp
    3349:	5f                   	pop    edi
    334a:	48                   	dec    eax
    334b:	41                   	inc    ecx
    334c:	53                   	push   ebx
    334d:	5f                   	pop    edi
    334e:	49                   	dec    ecx
    334f:	4e                   	dec    esi
    3350:	46                   	inc    esi
    3351:	49                   	dec    ecx
    3352:	4e                   	dec    esi
    3353:	49                   	dec    ecx
    3354:	54                   	push   esp
    3355:	59                   	pop    ecx
    3356:	5f                   	pop    edi
    3357:	5f                   	pop    edi
    3358:	20 31                	and    BYTE PTR [ecx],dh
    335a:	00 5f 5f             	add    BYTE PTR [edi+0x5f],bl
    335d:	46                   	inc    esi
    335e:	4c                   	dec    esp
    335f:	54                   	push   esp
    3360:	5f                   	pop    edi
    3361:	45                   	inc    ebp
    3362:	56                   	push   esi
    3363:	41                   	inc    ecx
    3364:	4c                   	dec    esp
    3365:	5f                   	pop    edi
    3366:	4d                   	dec    ebp
    3367:	45                   	inc    ebp
    3368:	54                   	push   esp
    3369:	48                   	dec    eax
    336a:	4f                   	dec    edi
    336b:	44                   	inc    esp
    336c:	5f                   	pop    edi
    336d:	54                   	push   esp
    336e:	53                   	push   ebx
    336f:	5f                   	pop    edi
    3370:	31 38                	xor    DWORD PTR [eax],edi
    3372:	36 36 31 5f 33       	ss xor DWORD PTR ss:[edi+0x33],ebx
    3377:	5f                   	pop    edi
    3378:	5f                   	pop    edi
    3379:	20 32                	and    BYTE PTR [edx],dh
    337b:	00 53 49             	add    BYTE PTR [ebx+0x49],dl
    337e:	47                   	inc    edi
    337f:	5f                   	pop    edi
    3380:	41                   	inc    ecx
    3381:	54                   	push   esp
    3382:	4f                   	dec    edi
    3383:	4d                   	dec    ebp
    3384:	49                   	dec    ecx
    3385:	43                   	inc    ebx
    3386:	5f                   	pop    edi
    3387:	4d                   	dec    ebp
    3388:	41                   	inc    ecx
    3389:	58                   	pop    eax
    338a:	20 5f 5f             	and    BYTE PTR [edi+0x5f],bl
    338d:	53                   	push   ebx
    338e:	49                   	dec    ecx
    338f:	47                   	inc    edi
    3390:	5f                   	pop    edi
    3391:	41                   	inc    ecx
    3392:	54                   	push   esp
    3393:	4f                   	dec    edi
    3394:	4d                   	dec    ebp
    3395:	49                   	dec    ecx
    3396:	43                   	inc    ebx
    3397:	5f                   	pop    edi
    3398:	4d                   	dec    ebp
    3399:	41                   	inc    ecx
    339a:	58                   	pop    eax
    339b:	5f                   	pop    edi
    339c:	5f                   	pop    edi
    339d:	00 70 72             	add    BYTE PTR [eax+0x72],dh
    33a0:	65 73 65             	gs jae 3408 <code-0x4c2d>
    33a3:	6e                   	outs   dx,BYTE PTR ds:[esi]
    33a4:	74 00                	je     33a6 <code-0x4c8f>
    33a6:	5f                   	pop    edi
    33a7:	5f                   	pop    edi
    33a8:	49                   	dec    ecx
    33a9:	4e                   	dec    esi
    33aa:	54                   	push   esp
    33ab:	5f                   	pop    edi
    33ac:	46                   	inc    esi
    33ad:	41                   	inc    ecx
    33ae:	53                   	push   ebx
    33af:	54                   	push   esp
    33b0:	33 32                	xor    esi,DWORD PTR [edx]
    33b2:	5f                   	pop    edi
    33b3:	54                   	push   esp
    33b4:	59                   	pop    ecx
    33b5:	50                   	push   eax
    33b6:	45                   	inc    ebp
    33b7:	5f                   	pop    edi
    33b8:	5f                   	pop    edi
    33b9:	20 69 6e             	and    BYTE PTR [ecx+0x6e],ch
    33bc:	74 00                	je     33be <code-0x4c77>
    33be:	5f                   	pop    edi
    33bf:	5f                   	pop    edi
    33c0:	46                   	inc    esi
    33c1:	4c                   	dec    esp
    33c2:	54                   	push   esp
    33c3:	5f                   	pop    edi
    33c4:	48                   	dec    eax
    33c5:	41                   	inc    ecx
    33c6:	53                   	push   ebx
    33c7:	5f                   	pop    edi
    33c8:	51                   	push   ecx
    33c9:	55                   	push   ebp
    33ca:	49                   	dec    ecx
    33cb:	45                   	inc    ebp
    33cc:	54                   	push   esp
    33cd:	5f                   	pop    edi
    33ce:	4e                   	dec    esi
    33cf:	41                   	inc    ecx
    33d0:	4e                   	dec    esi
    33d1:	5f                   	pop    edi
    33d2:	5f                   	pop    edi
    33d3:	20 31                	and    BYTE PTR [ecx],dh
    33d5:	00 67 61             	add    BYTE PTR [edi+0x61],ah
    33d8:	74 65                	je     343f <code-0x4bf6>
    33da:	5f                   	pop    edi
    33db:	74 79                	je     3456 <code-0x4bdf>
    33dd:	70 65                	jo     3444 <code-0x4bf1>
    33df:	00 5f 5f             	add    BYTE PTR [edi+0x5f],bl
    33e2:	49                   	dec    ecx
    33e3:	4e                   	dec    esi
    33e4:	54                   	push   esp
    33e5:	4d                   	dec    ebp
    33e6:	41                   	inc    ecx
    33e7:	58                   	pop    eax
    33e8:	5f                   	pop    edi
    33e9:	54                   	push   esp
    33ea:	59                   	pop    ecx
    33eb:	50                   	push   eax
    33ec:	45                   	inc    ebp
    33ed:	5f                   	pop    edi
    33ee:	5f                   	pop    edi
    33ef:	20 6c 6f 6e          	and    BYTE PTR [edi+ebp*2+0x6e],ch
    33f3:	67 20 6c 6f          	and    BYTE PTR [si+0x6f],ch
    33f7:	6e                   	outs   dx,BYTE PTR ds:[esi]
    33f8:	67 20 69 6e          	and    BYTE PTR [bx+di+0x6e],ch
    33fc:	74 00                	je     33fe <code-0x4c37>
    33fe:	5f                   	pop    edi
    33ff:	5f                   	pop    edi
    3400:	44                   	inc    esp
    3401:	42                   	inc    edx
    3402:	4c                   	dec    esp
    3403:	5f                   	pop    edi
    3404:	4e                   	dec    esi
    3405:	4f                   	dec    edi
    3406:	52                   	push   edx
    3407:	4d                   	dec    ebp
    3408:	5f                   	pop    edi
    3409:	4d                   	dec    ebp
    340a:	41                   	inc    ecx
    340b:	58                   	pop    eax
    340c:	5f                   	pop    edi
    340d:	5f                   	pop    edi
    340e:	20 28                	and    BYTE PTR [eax],ch
    3410:	28 64 6f 75          	sub    BYTE PTR [edi+ebp*2+0x75],ah
    3414:	62 6c 65 29          	bound  ebp,QWORD PTR [ebp+eiz*2+0x29]
    3418:	31 2e                	xor    DWORD PTR [esi],ebp
    341a:	37                   	aaa
    341b:	39 37                	cmp    DWORD PTR [edi],esi
    341d:	36 39 33             	cmp    DWORD PTR ss:[ebx],esi
    3420:	31 33                	xor    DWORD PTR [ebx],esi
    3422:	34 38                	xor    al,0x38
    3424:	36 32 33             	xor    dh,BYTE PTR ss:[ebx]
    3427:	31 35 37 30 38 31    	xor    DWORD PTR ds:0x31383037,esi
    342d:	34 35                	xor    al,0x35
    342f:	32 37                	xor    dh,BYTE PTR [edi]
    3431:	34 32                	xor    al,0x32
    3433:	33 37                	xor    esi,DWORD PTR [edi]
    3435:	33 31                	xor    esi,DWORD PTR [ecx]
    3437:	37                   	aaa
    3438:	30 34 33             	xor    BYTE PTR [ebx+esi*1],dh
    343b:	35 37 65 2b 33       	xor    eax,0x332b6537
    3440:	30 38                	xor    BYTE PTR [eax],bh
    3442:	4c                   	dec    esp
    3443:	29 00                	sub    DWORD PTR [eax],eax
    3445:	5f                   	pop    edi
    3446:	5f                   	pop    edi
    3447:	44                   	inc    esp
    3448:	45                   	inc    ebp
    3449:	43                   	inc    ebx
    344a:	31 32                	xor    DWORD PTR [edx],esi
    344c:	38 5f 53             	cmp    BYTE PTR [edi+0x53],bl
    344f:	55                   	push   ebp
    3450:	42                   	inc    edx
    3451:	4e                   	dec    esi
    3452:	4f                   	dec    edi
    3453:	52                   	push   edx
    3454:	4d                   	dec    ebp
    3455:	41                   	inc    ecx
    3456:	4c                   	dec    esp
    3457:	5f                   	pop    edi
    3458:	4d                   	dec    ebp
    3459:	49                   	dec    ecx
    345a:	4e                   	dec    esi
    345b:	5f                   	pop    edi
    345c:	5f                   	pop    edi
    345d:	20 30                	and    BYTE PTR [eax],dh
    345f:	2e 30 30             	xor    BYTE PTR cs:[eax],dh
    3462:	30 30                	xor    BYTE PTR [eax],dh
    3464:	30 30                	xor    BYTE PTR [eax],dh
    3466:	30 30                	xor    BYTE PTR [eax],dh
    3468:	30 30                	xor    BYTE PTR [eax],dh
    346a:	30 30                	xor    BYTE PTR [eax],dh
    346c:	30 30                	xor    BYTE PTR [eax],dh
    346e:	30 30                	xor    BYTE PTR [eax],dh
    3470:	30 30                	xor    BYTE PTR [eax],dh
    3472:	30 30                	xor    BYTE PTR [eax],dh
    3474:	30 30                	xor    BYTE PTR [eax],dh
    3476:	30 30                	xor    BYTE PTR [eax],dh
    3478:	30 30                	xor    BYTE PTR [eax],dh
    347a:	30 30                	xor    BYTE PTR [eax],dh
    347c:	30 30                	xor    BYTE PTR [eax],dh
    347e:	30 30                	xor    BYTE PTR [eax],dh
    3480:	31 45 2d             	xor    DWORD PTR [ebp+0x2d],eax
    3483:	36 31 34 33          	xor    DWORD PTR ss:[ebx+esi*1],esi
    3487:	44                   	inc    esp
    3488:	4c                   	dec    esp
    3489:	00 49 4e             	add    BYTE PTR [ecx+0x4e],cl
    348c:	54                   	push   esp
    348d:	5f                   	pop    edi
    348e:	46                   	inc    esi
    348f:	41                   	inc    ecx
    3490:	53                   	push   ebx
    3491:	54                   	push   esp
    3492:	33 32                	xor    esi,DWORD PTR [edx]
    3494:	5f                   	pop    edi
    3495:	4d                   	dec    ebp
    3496:	49                   	dec    ecx
    3497:	4e                   	dec    esi
    3498:	20 28                	and    BYTE PTR [eax],ch
    349a:	2d 49 4e 54 5f       	sub    eax,0x5f544e49
    349f:	46                   	inc    esi
    34a0:	41                   	inc    ecx
    34a1:	53                   	push   ebx
    34a2:	54                   	push   esp
    34a3:	33 32                	xor    esi,DWORD PTR [edx]
    34a5:	5f                   	pop    edi
    34a6:	4d                   	dec    ebp
    34a7:	41                   	inc    ecx
    34a8:	58                   	pop    eax
    34a9:	20 2d 20 31 29 00    	and    BYTE PTR ds:0x293120,ch
    34af:	57                   	push   edi
    34b0:	49                   	dec    ecx
    34b1:	4e                   	dec    esi
    34b2:	54                   	push   esp
    34b3:	5f                   	pop    edi
    34b4:	4d                   	dec    ebp
    34b5:	49                   	dec    ecx
    34b6:	4e                   	dec    esi
    34b7:	00 55 49             	add    BYTE PTR [ebp+0x49],dl
    34ba:	4e                   	dec    esi
    34bb:	54                   	push   esp
    34bc:	5f                   	pop    edi
    34bd:	46                   	inc    esi
    34be:	41                   	inc    ecx
    34bf:	53                   	push   ebx
    34c0:	54                   	push   esp
    34c1:	31 36                	xor    DWORD PTR [esi],esi
    34c3:	5f                   	pop    edi
    34c4:	4d                   	dec    ebp
    34c5:	41                   	inc    ecx
    34c6:	58                   	pop    eax
    34c7:	20 5f 5f             	and    BYTE PTR [edi+0x5f],bl
    34ca:	55                   	push   ebp
    34cb:	49                   	dec    ecx
    34cc:	4e                   	dec    esi
    34cd:	54                   	push   esp
    34ce:	5f                   	pop    edi
    34cf:	46                   	inc    esi
    34d0:	41                   	inc    ecx
    34d1:	53                   	push   ebx
    34d2:	54                   	push   esp
    34d3:	31 36                	xor    DWORD PTR [esi],esi
    34d5:	5f                   	pop    edi
    34d6:	4d                   	dec    ebp
    34d7:	41                   	inc    ecx
    34d8:	58                   	pop    eax
    34d9:	5f                   	pop    edi
    34da:	5f                   	pop    edi
    34db:	00 5f 5f             	add    BYTE PTR [edi+0x5f],bl
    34de:	53                   	push   ebx
    34df:	49                   	dec    ecx
    34e0:	5a                   	pop    edx
    34e1:	45                   	inc    ebp
    34e2:	4f                   	dec    edi
    34e3:	46                   	inc    esi
    34e4:	5f                   	pop    edi
    34e5:	46                   	inc    esi
    34e6:	4c                   	dec    esp
    34e7:	4f                   	dec    edi
    34e8:	41                   	inc    ecx
    34e9:	54                   	push   esp
    34ea:	38 30                	cmp    BYTE PTR [eax],dh
    34ec:	5f                   	pop    edi
    34ed:	5f                   	pop    edi
    34ee:	20 31                	and    BYTE PTR [ecx],dh
    34f0:	32 00                	xor    al,BYTE PTR [eax]
    34f2:	53                   	push   ebx
    34f3:	49                   	dec    ecx
    34f4:	5a                   	pop    edx
    34f5:	45                   	inc    ebp
    34f6:	5f                   	pop    edi
    34f7:	57                   	push   edi
    34f8:	49                   	dec    ecx
    34f9:	44                   	inc    esp
    34fa:	54                   	push   esp
    34fb:	48                   	dec    eax
    34fc:	00 49 4e             	add    BYTE PTR [ecx+0x4e],cl
    34ff:	54                   	push   esp
    3500:	38 5f 4d             	cmp    BYTE PTR [edi+0x4d],bl
    3503:	41                   	inc    ecx
    3504:	58                   	pop    eax
    3505:	20 5f 5f             	and    BYTE PTR [edi+0x5f],bl
    3508:	49                   	dec    ecx
    3509:	4e                   	dec    esi
    350a:	54                   	push   esp
    350b:	38 5f 4d             	cmp    BYTE PTR [edi+0x4d],bl
    350e:	41                   	inc    ecx
    350f:	58                   	pop    eax
    3510:	5f                   	pop    edi
    3511:	5f                   	pop    edi
    3512:	00 5f 5f             	add    BYTE PTR [edi+0x5f],bl
    3515:	55                   	push   ebp
    3516:	49                   	dec    ecx
    3517:	4e                   	dec    esi
    3518:	54                   	push   esp
    3519:	36 34 5f             	ss xor al,0x5f
    351c:	54                   	push   esp
    351d:	59                   	pop    ecx
    351e:	50                   	push   eax
    351f:	45                   	inc    ebp
    3520:	5f                   	pop    edi
    3521:	5f                   	pop    edi
    3522:	20 6c 6f 6e          	and    BYTE PTR [edi+ebp*2+0x6e],ch
    3526:	67 20 6c 6f          	and    BYTE PTR [si+0x6f],ch
    352a:	6e                   	outs   dx,BYTE PTR ds:[esi]
    352b:	67 20 75 6e          	and    BYTE PTR [di+0x6e],dh
    352f:	73 69                	jae    359a <code-0x4a9b>
    3531:	67 6e                	outs   dx,BYTE PTR ds:[si]
    3533:	65 64 20 69 6e       	gs and BYTE PTR fs:[ecx+0x6e],ch
    3538:	74 00                	je     353a <code-0x4afb>
    353a:	5f                   	pop    edi
    353b:	5f                   	pop    edi
    353c:	46                   	inc    esi
    353d:	4c                   	dec    esp
    353e:	54                   	push   esp
    353f:	33 32                	xor    esi,DWORD PTR [edx]
    3541:	58                   	pop    eax
    3542:	5f                   	pop    edi
    3543:	48                   	dec    eax
    3544:	41                   	inc    ecx
    3545:	53                   	push   ebx
    3546:	5f                   	pop    edi
    3547:	51                   	push   ecx
    3548:	55                   	push   ebp
    3549:	49                   	dec    ecx
    354a:	45                   	inc    ebp
    354b:	54                   	push   esp
    354c:	5f                   	pop    edi
    354d:	4e                   	dec    esi
    354e:	41                   	inc    ecx
    354f:	4e                   	dec    esi
    3550:	5f                   	pop    edi
    3551:	5f                   	pop    edi
    3552:	20 31                	and    BYTE PTR [ecx],dh
    3554:	00 5f 5f             	add    BYTE PTR [edi+0x5f],bl
    3557:	44                   	inc    esp
    3558:	42                   	inc    edx
    3559:	4c                   	dec    esp
    355a:	5f                   	pop    edi
    355b:	4d                   	dec    ebp
    355c:	41                   	inc    ecx
    355d:	58                   	pop    eax
    355e:	5f                   	pop    edi
    355f:	31 30                	xor    DWORD PTR [eax],esi
    3561:	5f                   	pop    edi
    3562:	45                   	inc    ebp
    3563:	58                   	pop    eax
    3564:	50                   	push   eax
    3565:	5f                   	pop    edi
    3566:	5f                   	pop    edi
    3567:	20 33                	and    BYTE PTR [ebx],dh
    3569:	30 38                	xor    BYTE PTR [eax],bh
    356b:	00 55 49             	add    BYTE PTR [ebp+0x49],dl
    356e:	4e                   	dec    esi
    356f:	54                   	push   esp
    3570:	33 32                	xor    esi,DWORD PTR [edx]
    3572:	5f                   	pop    edi
    3573:	4d                   	dec    ebp
    3574:	41                   	inc    ecx
    3575:	58                   	pop    eax
    3576:	20 5f 5f             	and    BYTE PTR [edi+0x5f],bl
    3579:	55                   	push   ebp
    357a:	49                   	dec    ecx
    357b:	4e                   	dec    esi
    357c:	54                   	push   esp
    357d:	33 32                	xor    esi,DWORD PTR [edx]
    357f:	5f                   	pop    edi
    3580:	4d                   	dec    ebp
    3581:	41                   	inc    ecx
    3582:	58                   	pop    eax
    3583:	5f                   	pop    edi
    3584:	5f                   	pop    edi
    3585:	00 5f 5f             	add    BYTE PTR [edi+0x5f],bl
    3588:	69 33 38 36 5f 5f    	imul   esi,DWORD PTR [ebx],0x5f5f3638
    358e:	20 31                	and    BYTE PTR [ecx],dh
    3590:	00 5f 5f             	add    BYTE PTR [edi+0x5f],bl
    3593:	47                   	inc    edi
    3594:	4e                   	dec    esi
    3595:	55                   	push   ebp
    3596:	43                   	inc    ebx
    3597:	5f                   	pop    edi
    3598:	53                   	push   ebx
    3599:	54                   	push   esp
    359a:	44                   	inc    esp
    359b:	43                   	inc    ebx
    359c:	5f                   	pop    edi
    359d:	49                   	dec    ecx
    359e:	4e                   	dec    esi
    359f:	4c                   	dec    esp
    35a0:	49                   	dec    ecx
    35a1:	4e                   	dec    esi
    35a2:	45                   	inc    ebp
    35a3:	5f                   	pop    edi
    35a4:	5f                   	pop    edi
    35a5:	20 31                	and    BYTE PTR [ecx],dh
    35a7:	00 5f 5f             	add    BYTE PTR [edi+0x5f],bl
    35aa:	53                   	push   ebx
    35ab:	49                   	dec    ecx
    35ac:	5a                   	pop    edx
    35ad:	45                   	inc    ebp
    35ae:	4f                   	dec    edi
    35af:	46                   	inc    esi
    35b0:	5f                   	pop    edi
    35b1:	46                   	inc    esi
    35b2:	4c                   	dec    esp
    35b3:	4f                   	dec    edi
    35b4:	41                   	inc    ecx
    35b5:	54                   	push   esp
    35b6:	5f                   	pop    edi
    35b7:	5f                   	pop    edi
    35b8:	20 34 00             	and    BYTE PTR [eax+eax*1],dh
    35bb:	5f                   	pop    edi
    35bc:	5f                   	pop    edi
    35bd:	42                   	inc    edx
    35be:	49                   	dec    ecx
    35bf:	47                   	inc    edi
    35c0:	47                   	inc    edi
    35c1:	45                   	inc    ebp
    35c2:	53                   	push   ebx
    35c3:	54                   	push   esp
    35c4:	5f                   	pop    edi
    35c5:	41                   	inc    ecx
    35c6:	4c                   	dec    esp
    35c7:	49                   	dec    ecx
    35c8:	47                   	inc    edi
    35c9:	4e                   	dec    esi
    35ca:	4d                   	dec    ebp
    35cb:	45                   	inc    ebp
    35cc:	4e                   	dec    esi
    35cd:	54                   	push   esp
    35ce:	5f                   	pop    edi
    35cf:	5f                   	pop    edi
    35d0:	20 31                	and    BYTE PTR [ecx],dh
    35d2:	36 00 57 49          	add    BYTE PTR ss:[edi+0x49],dl
    35d6:	4e                   	dec    esi
    35d7:	54                   	push   esp
    35d8:	5f                   	pop    edi
    35d9:	4d                   	dec    ebp
    35da:	49                   	dec    ecx
    35db:	4e                   	dec    esi
    35dc:	20 5f 5f             	and    BYTE PTR [edi+0x5f],bl
    35df:	57                   	push   edi
    35e0:	49                   	dec    ecx
    35e1:	4e                   	dec    esi
    35e2:	54                   	push   esp
    35e3:	5f                   	pop    edi
    35e4:	4d                   	dec    ebp
    35e5:	49                   	dec    ecx
    35e6:	4e                   	dec    esi
    35e7:	5f                   	pop    edi
    35e8:	5f                   	pop    edi
    35e9:	00 5f 5f             	add    BYTE PTR [edi+0x5f],bl
    35ec:	46                   	inc    esi
    35ed:	4c                   	dec    esp
    35ee:	54                   	push   esp
    35ef:	31 32                	xor    DWORD PTR [edx],esi
    35f1:	38 5f 44             	cmp    BYTE PTR [edi+0x44],bl
    35f4:	45                   	inc    ebp
    35f5:	4e                   	dec    esi
    35f6:	4f                   	dec    edi
    35f7:	52                   	push   edx
    35f8:	4d                   	dec    ebp
    35f9:	5f                   	pop    edi
    35fa:	4d                   	dec    ebp
    35fb:	49                   	dec    ecx
    35fc:	4e                   	dec    esi
    35fd:	5f                   	pop    edi
    35fe:	5f                   	pop    edi
    35ff:	20 36                	and    BYTE PTR [esi],dh
    3601:	2e 34 37             	cs xor al,0x37
    3604:	35 31 37 35 31       	xor    eax,0x31353731
    3609:	31 39                	xor    DWORD PTR [ecx],edi
    360b:	34 33                	xor    al,0x33
    360d:	38 30                	cmp    BYTE PTR [eax],dh
    360f:	32 35 31 31 30 39    	xor    dh,BYTE PTR ds:0x39303131
    3615:	32 34 34             	xor    dh,BYTE PTR [esp+esi*1]
    3618:	33 38                	xor    edi,DWORD PTR [eax]
    361a:	39 35 38 32 32 37    	cmp    DWORD PTR ds:0x37323238,esi
    3620:	36 34 36             	ss xor al,0x36
    3623:	35 35 65 2d 34       	xor    eax,0x342d6535
    3628:	39 36                	cmp    DWORD PTR [esi],esi
    362a:	36 46                	ss inc esi
    362c:	31 32                	xor    DWORD PTR [edx],esi
    362e:	38 00                	cmp    BYTE PTR [eax],al
    3630:	49                   	dec    ecx
    3631:	4e                   	dec    esi
    3632:	54                   	push   esp
    3633:	31 36                	xor    DWORD PTR [esi],esi
    3635:	5f                   	pop    edi
    3636:	4d                   	dec    ebp
    3637:	41                   	inc    ecx
    3638:	58                   	pop    eax
    3639:	20 5f 5f             	and    BYTE PTR [edi+0x5f],bl
    363c:	49                   	dec    ecx
    363d:	4e                   	dec    esi
    363e:	54                   	push   esp
    363f:	31 36                	xor    DWORD PTR [esi],esi
    3641:	5f                   	pop    edi
    3642:	4d                   	dec    ebp
    3643:	41                   	inc    ecx
    3644:	58                   	pop    eax
    3645:	5f                   	pop    edi
    3646:	5f                   	pop    edi
    3647:	00 5f 5f             	add    BYTE PTR [edi+0x5f],bl
    364a:	46                   	inc    esi
    364b:	4c                   	dec    esp
    364c:	54                   	push   esp
    364d:	5f                   	pop    edi
    364e:	4d                   	dec    ebp
    364f:	49                   	dec    ecx
    3650:	4e                   	dec    esi
    3651:	5f                   	pop    edi
    3652:	45                   	inc    ebp
    3653:	58                   	pop    eax
    3654:	50                   	push   eax
    3655:	5f                   	pop    edi
    3656:	5f                   	pop    edi
    3657:	20 28                	and    BYTE PTR [eax],ch
    3659:	2d 31 32 35 29       	sub    eax,0x29353231
    365e:	00 5f 5f             	add    BYTE PTR [edi+0x5f],bl
    3661:	53                   	push   ebx
    3662:	49                   	dec    ecx
    3663:	5a                   	pop    edx
    3664:	45                   	inc    ebp
    3665:	4f                   	dec    edi
    3666:	46                   	inc    esi
    3667:	5f                   	pop    edi
    3668:	46                   	inc    esi
    3669:	4c                   	dec    esp
    366a:	4f                   	dec    edi
    366b:	41                   	inc    ecx
    366c:	54                   	push   esp
    366d:	31 32                	xor    DWORD PTR [edx],esi
    366f:	38 5f 5f             	cmp    BYTE PTR [edi+0x5f],bl
    3672:	20 31                	and    BYTE PTR [ecx],dh
    3674:	36 00 55 49          	add    BYTE PTR ss:[ebp+0x49],dl
    3678:	4e                   	dec    esi
    3679:	54                   	push   esp
    367a:	5f                   	pop    edi
    367b:	46                   	inc    esi
    367c:	41                   	inc    ecx
    367d:	53                   	push   ebx
    367e:	54                   	push   esp
    367f:	36 34 5f             	ss xor al,0x5f
    3682:	57                   	push   edi
    3683:	49                   	dec    ecx
    3684:	44                   	inc    esp
    3685:	54                   	push   esp
    3686:	48                   	dec    eax
    3687:	20 5f 5f             	and    BYTE PTR [edi+0x5f],bl
    368a:	49                   	dec    ecx
    368b:	4e                   	dec    esi
    368c:	54                   	push   esp
    368d:	5f                   	pop    edi
    368e:	46                   	inc    esi
    368f:	41                   	inc    ecx
    3690:	53                   	push   ebx
    3691:	54                   	push   esp
    3692:	36 34 5f             	ss xor al,0x5f
    3695:	57                   	push   edi
    3696:	49                   	dec    ecx
    3697:	44                   	inc    esp
    3698:	54                   	push   esp
    3699:	48                   	dec    eax
    369a:	5f                   	pop    edi
    369b:	5f                   	pop    edi
    369c:	00 5f 5f             	add    BYTE PTR [edi+0x5f],bl
    369f:	44                   	inc    esp
    36a0:	45                   	inc    ebp
    36a1:	43                   	inc    ebx
    36a2:	31 32                	xor    DWORD PTR [edx],esi
    36a4:	38 5f 4d             	cmp    BYTE PTR [edi+0x4d],bl
    36a7:	41                   	inc    ecx
    36a8:	58                   	pop    eax
    36a9:	5f                   	pop    edi
    36aa:	5f                   	pop    edi
    36ab:	20 39                	and    BYTE PTR [ecx],bh
    36ad:	2e 39 39             	cmp    DWORD PTR cs:[ecx],edi
    36b0:	39 39                	cmp    DWORD PTR [ecx],edi
    36b2:	39 39                	cmp    DWORD PTR [ecx],edi
    36b4:	39 39                	cmp    DWORD PTR [ecx],edi
    36b6:	39 39                	cmp    DWORD PTR [ecx],edi
    36b8:	39 39                	cmp    DWORD PTR [ecx],edi
    36ba:	39 39                	cmp    DWORD PTR [ecx],edi
    36bc:	39 39                	cmp    DWORD PTR [ecx],edi
    36be:	39 39                	cmp    DWORD PTR [ecx],edi
    36c0:	39 39                	cmp    DWORD PTR [ecx],edi
    36c2:	39 39                	cmp    DWORD PTR [ecx],edi
    36c4:	39 39                	cmp    DWORD PTR [ecx],edi
    36c6:	39 39                	cmp    DWORD PTR [ecx],edi
    36c8:	39 39                	cmp    DWORD PTR [ecx],edi
    36ca:	39 39                	cmp    DWORD PTR [ecx],edi
    36cc:	39 39                	cmp    DWORD PTR [ecx],edi
    36ce:	39 45 36             	cmp    DWORD PTR [ebp+0x36],eax
    36d1:	31 34 34             	xor    DWORD PTR [esp+esi*1],esi
    36d4:	44                   	inc    esp
    36d5:	4c                   	dec    esp
    36d6:	00 5f 5f             	add    BYTE PTR [edi+0x5f],bl
    36d9:	41                   	inc    ecx
    36da:	54                   	push   esp
    36db:	4f                   	dec    edi
    36dc:	4d                   	dec    ebp
    36dd:	49                   	dec    ecx
    36de:	43                   	inc    ebx
    36df:	5f                   	pop    edi
    36e0:	48                   	dec    eax
    36e1:	4c                   	dec    esp
    36e2:	45                   	inc    ebp
    36e3:	5f                   	pop    edi
    36e4:	41                   	inc    ecx
    36e5:	43                   	inc    ebx
    36e6:	51                   	push   ecx
    36e7:	55                   	push   ebp
    36e8:	49                   	dec    ecx
    36e9:	52                   	push   edx
    36ea:	45                   	inc    ebp
    36eb:	20 36                	and    BYTE PTR [esi],dh
    36ed:	35 35 33 36 00       	xor    eax,0x363335
    36f2:	72 65                	jb     3759 <code-0x48dc>
    36f4:	73 65                	jae    375b <code-0x48da>
    36f6:	72 76                	jb     376e <code-0x48c7>
    36f8:	65 64 00 55 49       	gs add BYTE PTR fs:[ebp+0x49],dl
    36fd:	4e                   	dec    esi
    36fe:	54                   	push   esp
    36ff:	36 34 5f             	ss xor al,0x5f
    3702:	57                   	push   edi
    3703:	49                   	dec    ecx
    3704:	44                   	inc    esp
    3705:	54                   	push   esp
    3706:	48                   	dec    eax
    3707:	20 36                	and    BYTE PTR [esi],dh
    3709:	34 00                	xor    al,0x0
    370b:	5f                   	pop    edi
    370c:	5f                   	pop    edi
    370d:	46                   	inc    esi
    370e:	4c                   	dec    esp
    370f:	54                   	push   esp
    3710:	31 36                	xor    DWORD PTR [esi],esi
    3712:	5f                   	pop    edi
    3713:	4d                   	dec    ebp
    3714:	41                   	inc    ecx
    3715:	58                   	pop    eax
    3716:	5f                   	pop    edi
    3717:	5f                   	pop    edi
    3718:	20 36                	and    BYTE PTR [esi],dh
    371a:	2e 35 35 30 34 30    	cs xor eax,0x30343035
    3720:	30 30                	xor    BYTE PTR [eax],dh
    3722:	30 30                	xor    BYTE PTR [eax],dh
    3724:	30 30                	xor    BYTE PTR [eax],dh
    3726:	30 30                	xor    BYTE PTR [eax],dh
    3728:	30 30                	xor    BYTE PTR [eax],dh
    372a:	30 30                	xor    BYTE PTR [eax],dh
    372c:	30 30                	xor    BYTE PTR [eax],dh
    372e:	30 30                	xor    BYTE PTR [eax],dh
    3730:	30 30                	xor    BYTE PTR [eax],dh
    3732:	30 30                	xor    BYTE PTR [eax],dh
    3734:	30 30                	xor    BYTE PTR [eax],dh
    3736:	30 30                	xor    BYTE PTR [eax],dh
    3738:	30 30                	xor    BYTE PTR [eax],dh
    373a:	30 30                	xor    BYTE PTR [eax],dh
    373c:	30 30                	xor    BYTE PTR [eax],dh
    373e:	65 2b 34 46          	sub    esi,DWORD PTR gs:[esi+eax*2]
    3742:	31 36                	xor    DWORD PTR [esi],esi
    3744:	00 49 4e             	add    BYTE PTR [ecx+0x4e],cl
    3747:	54                   	push   esp
    3748:	36 34 5f             	ss xor al,0x5f
    374b:	4d                   	dec    ebp
    374c:	49                   	dec    ecx
    374d:	4e                   	dec    esi
    374e:	00 5f 5f             	add    BYTE PTR [edi+0x5f],bl
    3751:	55                   	push   ebp
    3752:	49                   	dec    ecx
    3753:	4e                   	dec    esi
    3754:	54                   	push   esp
    3755:	5f                   	pop    edi
    3756:	4c                   	dec    esp
    3757:	45                   	inc    ebp
    3758:	41                   	inc    ecx
    3759:	53                   	push   ebx
    375a:	54                   	push   esp
    375b:	33 32                	xor    esi,DWORD PTR [edx]
    375d:	5f                   	pop    edi
    375e:	4d                   	dec    ebp
    375f:	41                   	inc    ecx
    3760:	58                   	pop    eax
    3761:	5f                   	pop    edi
    3762:	5f                   	pop    edi
    3763:	20 30                	and    BYTE PTR [eax],dh
    3765:	78 66                	js     37cd <code-0x4868>
    3767:	66 66 66 66 66 66 66 	data16 data16 data16 data16 data16 data16 push bp
    376e:	55 
    376f:	00 50 54             	add    BYTE PTR [eax+0x54],dl
    3772:	52                   	push   edx
    3773:	44                   	inc    esp
    3774:	49                   	dec    ecx
    3775:	46                   	inc    esi
    3776:	46                   	inc    esi
    3777:	5f                   	pop    edi
    3778:	57                   	push   edi
    3779:	49                   	dec    ecx
    377a:	44                   	inc    esp
    377b:	54                   	push   esp
    377c:	48                   	dec    eax
    377d:	00 5f 5f             	add    BYTE PTR [edi+0x5f],bl
    3780:	46                   	inc    esi
    3781:	4c                   	dec    esp
    3782:	54                   	push   esp
    3783:	33 32                	xor    esi,DWORD PTR [edx]
    3785:	58                   	pop    eax
    3786:	5f                   	pop    edi
    3787:	4d                   	dec    ebp
    3788:	41                   	inc    ecx
    3789:	58                   	pop    eax
    378a:	5f                   	pop    edi
    378b:	31 30                	xor    DWORD PTR [eax],esi
    378d:	5f                   	pop    edi
    378e:	45                   	inc    ebp
    378f:	58                   	pop    eax
    3790:	50                   	push   eax
    3791:	5f                   	pop    edi
    3792:	5f                   	pop    edi
    3793:	20 33                	and    BYTE PTR [ebx],dh
    3795:	30 38                	xor    BYTE PTR [eax],bh
    3797:	00 5f 5f             	add    BYTE PTR [edi+0x5f],bl
    379a:	55                   	push   ebp
    379b:	49                   	dec    ecx
    379c:	4e                   	dec    esi
    379d:	54                   	push   esp
    379e:	50                   	push   eax
    379f:	54                   	push   esp
    37a0:	52                   	push   edx
    37a1:	5f                   	pop    edi
    37a2:	4d                   	dec    ebp
    37a3:	41                   	inc    ecx
    37a4:	58                   	pop    eax
    37a5:	5f                   	pop    edi
    37a6:	5f                   	pop    edi
    37a7:	20 30                	and    BYTE PTR [eax],dh
    37a9:	78 66                	js     3811 <code-0x4824>
    37ab:	66 66 66 66 66 66 66 	data16 data16 data16 data16 data16 data16 push bp
    37b2:	55 
    37b3:	00 5f 5f             	add    BYTE PTR [edi+0x5f],bl
    37b6:	44                   	inc    esp
    37b7:	42                   	inc    edx
    37b8:	4c                   	dec    esp
    37b9:	5f                   	pop    edi
    37ba:	48                   	dec    eax
    37bb:	41                   	inc    ecx
    37bc:	53                   	push   ebx
    37bd:	5f                   	pop    edi
    37be:	44                   	inc    esp
    37bf:	45                   	inc    ebp
    37c0:	4e                   	dec    esi
    37c1:	4f                   	dec    edi
    37c2:	52                   	push   edx
    37c3:	4d                   	dec    ebp
    37c4:	5f                   	pop    edi
    37c5:	5f                   	pop    edi
    37c6:	20 31                	and    BYTE PTR [ecx],dh
    37c8:	00 5f 5f             	add    BYTE PTR [edi+0x5f],bl
    37cb:	46                   	inc    esi
    37cc:	4c                   	dec    esp
    37cd:	54                   	push   esp
    37ce:	31 36                	xor    DWORD PTR [esi],esi
    37d0:	5f                   	pop    edi
    37d1:	4d                   	dec    ebp
    37d2:	41                   	inc    ecx
    37d3:	58                   	pop    eax
    37d4:	5f                   	pop    edi
    37d5:	31 30                	xor    DWORD PTR [eax],esi
    37d7:	5f                   	pop    edi
    37d8:	45                   	inc    ebp
    37d9:	58                   	pop    eax
    37da:	50                   	push   eax
    37db:	5f                   	pop    edi
    37dc:	5f                   	pop    edi
    37dd:	20 34 00             	and    BYTE PTR [eax+eax*1],dh
    37e0:	5f                   	pop    edi
    37e1:	5f                   	pop    edi
    37e2:	46                   	inc    esi
    37e3:	4c                   	dec    esp
    37e4:	54                   	push   esp
    37e5:	33 32                	xor    esi,DWORD PTR [edx]
    37e7:	58                   	pop    eax
    37e8:	5f                   	pop    edi
    37e9:	4e                   	dec    esi
    37ea:	4f                   	dec    edi
    37eb:	52                   	push   edx
    37ec:	4d                   	dec    ebp
    37ed:	5f                   	pop    edi
    37ee:	4d                   	dec    ebp
    37ef:	41                   	inc    ecx
    37f0:	58                   	pop    eax
    37f1:	5f                   	pop    edi
    37f2:	5f                   	pop    edi
    37f3:	20 31                	and    BYTE PTR [ecx],dh
    37f5:	2e 37                	cs aaa
    37f7:	39 37                	cmp    DWORD PTR [edi],esi
    37f9:	36 39 33             	cmp    DWORD PTR ss:[ebx],esi
    37fc:	31 33                	xor    DWORD PTR [ebx],esi
    37fe:	34 38                	xor    al,0x38
    3800:	36 32 33             	xor    dh,BYTE PTR ss:[ebx]
    3803:	31 35 37 30 38 31    	xor    DWORD PTR ds:0x31383037,esi
    3809:	34 35                	xor    al,0x35
    380b:	32 37                	xor    dh,BYTE PTR [edi]
    380d:	34 32                	xor    al,0x32
    380f:	33 37                	xor    esi,DWORD PTR [edi]
    3811:	33 31                	xor    esi,DWORD PTR [ecx]
    3813:	37                   	aaa
    3814:	30 34 33             	xor    BYTE PTR [ebx+esi*1],dh
    3817:	35 37 65 2b 33       	xor    eax,0x332b6537
    381c:	30 38                	xor    BYTE PTR [eax],bh
    381e:	46                   	inc    esi
    381f:	33 32                	xor    esi,DWORD PTR [edx]
    3821:	78 00                	js     3823 <code-0x4812>
    3823:	55                   	push   ebp
    3824:	49                   	dec    ecx
    3825:	4e                   	dec    esi
    3826:	54                   	push   esp
    3827:	31 36                	xor    DWORD PTR [esi],esi
    3829:	5f                   	pop    edi
    382a:	43                   	inc    ebx
    382b:	28 63 29             	sub    BYTE PTR [ebx+0x29],ah
    382e:	20 5f 5f             	and    BYTE PTR [edi+0x5f],bl
    3831:	55                   	push   ebp
    3832:	49                   	dec    ecx
    3833:	4e                   	dec    esi
    3834:	54                   	push   esp
    3835:	31 36                	xor    DWORD PTR [esi],esi
    3837:	5f                   	pop    edi
    3838:	43                   	inc    ebx
    3839:	28 63 29             	sub    BYTE PTR [ebx+0x29],ah
    383c:	00 5f 5f             	add    BYTE PTR [edi+0x5f],bl
    383f:	46                   	inc    esi
    3840:	4c                   	dec    esp
    3841:	54                   	push   esp
    3842:	33 32                	xor    esi,DWORD PTR [edx]
    3844:	5f                   	pop    edi
    3845:	4d                   	dec    ebp
    3846:	41                   	inc    ecx
    3847:	58                   	pop    eax
    3848:	5f                   	pop    edi
    3849:	31 30                	xor    DWORD PTR [eax],esi
    384b:	5f                   	pop    edi
    384c:	45                   	inc    ebp
    384d:	58                   	pop    eax
    384e:	50                   	push   eax
    384f:	5f                   	pop    edi
    3850:	5f                   	pop    edi
    3851:	20 33                	and    BYTE PTR [ebx],dh
    3853:	38 00                	cmp    BYTE PTR [eax],al
    3855:	55                   	push   ebp
    3856:	49                   	dec    ecx
    3857:	4e                   	dec    esi
    3858:	54                   	push   esp
    3859:	5f                   	pop    edi
    385a:	46                   	inc    esi
    385b:	41                   	inc    ecx
    385c:	53                   	push   ebx
    385d:	54                   	push   esp
    385e:	31 36                	xor    DWORD PTR [esi],esi
    3860:	5f                   	pop    edi
    3861:	4d                   	dec    ebp
    3862:	41                   	inc    ecx
    3863:	58                   	pop    eax
    3864:	00 5f 5f             	add    BYTE PTR [edi+0x5f],bl
    3867:	42                   	inc    edx
    3868:	46                   	inc    esi
    3869:	4c                   	dec    esp
    386a:	54                   	push   esp
    386b:	31 36                	xor    DWORD PTR [esi],esi
    386d:	5f                   	pop    edi
    386e:	4d                   	dec    ebp
    386f:	49                   	dec    ecx
    3870:	4e                   	dec    esi
    3871:	5f                   	pop    edi
    3872:	45                   	inc    ebp
    3873:	58                   	pop    eax
    3874:	50                   	push   eax
    3875:	5f                   	pop    edi
    3876:	5f                   	pop    edi
    3877:	20 28                	and    BYTE PTR [eax],ch
    3879:	2d 31 32 35 29       	sub    eax,0x29353231
    387e:	00 5f 5f             	add    BYTE PTR [edi+0x5f],bl
    3881:	49                   	dec    ecx
    3882:	4e                   	dec    esi
    3883:	54                   	push   esp
    3884:	5f                   	pop    edi
    3885:	4c                   	dec    esp
    3886:	45                   	inc    ebp
    3887:	41                   	inc    ecx
    3888:	53                   	push   ebx
    3889:	54                   	push   esp
    388a:	33 32                	xor    esi,DWORD PTR [edx]
    388c:	5f                   	pop    edi
    388d:	4d                   	dec    ebp
    388e:	41                   	inc    ecx
    388f:	58                   	pop    eax
    3890:	5f                   	pop    edi
    3891:	5f                   	pop    edi
    3892:	20 30                	and    BYTE PTR [eax],dh
    3894:	78 37                	js     38cd <code-0x4768>
    3896:	66 66 66 66 66 66 66 	data16 data16 data16 data16 data16 data16 data16 add BYTE PTR [ebp+0x49],dl
    389d:	00 55 49 
    38a0:	4e                   	dec    esi
    38a1:	54                   	push   esp
    38a2:	5f                   	pop    edi
    38a3:	4c                   	dec    esp
    38a4:	45                   	inc    ebp
    38a5:	41                   	inc    ecx
    38a6:	53                   	push   ebx
    38a7:	54                   	push   esp
    38a8:	33 32                	xor    esi,DWORD PTR [edx]
    38aa:	5f                   	pop    edi
    38ab:	57                   	push   edi
    38ac:	49                   	dec    ecx
    38ad:	44                   	inc    esp
    38ae:	54                   	push   esp
    38af:	48                   	dec    eax
    38b0:	00 5f 5f             	add    BYTE PTR [edi+0x5f],bl
    38b3:	46                   	inc    esi
    38b4:	4c                   	dec    esp
    38b5:	54                   	push   esp
    38b6:	36 34 5f             	ss xor al,0x5f
    38b9:	44                   	inc    esp
    38ba:	45                   	inc    ebp
    38bb:	4e                   	dec    esi
    38bc:	4f                   	dec    edi
    38bd:	52                   	push   edx
    38be:	4d                   	dec    ebp
    38bf:	5f                   	pop    edi
    38c0:	4d                   	dec    ebp
    38c1:	49                   	dec    ecx
    38c2:	4e                   	dec    esi
    38c3:	5f                   	pop    edi
    38c4:	5f                   	pop    edi
    38c5:	20 34 2e             	and    BYTE PTR [esi+ebp*1],dh
    38c8:	39 34 30             	cmp    DWORD PTR [eax+esi*1],esi
    38cb:	36 35 36 34 35 38    	ss xor eax,0x38353436
    38d1:	34 31                	xor    al,0x31
    38d3:	32 34 36             	xor    dh,BYTE PTR [esi+esi*1]
    38d6:	35 34 34 31 37       	xor    eax,0x37313434
    38db:	36 35 36 38 37 39    	ss xor eax,0x39373836
    38e1:	32 38                	xor    bh,BYTE PTR [eax]
    38e3:	36 38 32             	cmp    BYTE PTR ss:[edx],dh
    38e6:	32 31                	xor    dh,BYTE PTR [ecx]
    38e8:	33 37                	xor    esi,DWORD PTR [edi]
    38ea:	32 65 2d             	xor    ah,BYTE PTR [ebp+0x2d]
    38ed:	33 32                	xor    esi,DWORD PTR [edx]
    38ef:	34 46                	xor    al,0x46
    38f1:	36 34 00             	ss xor al,0x0
    38f4:	5f                   	pop    edi
    38f5:	5f                   	pop    edi
    38f6:	4c                   	dec    esp
    38f7:	44                   	inc    esp
    38f8:	42                   	inc    edx
    38f9:	4c                   	dec    esp
    38fa:	5f                   	pop    edi
    38fb:	4d                   	dec    ebp
    38fc:	41                   	inc    ecx
    38fd:	58                   	pop    eax
    38fe:	5f                   	pop    edi
    38ff:	31 30                	xor    DWORD PTR [eax],esi
    3901:	5f                   	pop    edi
    3902:	45                   	inc    ebp
    3903:	58                   	pop    eax
    3904:	50                   	push   eax
    3905:	5f                   	pop    edi
    3906:	5f                   	pop    edi
    3907:	20 34 39             	and    BYTE PTR [ecx+edi*1],dh
    390a:	33 32                	xor    esi,DWORD PTR [edx]
    390c:	00 5f 5f             	add    BYTE PTR [edi+0x5f],bl
    390f:	44                   	inc    esp
    3910:	45                   	inc    ebp
    3911:	43                   	inc    ebx
    3912:	36 34 5f             	ss xor al,0x5f
    3915:	4d                   	dec    ebp
    3916:	49                   	dec    ecx
    3917:	4e                   	dec    esi
    3918:	5f                   	pop    edi
    3919:	5f                   	pop    edi
    391a:	20 31                	and    BYTE PTR [ecx],dh
    391c:	45                   	inc    ebp
    391d:	2d 33 38 33 44       	sub    eax,0x44333833
    3922:	44                   	inc    esp
    3923:	00 5f 5f             	add    BYTE PTR [edi+0x5f],bl
    3926:	46                   	inc    esi
    3927:	4c                   	dec    esp
    3928:	54                   	push   esp
    3929:	33 32                	xor    esi,DWORD PTR [edx]
    392b:	5f                   	pop    edi
    392c:	4d                   	dec    ebp
    392d:	49                   	dec    ecx
    392e:	4e                   	dec    esi
    392f:	5f                   	pop    edi
    3930:	5f                   	pop    edi
    3931:	20 31                	and    BYTE PTR [ecx],dh
    3933:	2e 31 37             	xor    DWORD PTR cs:[edi],esi
    3936:	35 34 39 34 33       	xor    eax,0x33343934
    393b:	35 30 38 32 32       	xor    eax,0x32323830
    3940:	32 38                	xor    bh,BYTE PTR [eax]
    3942:	37                   	aaa
    3943:	35 30 37 39 36       	xor    eax,0x36393730
    3948:	38 37                	cmp    BYTE PTR [edi],dh
    394a:	33 36                	xor    esi,DWORD PTR [esi]
    394c:	35 33 37 32 32       	xor    eax,0x32323733
    3951:	32 32                	xor    dh,BYTE PTR [edx]
    3953:	34 35                	xor    al,0x35
    3955:	36 38 65 2d          	cmp    BYTE PTR ss:[ebp+0x2d],ah
    3959:	33 38                	xor    edi,DWORD PTR [eax]
    395b:	46                   	inc    esi
    395c:	33 32                	xor    esi,DWORD PTR [edx]
    395e:	00 5f 5f             	add    BYTE PTR [edi+0x5f],bl
    3961:	44                   	inc    esp
    3962:	42                   	inc    edx
    3963:	4c                   	dec    esp
    3964:	5f                   	pop    edi
    3965:	45                   	inc    ebp
    3966:	50                   	push   eax
    3967:	53                   	push   ebx
    3968:	49                   	dec    ecx
    3969:	4c                   	dec    esp
    396a:	4f                   	dec    edi
    396b:	4e                   	dec    esi
    396c:	5f                   	pop    edi
    396d:	5f                   	pop    edi
    396e:	20 28                	and    BYTE PTR [eax],ch
    3970:	28 64 6f 75          	sub    BYTE PTR [edi+ebp*2+0x75],ah
    3974:	62 6c 65 29          	bound  ebp,QWORD PTR [ebp+eiz*2+0x29]
    3978:	32 2e                	xor    ch,BYTE PTR [esi]
    397a:	32 32                	xor    dh,BYTE PTR [edx]
    397c:	30 34 34             	xor    BYTE PTR [esp+esi*1],dh
    397f:	36 30 34 39          	xor    BYTE PTR ss:[ecx+edi*1],dh
    3983:	32 35 30 33 31 33    	xor    dh,BYTE PTR ds:0x33313330
    3989:	30 38                	xor    BYTE PTR [eax],bh
    398b:	30 38                	xor    BYTE PTR [eax],bh
    398d:	34 37                	xor    al,0x37
    398f:	32 36                	xor    dh,BYTE PTR [esi]
    3991:	33 33                	xor    esi,DWORD PTR [ebx]
    3993:	33 36                	xor    esi,DWORD PTR [esi]
    3995:	31 38                	xor    DWORD PTR [eax],edi
    3997:	31 36                	xor    DWORD PTR [esi],esi
    3999:	34 30                	xor    al,0x30
    399b:	36 32 65 2d          	xor    ah,BYTE PTR ss:[ebp+0x2d]
    399f:	31 36                	xor    DWORD PTR [esi],esi
    39a1:	4c                   	dec    esp
    39a2:	29 00                	sub    DWORD PTR [eax],eax
    39a4:	5f                   	pop    edi
    39a5:	5f                   	pop    edi
    39a6:	50                   	push   eax
    39a7:	52                   	push   edx
    39a8:	41                   	inc    ecx
    39a9:	47                   	inc    edi
    39aa:	4d                   	dec    ebp
    39ab:	41                   	inc    ecx
    39ac:	5f                   	pop    edi
    39ad:	52                   	push   edx
    39ae:	45                   	inc    ebp
    39af:	44                   	inc    esp
    39b0:	45                   	inc    ebp
    39b1:	46                   	inc    esi
    39b2:	49                   	dec    ecx
    39b3:	4e                   	dec    esi
    39b4:	45                   	inc    ebp
    39b5:	5f                   	pop    edi
    39b6:	45                   	inc    ebp
    39b7:	58                   	pop    eax
    39b8:	54                   	push   esp
    39b9:	4e                   	dec    esi
    39ba:	41                   	inc    ecx
    39bb:	4d                   	dec    ebp
    39bc:	45                   	inc    ebp
    39bd:	20 31                	and    BYTE PTR [ecx],dh
    39bf:	00 5f 5f             	add    BYTE PTR [edi+0x5f],bl
    39c2:	53                   	push   ebx
    39c3:	49                   	dec    ecx
    39c4:	47                   	inc    edi
    39c5:	5f                   	pop    edi
    39c6:	41                   	inc    ecx
    39c7:	54                   	push   esp
    39c8:	4f                   	dec    edi
    39c9:	4d                   	dec    ebp
    39ca:	49                   	dec    ecx
    39cb:	43                   	inc    ebx
    39cc:	5f                   	pop    edi
    39cd:	54                   	push   esp
    39ce:	59                   	pop    ecx
    39cf:	50                   	push   eax
    39d0:	45                   	inc    ebp
    39d1:	5f                   	pop    edi
    39d2:	5f                   	pop    edi
    39d3:	20 69 6e             	and    BYTE PTR [ecx+0x6e],ch
    39d6:	74 00                	je     39d8 <code-0x465d>
    39d8:	5f                   	pop    edi
    39d9:	5f                   	pop    edi
    39da:	46                   	inc    esi
    39db:	4c                   	dec    esp
    39dc:	54                   	push   esp
    39dd:	36 34 58             	ss xor al,0x58
    39e0:	5f                   	pop    edi
    39e1:	44                   	inc    esp
    39e2:	45                   	inc    ebp
    39e3:	4e                   	dec    esi
    39e4:	4f                   	dec    edi
    39e5:	52                   	push   edx
    39e6:	4d                   	dec    ebp
    39e7:	5f                   	pop    edi
    39e8:	4d                   	dec    ebp
    39e9:	49                   	dec    ecx
    39ea:	4e                   	dec    esi
    39eb:	5f                   	pop    edi
    39ec:	5f                   	pop    edi
    39ed:	20 33                	and    BYTE PTR [ebx],dh
    39ef:	2e 36 34 35          	cs ss xor al,0x35
    39f3:	31 39                	xor    DWORD PTR [ecx],edi
    39f5:	39 35 33 31 38 38    	cmp    DWORD PTR ds:0x38383133,esi
    39fb:	32 34 37             	xor    dh,BYTE PTR [edi+esi*1]
    39fe:	34 36                	xor    al,0x36
    3a00:	30 32                	xor    BYTE PTR [edx],dh
    3a02:	35 32 38 34 30       	xor    eax,0x30343832
    3a07:	35 39 33 33 36       	xor    eax,0x36333339
    3a0c:	31 39                	xor    DWORD PTR [ecx],edi
    3a0e:	34 31                	xor    al,0x31
    3a10:	39 38                	cmp    DWORD PTR [eax],edi
    3a12:	32 65 2d             	xor    ah,BYTE PTR [ebp+0x2d]
    3a15:	34 39                	xor    al,0x39
    3a17:	35 31 46 36 34       	xor    eax,0x34364631
    3a1c:	78 00                	js     3a1e <code-0x4617>
    3a1e:	5f                   	pop    edi
    3a1f:	5f                   	pop    edi
    3a20:	46                   	inc    esi
    3a21:	4c                   	dec    esp
    3a22:	54                   	push   esp
    3a23:	31 32                	xor    DWORD PTR [edx],esi
    3a25:	38 5f 48             	cmp    BYTE PTR [edi+0x48],bl
    3a28:	41                   	inc    ecx
    3a29:	53                   	push   ebx
    3a2a:	5f                   	pop    edi
    3a2b:	44                   	inc    esp
    3a2c:	45                   	inc    ebp
    3a2d:	4e                   	dec    esi
    3a2e:	4f                   	dec    edi
    3a2f:	52                   	push   edx
    3a30:	4d                   	dec    ebp
    3a31:	5f                   	pop    edi
    3a32:	5f                   	pop    edi
    3a33:	20 31                	and    BYTE PTR [ecx],dh
    3a35:	00 49 4e             	add    BYTE PTR [ecx+0x4e],cl
    3a38:	54                   	push   esp
    3a39:	5f                   	pop    edi
    3a3a:	4c                   	dec    esp
    3a3b:	45                   	inc    ebp
    3a3c:	41                   	inc    ecx
    3a3d:	53                   	push   ebx
    3a3e:	54                   	push   esp
    3a3f:	33 32                	xor    esi,DWORD PTR [edx]
    3a41:	5f                   	pop    edi
    3a42:	4d                   	dec    ebp
    3a43:	41                   	inc    ecx
    3a44:	58                   	pop    eax
    3a45:	20 5f 5f             	and    BYTE PTR [edi+0x5f],bl
    3a48:	49                   	dec    ecx
    3a49:	4e                   	dec    esi
    3a4a:	54                   	push   esp
    3a4b:	5f                   	pop    edi
    3a4c:	4c                   	dec    esp
    3a4d:	45                   	inc    ebp
    3a4e:	41                   	inc    ecx
    3a4f:	53                   	push   ebx
    3a50:	54                   	push   esp
    3a51:	33 32                	xor    esi,DWORD PTR [edx]
    3a53:	5f                   	pop    edi
    3a54:	4d                   	dec    ebp
    3a55:	41                   	inc    ecx
    3a56:	58                   	pop    eax
    3a57:	5f                   	pop    edi
    3a58:	5f                   	pop    edi
    3a59:	00 5f 5f             	add    BYTE PTR [edi+0x5f],bl
    3a5c:	42                   	inc    edx
    3a5d:	46                   	inc    esi
    3a5e:	4c                   	dec    esp
    3a5f:	54                   	push   esp
    3a60:	31 36                	xor    DWORD PTR [esi],esi
    3a62:	5f                   	pop    edi
    3a63:	4d                   	dec    ebp
    3a64:	41                   	inc    ecx
    3a65:	58                   	pop    eax
    3a66:	5f                   	pop    edi
    3a67:	31 30                	xor    DWORD PTR [eax],esi
    3a69:	5f                   	pop    edi
    3a6a:	45                   	inc    ebp
    3a6b:	58                   	pop    eax
    3a6c:	50                   	push   eax
    3a6d:	5f                   	pop    edi
    3a6e:	5f                   	pop    edi
    3a6f:	20 33                	and    BYTE PTR [ebx],dh
    3a71:	38 00                	cmp    BYTE PTR [eax],al
    3a73:	5f                   	pop    edi
    3a74:	5f                   	pop    edi
    3a75:	44                   	inc    esp
    3a76:	42                   	inc    edx
    3a77:	4c                   	dec    esp
    3a78:	5f                   	pop    edi
    3a79:	44                   	inc    esp
    3a7a:	45                   	inc    ebp
    3a7b:	43                   	inc    ebx
    3a7c:	49                   	dec    ecx
    3a7d:	4d                   	dec    ebp
    3a7e:	41                   	inc    ecx
    3a7f:	4c                   	dec    esp
    3a80:	5f                   	pop    edi
    3a81:	44                   	inc    esp
    3a82:	49                   	dec    ecx
    3a83:	47                   	inc    edi
    3a84:	5f                   	pop    edi
    3a85:	5f                   	pop    edi
    3a86:	20 31                	and    BYTE PTR [ecx],dh
    3a88:	37                   	aaa
    3a89:	00 5f 5f             	add    BYTE PTR [edi+0x5f],bl
    3a8c:	4c                   	dec    esp
    3a8d:	44                   	inc    esp
    3a8e:	42                   	inc    edx
    3a8f:	4c                   	dec    esp
    3a90:	5f                   	pop    edi
    3a91:	48                   	dec    eax
    3a92:	41                   	inc    ecx
    3a93:	53                   	push   ebx
    3a94:	5f                   	pop    edi
    3a95:	44                   	inc    esp
    3a96:	45                   	inc    ebp
    3a97:	4e                   	dec    esi
    3a98:	4f                   	dec    edi
    3a99:	52                   	push   edx
    3a9a:	4d                   	dec    ebp
    3a9b:	5f                   	pop    edi
    3a9c:	5f                   	pop    edi
    3a9d:	20 31                	and    BYTE PTR [ecx],dh
    3a9f:	00 55 49             	add    BYTE PTR [ebp+0x49],dl
    3aa2:	4e                   	dec    esi
    3aa3:	54                   	push   esp
    3aa4:	5f                   	pop    edi
    3aa5:	4c                   	dec    esp
    3aa6:	45                   	inc    ebp
    3aa7:	41                   	inc    ecx
    3aa8:	53                   	push   ebx
    3aa9:	54                   	push   esp
    3aaa:	31 36                	xor    DWORD PTR [esi],esi
    3aac:	5f                   	pop    edi
    3aad:	4d                   	dec    ebp
    3aae:	41                   	inc    ecx
    3aaf:	58                   	pop    eax
    3ab0:	20 5f 5f             	and    BYTE PTR [edi+0x5f],bl
    3ab3:	55                   	push   ebp
    3ab4:	49                   	dec    ecx
    3ab5:	4e                   	dec    esi
    3ab6:	54                   	push   esp
    3ab7:	5f                   	pop    edi
    3ab8:	4c                   	dec    esp
    3ab9:	45                   	inc    ebp
    3aba:	41                   	inc    ecx
    3abb:	53                   	push   ebx
    3abc:	54                   	push   esp
    3abd:	31 36                	xor    DWORD PTR [esi],esi
    3abf:	5f                   	pop    edi
    3ac0:	4d                   	dec    ebp
    3ac1:	41                   	inc    ecx
    3ac2:	58                   	pop    eax
    3ac3:	5f                   	pop    edi
    3ac4:	5f                   	pop    edi
    3ac5:	00 55 49             	add    BYTE PTR [ebp+0x49],dl
    3ac8:	4e                   	dec    esi
    3ac9:	54                   	push   esp
    3aca:	50                   	push   eax
    3acb:	54                   	push   esp
    3acc:	52                   	push   edx
    3acd:	5f                   	pop    edi
    3ace:	4d                   	dec    ebp
    3acf:	41                   	inc    ecx
    3ad0:	58                   	pop    eax
    3ad1:	00 49 4e             	add    BYTE PTR [ecx+0x4e],cl
    3ad4:	54                   	push   esp
    3ad5:	33 32                	xor    esi,DWORD PTR [edx]
    3ad7:	5f                   	pop    edi
    3ad8:	4d                   	dec    ebp
    3ad9:	49                   	dec    ecx
    3ada:	4e                   	dec    esi
    3adb:	20 28                	and    BYTE PTR [eax],ch
    3add:	2d 49 4e 54 33       	sub    eax,0x33544e49
    3ae2:	32 5f 4d             	xor    bl,BYTE PTR [edi+0x4d]
    3ae5:	41                   	inc    ecx
    3ae6:	58                   	pop    eax
    3ae7:	20 2d 20 31 29 00    	and    BYTE PTR ds:0x293120,ch
    3aed:	5f                   	pop    edi
    3aee:	5f                   	pop    edi
    3aef:	44                   	inc    esp
    3af0:	42                   	inc    edx
    3af1:	4c                   	dec    esp
    3af2:	5f                   	pop    edi
    3af3:	44                   	inc    esp
    3af4:	49                   	dec    ecx
    3af5:	47                   	inc    edi
    3af6:	5f                   	pop    edi
    3af7:	5f                   	pop    edi
    3af8:	20 31                	and    BYTE PTR [ecx],dh
    3afa:	35 00 5f 5f 44       	xor    eax,0x445f5f00
    3aff:	45                   	inc    ebp
    3b00:	43                   	inc    ebx
    3b01:	36 34 5f             	ss xor al,0x5f
    3b04:	4d                   	dec    ebp
    3b05:	41                   	inc    ecx
    3b06:	4e                   	dec    esi
    3b07:	54                   	push   esp
    3b08:	5f                   	pop    edi
    3b09:	44                   	inc    esp
    3b0a:	49                   	dec    ecx
    3b0b:	47                   	inc    edi
    3b0c:	5f                   	pop    edi
    3b0d:	5f                   	pop    edi
    3b0e:	20 31                	and    BYTE PTR [ecx],dh
    3b10:	36 00 5f 5f          	add    BYTE PTR ss:[edi+0x5f],bl
    3b14:	46                   	inc    esi
    3b15:	4c                   	dec    esp
    3b16:	54                   	push   esp
    3b17:	5f                   	pop    edi
    3b18:	48                   	dec    eax
    3b19:	41                   	inc    ecx
    3b1a:	53                   	push   ebx
    3b1b:	5f                   	pop    edi
    3b1c:	44                   	inc    esp
    3b1d:	45                   	inc    ebp
    3b1e:	4e                   	dec    esi
    3b1f:	4f                   	dec    edi
    3b20:	52                   	push   edx
    3b21:	4d                   	dec    ebp
    3b22:	5f                   	pop    edi
    3b23:	5f                   	pop    edi
    3b24:	20 31                	and    BYTE PTR [ecx],dh
    3b26:	00 5f 5f             	add    BYTE PTR [edi+0x5f],bl
    3b29:	49                   	dec    ecx
    3b2a:	4e                   	dec    esi
    3b2b:	54                   	push   esp
    3b2c:	5f                   	pop    edi
    3b2d:	46                   	inc    esi
    3b2e:	41                   	inc    ecx
    3b2f:	53                   	push   ebx
    3b30:	54                   	push   esp
    3b31:	36 34 5f             	ss xor al,0x5f
    3b34:	57                   	push   edi
    3b35:	49                   	dec    ecx
    3b36:	44                   	inc    esp
    3b37:	54                   	push   esp
    3b38:	48                   	dec    eax
    3b39:	5f                   	pop    edi
    3b3a:	5f                   	pop    edi
    3b3b:	20 36                	and    BYTE PTR [esi],dh
    3b3d:	34 00                	xor    al,0x0
    3b3f:	5f                   	pop    edi
    3b40:	5f                   	pop    edi
    3b41:	44                   	inc    esp
    3b42:	45                   	inc    ebp
    3b43:	43                   	inc    ebx
    3b44:	49                   	dec    ecx
    3b45:	4d                   	dec    ebp
    3b46:	41                   	inc    ecx
    3b47:	4c                   	dec    esp
    3b48:	5f                   	pop    edi
    3b49:	44                   	inc    esp
    3b4a:	49                   	dec    ecx
    3b4b:	47                   	inc    edi
    3b4c:	5f                   	pop    edi
    3b4d:	5f                   	pop    edi
    3b4e:	20 32                	and    BYTE PTR [edx],dh
    3b50:	31 00                	xor    DWORD PTR [eax],eax
    3b52:	70 72                	jo     3bc6 <code-0x446f>
    3b54:	69 6e 74 5f 69 6e 74 	imul   ebp,DWORD PTR [esi+0x74],0x746e695f
    3b5b:	00 5f 46             	add    BYTE PTR [edi+0x46],bl
    3b5e:	6c                   	ins    BYTE PTR es:[edi],dx
    3b5f:	6f                   	outs   dx,DWORD PTR ds:[esi]
    3b60:	61                   	popa
    3b61:	74 31                	je     3b94 <code-0x44a1>
    3b63:	32 38                	xor    bh,BYTE PTR [eax]
    3b65:	00 5f 5f             	add    BYTE PTR [edi+0x5f],bl
    3b68:	53                   	push   ebx
    3b69:	49                   	dec    ecx
    3b6a:	5a                   	pop    edx
    3b6b:	45                   	inc    ebp
    3b6c:	5f                   	pop    edi
    3b6d:	54                   	push   esp
    3b6e:	20 00                	and    BYTE PTR [eax],al
    3b70:	5f                   	pop    edi
    3b71:	42                   	inc    edx
    3b72:	53                   	push   ebx
    3b73:	44                   	inc    esp
    3b74:	5f                   	pop    edi
    3b75:	57                   	push   edi
    3b76:	43                   	inc    ebx
    3b77:	48                   	dec    eax
    3b78:	41                   	inc    ecx
    3b79:	52                   	push   edx
    3b7a:	5f                   	pop    edi
    3b7b:	54                   	push   esp
    3b7c:	5f                   	pop    edi
    3b7d:	00 42 4f             	add    BYTE PTR [edx+0x4f],al
    3b80:	4f                   	dec    edi
    3b81:	54                   	push   esp
    3b82:	5f                   	pop    edi
    3b83:	55                   	push   ebp
    3b84:	54                   	push   esp
    3b85:	49                   	dec    ecx
    3b86:	4c                   	dec    esp
    3b87:	5f                   	pop    edi
    3b88:	48                   	dec    eax
    3b89:	20 00                	and    BYTE PTR [eax],al
    3b8b:	5f                   	pop    edi
    3b8c:	54                   	push   esp
    3b8d:	5f                   	pop    edi
    3b8e:	53                   	push   ebx
    3b8f:	49                   	dec    ecx
    3b90:	5a                   	pop    edx
    3b91:	45                   	inc    ebp
    3b92:	20 00                	and    BYTE PTR [eax],al
    3b94:	5f                   	pop    edi
    3b95:	54                   	push   esp
    3b96:	5f                   	pop    edi
    3b97:	53                   	push   ebx
    3b98:	49                   	dec    ecx
    3b99:	5a                   	pop    edx
    3b9a:	45                   	inc    ebp
    3b9b:	5f                   	pop    edi
    3b9c:	20 00                	and    BYTE PTR [eax],al
    3b9e:	5f                   	pop    edi
    3b9f:	57                   	push   edi
    3ba0:	43                   	inc    ebx
    3ba1:	48                   	dec    eax
    3ba2:	41                   	inc    ecx
    3ba3:	52                   	push   edx
    3ba4:	5f                   	pop    edi
    3ba5:	54                   	push   esp
    3ba6:	5f                   	pop    edi
    3ba7:	44                   	inc    esp
    3ba8:	45                   	inc    ebp
    3ba9:	46                   	inc    esi
    3baa:	49                   	dec    ecx
    3bab:	4e                   	dec    esi
    3bac:	45                   	inc    ebp
    3bad:	44                   	inc    esp
    3bae:	5f                   	pop    edi
    3baf:	20 00                	and    BYTE PTR [eax],al
    3bb1:	5f                   	pop    edi
    3bb2:	42                   	inc    edx
    3bb3:	53                   	push   ebx
    3bb4:	44                   	inc    esp
    3bb5:	5f                   	pop    edi
    3bb6:	53                   	push   ebx
    3bb7:	49                   	dec    ecx
    3bb8:	5a                   	pop    edx
    3bb9:	45                   	inc    ebp
    3bba:	5f                   	pop    edi
    3bbb:	54                   	push   esp
    3bbc:	5f                   	pop    edi
    3bbd:	20 00                	and    BYTE PTR [eax],al
    3bbf:	5f                   	pop    edi
    3bc0:	47                   	inc    edi
    3bc1:	43                   	inc    ebx
    3bc2:	43                   	inc    ebx
    3bc3:	5f                   	pop    edi
    3bc4:	57                   	push   edi
    3bc5:	43                   	inc    ebx
    3bc6:	48                   	dec    eax
    3bc7:	41                   	inc    ecx
    3bc8:	52                   	push   edx
    3bc9:	5f                   	pop    edi
    3bca:	54                   	push   esp
    3bcb:	20 00                	and    BYTE PTR [eax],al
    3bcd:	5f                   	pop    edi
    3bce:	5f                   	pop    edi
    3bcf:	44                   	inc    esp
    3bd0:	45                   	inc    ebp
    3bd1:	46                   	inc    esi
    3bd2:	49                   	dec    ecx
    3bd3:	4e                   	dec    esi
    3bd4:	45                   	inc    ebp
    3bd5:	44                   	inc    esp
    3bd6:	5f                   	pop    edi
    3bd7:	70 74                	jo     3c4d <code-0x43e8>
    3bd9:	72 64                	jb     3c3f <code-0x43f6>
    3bdb:	69 66 66 5f 74 20 00 	imul   esp,DWORD PTR [esi+0x66],0x20745f
    3be2:	5f                   	pop    edi
    3be3:	42                   	inc    edx
    3be4:	53                   	push   ebx
    3be5:	44                   	inc    esp
    3be6:	5f                   	pop    edi
    3be7:	53                   	push   ebx
    3be8:	49                   	dec    ecx
    3be9:	5a                   	pop    edx
    3bea:	45                   	inc    ebp
    3beb:	5f                   	pop    edi
    3bec:	54                   	push   esp
    3bed:	5f                   	pop    edi
    3bee:	44                   	inc    esp
    3bef:	45                   	inc    ebp
    3bf0:	46                   	inc    esi
    3bf1:	49                   	dec    ecx
    3bf2:	4e                   	dec    esi
    3bf3:	45                   	inc    ebp
    3bf4:	44                   	inc    esp
    3bf5:	5f                   	pop    edi
    3bf6:	20 00                	and    BYTE PTR [eax],al
    3bf8:	5f                   	pop    edi
    3bf9:	5f                   	pop    edi
    3bfa:	6e                   	outs   dx,BYTE PTR ds:[esi]
    3bfb:	65 65 64 5f          	gs gs fs pop edi
    3bff:	4e                   	dec    esi
    3c00:	55                   	push   ebp
    3c01:	4c                   	dec    esp
    3c02:	4c                   	dec    esp
    3c03:	00 5f 47             	add    BYTE PTR [edi+0x47],bl
    3c06:	43                   	inc    ebx
    3c07:	43                   	inc    ebx
    3c08:	5f                   	pop    edi
    3c09:	53                   	push   ebx
    3c0a:	49                   	dec    ecx
    3c0b:	5a                   	pop    edx
    3c0c:	45                   	inc    ebp
    3c0d:	5f                   	pop    edi
    3c0e:	54                   	push   esp
    3c0f:	20 00                	and    BYTE PTR [eax],al
    3c11:	5f                   	pop    edi
    3c12:	5f                   	pop    edi
    3c13:	53                   	push   ebx
    3c14:	54                   	push   esp
    3c15:	44                   	inc    esp
    3c16:	43                   	inc    ebx
    3c17:	5f                   	pop    edi
    3c18:	56                   	push   esi
    3c19:	45                   	inc    ebp
    3c1a:	52                   	push   edx
    3c1b:	53                   	push   ebx
    3c1c:	49                   	dec    ecx
    3c1d:	4f                   	dec    edi
    3c1e:	4e                   	dec    esi
    3c1f:	5f                   	pop    edi
    3c20:	53                   	push   ebx
    3c21:	54                   	push   esp
    3c22:	44                   	inc    esp
    3c23:	44                   	inc    esp
    3c24:	45                   	inc    ebp
    3c25:	46                   	inc    esi
    3c26:	5f                   	pop    edi
    3c27:	48                   	dec    eax
    3c28:	5f                   	pop    edi
    3c29:	5f                   	pop    edi
    3c2a:	20 32                	and    BYTE PTR [edx],dh
    3c2c:	30 32                	xor    BYTE PTR [edx],dh
    3c2e:	33 31                	xor    esi,DWORD PTR [ecx]
    3c30:	31 4c 00 5f          	xor    DWORD PTR [eax+eax*1+0x5f],ecx
    3c34:	5f                   	pop    edi
    3c35:	50                   	push   eax
    3c36:	54                   	push   esp
    3c37:	52                   	push   edx
    3c38:	44                   	inc    esp
    3c39:	49                   	dec    ecx
    3c3a:	46                   	inc    esi
    3c3b:	46                   	inc    esi
    3c3c:	5f                   	pop    edi
    3c3d:	54                   	push   esp
    3c3e:	20 00                	and    BYTE PTR [eax],al
    3c40:	6f                   	outs   dx,DWORD PTR ds:[esi]
    3c41:	66 66 73 65          	data16 data16 jae 3caa <code-0x438b>
    3c45:	74 00                	je     3c47 <code-0x43ee>
    3c47:	5f                   	pop    edi
    3c48:	5f                   	pop    edi
    3c49:	77 63                	ja     3cae <code-0x4387>
    3c4b:	68 61 72 5f 74       	push   0x745f7261
    3c50:	5f                   	pop    edi
    3c51:	5f                   	pop    edi
    3c52:	20 00                	and    BYTE PTR [eax],al
    3c54:	5f                   	pop    edi
    3c55:	53                   	push   ebx
    3c56:	49                   	dec    ecx
    3c57:	5a                   	pop    edx
    3c58:	45                   	inc    ebp
    3c59:	5f                   	pop    edi
    3c5a:	54                   	push   esp
    3c5b:	5f                   	pop    edi
    3c5c:	44                   	inc    esp
    3c5d:	45                   	inc    ebp
    3c5e:	46                   	inc    esi
    3c5f:	49                   	dec    ecx
    3c60:	4e                   	dec    esi
    3c61:	45                   	inc    ebp
    3c62:	44                   	inc    esp
    3c63:	20 00                	and    BYTE PTR [eax],al
    3c65:	5f                   	pop    edi
    3c66:	5f                   	pop    edi
    3c67:	6e                   	outs   dx,BYTE PTR ds:[esi]
    3c68:	65 65 64 5f          	gs gs fs pop edi
    3c6c:	70 74                	jo     3ce2 <code-0x4353>
    3c6e:	72 64                	jb     3cd4 <code-0x4361>
    3c70:	69 66 66 5f 74 00 5f 	imul   esp,DWORD PTR [esi+0x66],0x5f00745f
    3c77:	5f                   	pop    edi
    3c78:	53                   	push   ebx
    3c79:	49                   	dec    ecx
    3c7a:	5a                   	pop    edx
    3c7b:	45                   	inc    ebp
    3c7c:	5f                   	pop    edi
    3c7d:	54                   	push   esp
    3c7e:	5f                   	pop    edi
    3c7f:	5f                   	pop    edi
    3c80:	20 00                	and    BYTE PTR [eax],al
    3c82:	53                   	push   ebx
    3c83:	54                   	push   esp
    3c84:	52                   	push   edx
    3c85:	5f                   	pop    edi
    3c86:	43                   	inc    ebx
    3c87:	4f                   	dec    edi
    3c88:	4c                   	dec    esp
    3c89:	4f                   	dec    edi
    3c8a:	55                   	push   ebp
    3c8b:	52                   	push   edx
    3c8c:	20 30                	and    BYTE PTR [eax],dh
    3c8e:	78 31                	js     3cc1 <code-0x4374>
    3c90:	46                   	inc    esi
    3c91:	00 5f 53             	add    BYTE PTR [edi+0x53],bl
    3c94:	49                   	dec    ecx
    3c95:	5a                   	pop    edx
    3c96:	45                   	inc    ebp
    3c97:	54                   	push   esp
    3c98:	5f                   	pop    edi
    3c99:	20 00                	and    BYTE PTR [eax],al
    3c9b:	5f                   	pop    edi
    3c9c:	5f                   	pop    edi
    3c9d:	5f                   	pop    edi
    3c9e:	69 6e 74 5f 70 74 72 	imul   ebp,DWORD PTR [esi+0x74],0x7274705f
    3ca5:	64 69 66 66 5f 74 5f 	imul   esp,DWORD PTR fs:[esi+0x66],0x685f745f
    3cac:	68 
    3cad:	20 00                	and    BYTE PTR [eax],al
    3caf:	5f                   	pop    edi
    3cb0:	5f                   	pop    edi
    3cb1:	6e                   	outs   dx,BYTE PTR ds:[esi]
    3cb2:	65 65 64 5f          	gs gs fs pop edi
    3cb6:	77 63                	ja     3d1b <code-0x431a>
    3cb8:	68 61 72 5f 74       	push   0x745f7261
    3cbd:	00 5f 5f             	add    BYTE PTR [edi+0x5f],bl
    3cc0:	44                   	inc    esp
    3cc1:	45                   	inc    ebp
    3cc2:	46                   	inc    esi
    3cc3:	49                   	dec    ecx
    3cc4:	4e                   	dec    esi
    3cc5:	45                   	inc    ebp
    3cc6:	44                   	inc    esp
    3cc7:	5f                   	pop    edi
    3cc8:	77 63                	ja     3d2d <code-0x4308>
    3cca:	68 61 72 5f 74       	push   0x745f7261
    3ccf:	20 00                	and    BYTE PTR [eax],al
    3cd1:	5f                   	pop    edi
    3cd2:	5f                   	pop    edi
    3cd3:	57                   	push   edi
    3cd4:	43                   	inc    ebx
    3cd5:	48                   	dec    eax
    3cd6:	41                   	inc    ecx
    3cd7:	52                   	push   edx
    3cd8:	5f                   	pop    edi
    3cd9:	54                   	push   esp
    3cda:	5f                   	pop    edi
    3cdb:	5f                   	pop    edi
    3cdc:	20 00                	and    BYTE PTR [eax],al
    3cde:	5f                   	pop    edi
    3cdf:	5f                   	pop    edi
    3ce0:	57                   	push   edi
    3ce1:	43                   	inc    ebx
    3ce2:	48                   	dec    eax
    3ce3:	41                   	inc    ecx
    3ce4:	52                   	push   edx
    3ce5:	5f                   	pop    edi
    3ce6:	54                   	push   esp
    3ce7:	20 00                	and    BYTE PTR [eax],al
    3ce9:	5f                   	pop    edi
    3cea:	5f                   	pop    edi
    3ceb:	73 69                	jae    3d56 <code-0x42df>
    3ced:	7a 65                	jp     3d54 <code-0x42e1>
    3cef:	5f                   	pop    edi
    3cf0:	74 20                	je     3d12 <code-0x4323>
    3cf2:	00 5f 47             	add    BYTE PTR [edi+0x47],bl
    3cf5:	43                   	inc    ebx
    3cf6:	43                   	inc    ebx
    3cf7:	5f                   	pop    edi
    3cf8:	4e                   	dec    esi
    3cf9:	55                   	push   ebp
    3cfa:	4c                   	dec    esp
    3cfb:	4c                   	dec    esp
    3cfc:	50                   	push   eax
    3cfd:	54                   	push   esp
    3cfe:	52                   	push   edx
    3cff:	5f                   	pop    edi
    3d00:	54                   	push   esp
    3d01:	20 00                	and    BYTE PTR [eax],al
    3d03:	76 67                	jbe    3d6c <code-0x42c9>
    3d05:	61                   	popa
    3d06:	5f                   	pop    edi
    3d07:	6d                   	ins    DWORD PTR es:[edi],dx
    3d08:	65 6d                	gs ins DWORD PTR es:[edi],dx
    3d0a:	00 5f 57             	add    BYTE PTR [edi+0x57],bl
    3d0d:	43                   	inc    ebx
    3d0e:	48                   	dec    eax
    3d0f:	41                   	inc    ecx
    3d10:	52                   	push   edx
    3d11:	5f                   	pop    edi
    3d12:	54                   	push   esp
    3d13:	5f                   	pop    edi
    3d14:	44                   	inc    esp
    3d15:	45                   	inc    ebp
    3d16:	46                   	inc    esi
    3d17:	49                   	dec    ecx
    3d18:	4e                   	dec    esi
    3d19:	45                   	inc    ebp
    3d1a:	44                   	inc    esp
    3d1b:	20 00                	and    BYTE PTR [eax],al
    3d1d:	5f                   	pop    edi
    3d1e:	50                   	push   eax
    3d1f:	54                   	push   esp
    3d20:	52                   	push   edx
    3d21:	44                   	inc    esp
    3d22:	49                   	dec    ecx
    3d23:	46                   	inc    esi
    3d24:	46                   	inc    esi
    3d25:	5f                   	pop    edi
    3d26:	54                   	push   esp
    3d27:	5f                   	pop    edi
    3d28:	44                   	inc    esp
    3d29:	45                   	inc    ebp
    3d2a:	43                   	inc    ebx
    3d2b:	4c                   	dec    esp
    3d2c:	41                   	inc    ecx
    3d2d:	52                   	push   edx
    3d2e:	45                   	inc    ebp
    3d2f:	44                   	inc    esp
    3d30:	20 00                	and    BYTE PTR [eax],al
    3d32:	70 72                	jo     3da6 <code-0x428f>
    3d34:	69 6e 74 5f 63 73 74 	imul   ebp,DWORD PTR [esi+0x74],0x7473635f
    3d3b:	72 00                	jb     3d3d <code-0x42f8>
    3d3d:	5f                   	pop    edi
    3d3e:	42                   	inc    edx
    3d3f:	53                   	push   ebx
    3d40:	44                   	inc    esp
    3d41:	5f                   	pop    edi
    3d42:	50                   	push   eax
    3d43:	54                   	push   esp
    3d44:	52                   	push   edx
    3d45:	44                   	inc    esp
    3d46:	49                   	dec    ecx
    3d47:	46                   	inc    esi
    3d48:	46                   	inc    esi
    3d49:	5f                   	pop    edi
    3d4a:	54                   	push   esp
    3d4b:	5f                   	pop    edi
    3d4c:	20 00                	and    BYTE PTR [eax],al
    3d4e:	5f                   	pop    edi
    3d4f:	5f                   	pop    edi
    3d50:	5f                   	pop    edi
    3d51:	69 6e 74 5f 73 69 7a 	imul   ebp,DWORD PTR [esi+0x74],0x7a69735f
    3d58:	65 5f                	gs pop edi
    3d5a:	74 5f                	je     3dbb <code-0x427a>
    3d5c:	68 20 00 6c 6f       	push   0x6f6c0020
    3d61:	6e                   	outs   dx,BYTE PTR ds:[esi]
    3d62:	67 20 64 6f          	and    BYTE PTR [si+0x6f],ah
    3d66:	75 62                	jne    3dca <code-0x426b>
    3d68:	6c                   	ins    BYTE PTR es:[edi],dx
    3d69:	65 00 5f 5f          	add    BYTE PTR gs:[edi+0x5f],bl
    3d6d:	6e                   	outs   dx,BYTE PTR ds:[esi]
    3d6e:	65 65 64 5f          	gs gs fs pop edi
    3d72:	73 69                	jae    3ddd <code-0x4258>
    3d74:	7a 65                	jp     3ddb <code-0x425a>
    3d76:	5f                   	pop    edi
    3d77:	74 00                	je     3d79 <code-0x42bc>
    3d79:	5f                   	pop    edi
    3d7a:	5f                   	pop    edi
    3d7b:	5f                   	pop    edi
    3d7c:	69 6e 74 5f 77 63 68 	imul   ebp,DWORD PTR [esi+0x74],0x6863775f
    3d83:	61                   	popa
    3d84:	72 5f                	jb     3de5 <code-0x4250>
    3d86:	74 5f                	je     3de7 <code-0x424e>
    3d88:	68 20 00 5f 54       	push   0x545f0020
    3d8d:	5f                   	pop    edi
    3d8e:	57                   	push   edi
    3d8f:	43                   	inc    ebx
    3d90:	48                   	dec    eax
    3d91:	41                   	inc    ecx
    3d92:	52                   	push   edx
    3d93:	5f                   	pop    edi
    3d94:	20 00                	and    BYTE PTR [eax],al
    3d96:	5f                   	pop    edi
    3d97:	5f                   	pop    edi
    3d98:	49                   	dec    ecx
    3d99:	4e                   	dec    esi
    3d9a:	54                   	push   esp
    3d9b:	5f                   	pop    edi
    3d9c:	57                   	push   edi
    3d9d:	43                   	inc    ebx
    3d9e:	48                   	dec    eax
    3d9f:	41                   	inc    ecx
    3da0:	52                   	push   edx
    3da1:	5f                   	pop    edi
    3da2:	54                   	push   esp
    3da3:	5f                   	pop    edi
    3da4:	48                   	dec    eax
    3da5:	20 00                	and    BYTE PTR [eax],al
    3da7:	5f                   	pop    edi
    3da8:	57                   	push   edi
    3da9:	43                   	inc    ebx
    3daa:	48                   	dec    eax
    3dab:	41                   	inc    ecx
    3dac:	52                   	push   edx
    3dad:	5f                   	pop    edi
    3dae:	54                   	push   esp
    3daf:	5f                   	pop    edi
    3db0:	44                   	inc    esp
    3db1:	45                   	inc    ebp
    3db2:	43                   	inc    ebx
    3db3:	4c                   	dec    esp
    3db4:	41                   	inc    ecx
    3db5:	52                   	push   edx
    3db6:	45                   	inc    ebp
    3db7:	44                   	inc    esp
    3db8:	20 00                	and    BYTE PTR [eax],al
    3dba:	75 6e                	jne    3e2a <code-0x420b>
    3dbc:	72 65                	jb     3e23 <code-0x4212>
    3dbe:	61                   	popa
    3dbf:	63 68 61             	arpl   WORD PTR [eax+0x61],ebp
    3dc2:	62 6c 65 28          	bound  ebp,QWORD PTR [ebp+eiz*2+0x28]
    3dc6:	29 20                	sub    DWORD PTR [eax],esp
    3dc8:	28 5f 5f             	sub    BYTE PTR [edi+0x5f],bl
    3dcb:	62 75 69             	bound  esi,QWORD PTR [ebp+0x69]
    3dce:	6c                   	ins    BYTE PTR es:[edi],dx
    3dcf:	74 69                	je     3e3a <code-0x41fb>
    3dd1:	6e                   	outs   dx,BYTE PTR ds:[esi]
    3dd2:	5f                   	pop    edi
    3dd3:	75 6e                	jne    3e43 <code-0x41f2>
    3dd5:	72 65                	jb     3e3c <code-0x41f9>
    3dd7:	61                   	popa
    3dd8:	63 68 61             	arpl   WORD PTR [eax+0x61],ebp
    3ddb:	62 6c 65 20          	bound  ebp,QWORD PTR [ebp+eiz*2+0x20]
    3ddf:	28 29                	sub    BYTE PTR [ecx],ch
    3de1:	29 00                	sub    DWORD PTR [eax],eax
    3de3:	5f                   	pop    edi
    3de4:	5f                   	pop    edi
    3de5:	44                   	inc    esp
    3de6:	45                   	inc    ebp
    3de7:	46                   	inc    esi
    3de8:	49                   	dec    ecx
    3de9:	4e                   	dec    esi
    3dea:	45                   	inc    ebp
    3deb:	44                   	inc    esp
    3dec:	5f                   	pop    edi
    3ded:	73 69                	jae    3e58 <code-0x41dd>
    3def:	7a 65                	jp     3e56 <code-0x41df>
    3df1:	5f                   	pop    edi
    3df2:	74 20                	je     3e14 <code-0x4221>
    3df4:	00 5f 53             	add    BYTE PTR [edi+0x53],bl
    3df7:	59                   	pop    ecx
    3df8:	53                   	push   ebx
    3df9:	5f                   	pop    edi
    3dfa:	53                   	push   ebx
    3dfb:	49                   	dec    ecx
    3dfc:	5a                   	pop    edx
    3dfd:	45                   	inc    ebp
    3dfe:	5f                   	pop    edi
    3dff:	54                   	push   esp
    3e00:	5f                   	pop    edi
    3e01:	48                   	dec    eax
    3e02:	20 00                	and    BYTE PTR [eax],al
    3e04:	5f                   	pop    edi
    3e05:	47                   	inc    edi
    3e06:	43                   	inc    ebx
    3e07:	43                   	inc    ebx
    3e08:	5f                   	pop    edi
    3e09:	50                   	push   eax
    3e0a:	54                   	push   esp
    3e0b:	52                   	push   edx
    3e0c:	44                   	inc    esp
    3e0d:	49                   	dec    ecx
    3e0e:	46                   	inc    esi
    3e0f:	46                   	inc    esi
    3e10:	5f                   	pop    edi
    3e11:	54                   	push   esp
    3e12:	20 00                	and    BYTE PTR [eax],al
    3e14:	6f                   	outs   dx,DWORD PTR ds:[esi]
    3e15:	66 66 73 65          	data16 data16 jae 3e7e <code-0x41b7>
    3e19:	74 6f                	je     3e8a <code-0x41ab>
    3e1b:	66 00 6f 66          	data16 add BYTE PTR [edi+0x66],ch
    3e1f:	66 73 65             	data16 jae 3e87 <code-0x41ae>
    3e22:	74 6f                	je     3e93 <code-0x41a2>
    3e24:	66 28 54 59 50       	data16 sub BYTE PTR [ecx+ebx*2+0x50],dl
    3e29:	45                   	inc    ebp
    3e2a:	2c 4d                	sub    al,0x4d
    3e2c:	45                   	inc    ebp
    3e2d:	4d                   	dec    ebp
    3e2e:	42                   	inc    edx
    3e2f:	45                   	inc    ebp
    3e30:	52                   	push   edx
    3e31:	29 20                	sub    DWORD PTR [eax],esp
    3e33:	5f                   	pop    edi
    3e34:	5f                   	pop    edi
    3e35:	62 75 69             	bound  esi,QWORD PTR [ebp+0x69]
    3e38:	6c                   	ins    BYTE PTR es:[edi],dx
    3e39:	74 69                	je     3ea4 <code-0x4191>
    3e3b:	6e                   	outs   dx,BYTE PTR ds:[esi]
    3e3c:	5f                   	pop    edi
    3e3d:	6f                   	outs   dx,DWORD PTR ds:[esi]
    3e3e:	66 66 73 65          	data16 data16 jae 3ea7 <code-0x418e>
    3e42:	74 6f                	je     3eb3 <code-0x4182>
    3e44:	66 20 28             	data16 and BYTE PTR [eax],ch
    3e47:	54                   	push   esp
    3e48:	59                   	pop    ecx
    3e49:	50                   	push   eax
    3e4a:	45                   	inc    ebp
    3e4b:	2c 20                	sub    al,0x20
    3e4d:	4d                   	dec    ebp
    3e4e:	45                   	inc    ebp
    3e4f:	4d                   	dec    ebp
    3e50:	42                   	inc    edx
    3e51:	45                   	inc    ebp
    3e52:	52                   	push   edx
    3e53:	29 00                	sub    DWORD PTR [eax],eax
    3e55:	5f                   	pop    edi
    3e56:	54                   	push   esp
    3e57:	5f                   	pop    edi
    3e58:	57                   	push   edi
    3e59:	43                   	inc    ebx
    3e5a:	48                   	dec    eax
    3e5b:	41                   	inc    ecx
    3e5c:	52                   	push   edx
    3e5d:	20 00                	and    BYTE PTR [eax],al
    3e5f:	4e                   	dec    esi
    3e60:	55                   	push   ebp
    3e61:	4c                   	dec    esp
    3e62:	4c                   	dec    esp
    3e63:	20 28                	and    BYTE PTR [eax],ch
    3e65:	28 76 6f             	sub    BYTE PTR [esi+0x6f],dh
    3e68:	69 64 20 2a 29 30 29 	imul   esp,DWORD PTR [eax+eiz*1+0x2a],0x293029
    3e6f:	00 
    3e70:	5f                   	pop    edi
    3e71:	42                   	inc    edx
    3e72:	53                   	push   ebx
    3e73:	44                   	inc    esp
    3e74:	5f                   	pop    edi
    3e75:	57                   	push   edi
    3e76:	43                   	inc    ebx
    3e77:	48                   	dec    eax
    3e78:	41                   	inc    ecx
    3e79:	52                   	push   edx
    3e7a:	5f                   	pop    edi
    3e7b:	54                   	push   esp
    3e7c:	5f                   	pop    edi
    3e7d:	20 00                	and    BYTE PTR [eax],al
    3e7f:	5f                   	pop    edi
    3e80:	54                   	push   esp
    3e81:	5f                   	pop    edi
    3e82:	50                   	push   eax
    3e83:	54                   	push   esp
    3e84:	52                   	push   edx
    3e85:	44                   	inc    esp
    3e86:	49                   	dec    ecx
    3e87:	46                   	inc    esi
    3e88:	46                   	inc    esi
    3e89:	5f                   	pop    edi
    3e8a:	20 00                	and    BYTE PTR [eax],al
    3e8c:	5f                   	pop    edi
    3e8d:	53                   	push   ebx
    3e8e:	54                   	push   esp
    3e8f:	44                   	inc    esp
    3e90:	44                   	inc    esp
    3e91:	45                   	inc    ebp
    3e92:	46                   	inc    esi
    3e93:	5f                   	pop    edi
    3e94:	48                   	dec    eax
    3e95:	5f                   	pop    edi
    3e96:	20 00                	and    BYTE PTR [eax],al
    3e98:	5f                   	pop    edi
    3e99:	53                   	push   ebx
    3e9a:	49                   	dec    ecx
    3e9b:	5a                   	pop    edx
    3e9c:	45                   	inc    ebp
    3e9d:	5f                   	pop    edi
    3e9e:	54                   	push   esp
    3e9f:	5f                   	pop    edi
    3ea0:	44                   	inc    esp
    3ea1:	45                   	inc    ebp
    3ea2:	43                   	inc    ebx
    3ea3:	4c                   	dec    esp
    3ea4:	41                   	inc    ecx
    3ea5:	52                   	push   edx
    3ea6:	45                   	inc    ebp
    3ea7:	44                   	inc    esp
    3ea8:	20 00                	and    BYTE PTR [eax],al
    3eaa:	5f                   	pop    edi
    3eab:	54                   	push   esp
    3eac:	5f                   	pop    edi
    3ead:	50                   	push   eax
    3eae:	54                   	push   esp
    3eaf:	52                   	push   edx
    3eb0:	44                   	inc    esp
    3eb1:	49                   	dec    ecx
    3eb2:	46                   	inc    esi
    3eb3:	46                   	inc    esi
    3eb4:	20 00                	and    BYTE PTR [eax],al
    3eb6:	5f                   	pop    edi
    3eb7:	47                   	inc    edi
    3eb8:	43                   	inc    ebx
    3eb9:	43                   	inc    ebx
    3eba:	5f                   	pop    edi
    3ebb:	4d                   	dec    ebp
    3ebc:	41                   	inc    ecx
    3ebd:	58                   	pop    eax
    3ebe:	5f                   	pop    edi
    3ebf:	41                   	inc    ecx
    3ec0:	4c                   	dec    esp
    3ec1:	49                   	dec    ecx
    3ec2:	47                   	inc    edi
    3ec3:	4e                   	dec    esi
    3ec4:	5f                   	pop    edi
    3ec5:	54                   	push   esp
    3ec6:	20 00                	and    BYTE PTR [eax],al
    3ec8:	5f                   	pop    edi
    3ec9:	41                   	inc    ecx
    3eca:	4e                   	dec    esi
    3ecb:	53                   	push   ebx
    3ecc:	49                   	dec    ecx
    3ecd:	5f                   	pop    edi
    3ece:	53                   	push   ebx
    3ecf:	54                   	push   esp
    3ed0:	44                   	inc    esp
    3ed1:	44                   	inc    esp
    3ed2:	45                   	inc    ebp
    3ed3:	46                   	inc    esi
    3ed4:	5f                   	pop    edi
    3ed5:	48                   	dec    eax
    3ed6:	20 00                	and    BYTE PTR [eax],al
    3ed8:	5f                   	pop    edi
    3ed9:	5f                   	pop    edi
    3eda:	73 69                	jae    3f45 <code-0x40f0>
    3edc:	7a 65                	jp     3f43 <code-0x40f2>
    3ede:	5f                   	pop    edi
    3edf:	74 5f                	je     3f40 <code-0x40f5>
    3ee1:	5f                   	pop    edi
    3ee2:	20 00                	and    BYTE PTR [eax],al
    3ee4:	6c                   	ins    BYTE PTR es:[edi],dx
    3ee5:	69 6d 69 74 00 69 6e 	imul   ebp,DWORD PTR [ebp+0x69],0x6e690074
    3eec:	69 74 5f 69 64 74 00 	imul   esi,DWORD PTR [edi+ebx*2+0x69],0x69007464
    3ef3:	69 
    3ef4:	6e                   	outs   dx,BYTE PTR ds:[esi]
    3ef5:	76 61                	jbe    3f58 <code-0x40dd>
    3ef7:	6c                   	ins    BYTE PTR es:[edi],dx
    3ef8:	69 64 5f 6f 70 63 6f 	imul   esp,DWORD PTR [edi+ebx*2+0x6f],0x646f6370
    3eff:	64 
    3f00:	65 00 6d 61          	add    BYTE PTR gs:[ebp+0x61],ch
    3f04:	69 6e 00 69 64 74 5f 	imul   ebp,DWORD PTR [esi+0x0],0x5f746469
    3f0b:	65 6e                	outs   dx,BYTE PTR gs:[esi]
    3f0d:	74 72                	je     3f81 <code-0x40b4>
    3f0f:	69 65 73 00 69 64 74 	imul   esp,DWORD PTR [ebp+0x73],0x74646900
    3f16:	5f                   	pop    edi
    3f17:	64 65 73 63          	fs gs jae 3f7e <code-0x40b7>
	...

Disassembly of section .debug_line_str:

00000000 <.debug_line_str>:
   0:	2f                   	das
   1:	68 6f 6d 65 2f       	push   0x2f656d6f
   6:	61                   	popa
   7:	62 68 61             	bound  ebp,QWORD PTR [eax+0x61]
   a:	79 2f                	jns    3b <code-0x7ffa>
   c:	42                   	inc    edx
   d:	61                   	popa
   e:	63 6f 6e             	arpl   WORD PTR [edi+0x6e],ebp
  11:	2f                   	das
  12:	73 72                	jae    86 <code-0x7faf>
  14:	63 2f                	arpl   WORD PTR [edi],ebp
  16:	62 6f 6f             	bound  ebp,QWORD PTR [edi+0x6f]
  19:	74 6c                	je     87 <code-0x7fae>
  1b:	6f                   	outs   dx,DWORD PTR ds:[esi]
  1c:	61                   	popa
  1d:	64 65 72 2f          	fs gs jb 50 <code-0x7fe5>
  21:	73 74                	jae    97 <code-0x7f9e>
  23:	61                   	popa
  24:	67 65 2d 31 2e 35 00 	addr16 gs sub eax,0x352e31
  2b:	69 64 74 2e 63 00 2f 	imul   esp,DWORD PTR [esp+esi*2+0x2e],0x752f0063
  32:	75 
  33:	73 72                	jae    a7 <code-0x7f8e>
  35:	2f                   	das
  36:	6c                   	ins    BYTE PTR es:[edi],dx
  37:	69 62 2f 67 63 63 2f 	imul   esp,DWORD PTR [edx+0x2f],0x2f636367
  3e:	78 38                	js     78 <code-0x7fbd>
  40:	36 5f                	ss pop edi
  42:	36 34 2d             	ss xor al,0x2d
  45:	70 63                	jo     aa <code-0x7f8b>
  47:	2d 6c 69 6e 75       	sub    eax,0x756e696c
  4c:	78 2d                	js     7b <code-0x7fba>
  4e:	67 6e                	outs   dx,BYTE PTR ds:[si]
  50:	75 2f                	jne    81 <code-0x7fb4>
  52:	31 34 2e             	xor    DWORD PTR [esi+ebp*1],esi
  55:	32 2e                	xor    ch,BYTE PTR [esi]
  57:	31 2f                	xor    DWORD PTR [edi],ebp
  59:	69 6e 63 6c 75 64 65 	imul   ebp,DWORD PTR [esi+0x63],0x6564756c
  60:	00 73 74             	add    BYTE PTR [ebx+0x74],dh
  63:	64 69 6e 74 2d 67 63 	imul   ebp,DWORD PTR fs:[esi+0x74],0x6363672d
  6a:	63 
  6b:	2e 68 00 69 64 74    	cs push 0x74646900
  71:	2e 68 00 73 74 64    	cs push 0x64747300
  77:	69 6e 74 2e 68 00 75 	imul   ebp,DWORD PTR [esi+0x74],0x7500682e
  7e:	74 69                	je     e9 <code-0x7f4c>
  80:	6c                   	ins    BYTE PTR es:[edi],dx
  81:	2e 63 00             	arpl   WORD PTR cs:[eax],eax
  84:	73 74                	jae    fa <code-0x7f3b>
  86:	64 64 65 66 2e 68 00 	fs fs gs cs pushw 0x7500
  8d:	75 
  8e:	74 69                	je     f9 <code-0x7f3c>
  90:	6c                   	ins    BYTE PTR es:[edi],dx
  91:	2e 68 00 70 72 6f    	cs push 0x6f727000
  97:	74 65                	je     fe <code-0x7f37>
  99:	63 74 65 64          	arpl   WORD PTR [ebp+eiz*2+0x64],esi
  9d:	2d 65 6e 74 72       	sub    eax,0x72746e65
  a2:	79 2e                	jns    d2 <code-0x7f63>
  a4:	63 00                	arpl   WORD PTR [eax],eax

Disassembly of section .comment:

00000000 <.comment>:
   0:	47                   	inc    edi
   1:	43                   	inc    ebx
   2:	43                   	inc    ebx
   3:	3a 20                	cmp    ah,BYTE PTR [eax]
   5:	28 47 4e             	sub    BYTE PTR [edi+0x4e],al
   8:	55                   	push   ebp
   9:	29 20                	sub    DWORD PTR [eax],esp
   b:	31 34 2e             	xor    DWORD PTR [esi+ebp*1],esi
   e:	32 2e                	xor    ch,BYTE PTR [esi]
  10:	31 20                	xor    DWORD PTR [eax],esp
  12:	32 30                	xor    dh,BYTE PTR [eax]
  14:	32 35 30 32 30 37    	xor    dh,BYTE PTR ds:0x37303230
	...
